LIBRARY node.exe

EXPORTS
  ??$Add@VIsolate@internal@v8@@@?$Dictionary@VGlobalDictionary@internal@v8@@VGlobalDictionaryShape@23@@internal@v8@@SA?AV?$Handle@VGlobalDictionary@internal@v8@@@12@PEAVIsolate@12@V312@V?$Handle@VName@internal@v8@@@12@V?$Handle@VObject@internal@v8@@@12@VPropertyDetails@12@PEAVInternalIndex@12@@Z
  ??$Add@VIsolate@internal@v8@@@?$Dictionary@VNameDictionary@internal@v8@@VNameDictionaryShape@23@@internal@v8@@SA?AV?$Handle@VNameDictionary@internal@v8@@@12@PEAVIsolate@12@V312@V?$Handle@VName@internal@v8@@@12@V?$Handle@VObject@internal@v8@@@12@VPropertyDetails@12@PEAVInternalIndex@12@@Z
  ??$Add@VIsolate@internal@v8@@@?$Dictionary@VNumberDictionary@internal@v8@@VNumberDictionaryShape@23@@internal@v8@@SA?AV?$Handle@VNumberDictionary@internal@v8@@@12@PEAVIsolate@12@V312@IV?$Handle@VObject@internal@v8@@@12@VPropertyDetails@12@PEAVInternalIndex@12@@Z
  ??$Add@VIsolate@internal@v8@@@?$Dictionary@VSimpleNumberDictionary@internal@v8@@VSimpleNumberDictionaryShape@23@@internal@v8@@SA?AV?$Handle@VSimpleNumberDictionary@internal@v8@@@12@PEAVIsolate@12@V312@IV?$Handle@VObject@internal@v8@@@12@VPropertyDetails@12@PEAVInternalIndex@12@@Z
  ??$Add@VIsolate@internal@v8@@@OrderedNameDictionary@internal@v8@@SA?AV?$MaybeHandle@VOrderedNameDictionary@internal@v8@@@12@PEAVIsolate@12@V?$Handle@VOrderedNameDictionary@internal@v8@@@12@V?$Handle@VName@internal@v8@@@12@V?$Handle@VObject@internal@v8@@@12@VPropertyDetails@12@@Z
  ??$Add@VLocalIsolate@internal@v8@@@?$Dictionary@VGlobalDictionary@internal@v8@@VGlobalDictionaryShape@23@@internal@v8@@SA?AV?$Handle@VGlobalDictionary@internal@v8@@@12@PEAVLocalIsolate@12@V312@V?$Handle@VName@internal@v8@@@12@V?$Handle@VObject@internal@v8@@@12@VPropertyDetails@12@PEAVInternalIndex@12@@Z
  ??$Add@VLocalIsolate@internal@v8@@@?$Dictionary@VNameDictionary@internal@v8@@VNameDictionaryShape@23@@internal@v8@@SA?AV?$Handle@VNameDictionary@internal@v8@@@12@PEAVLocalIsolate@12@V312@V?$Handle@VName@internal@v8@@@12@V?$Handle@VObject@internal@v8@@@12@VPropertyDetails@12@PEAVInternalIndex@12@@Z
  ??$Add@VLocalIsolate@internal@v8@@@?$Dictionary@VNumberDictionary@internal@v8@@VNumberDictionaryShape@23@@internal@v8@@SA?AV?$Handle@VNumberDictionary@internal@v8@@@12@PEAVLocalIsolate@12@V312@IV?$Handle@VObject@internal@v8@@@12@VPropertyDetails@12@PEAVInternalIndex@12@@Z
  ??$Add@VLocalIsolate@internal@v8@@@?$Dictionary@VSimpleNumberDictionary@internal@v8@@VSimpleNumberDictionaryShape@23@@internal@v8@@SA?AV?$Handle@VSimpleNumberDictionary@internal@v8@@@12@PEAVLocalIsolate@12@V312@IV?$Handle@VObject@internal@v8@@@12@VPropertyDetails@12@PEAVInternalIndex@12@@Z
  ??$Add@VLocalIsolate@internal@v8@@@OrderedNameDictionary@internal@v8@@SA?AV?$MaybeHandle@VOrderedNameDictionary@internal@v8@@@12@PEAVLocalIsolate@12@V?$Handle@VOrderedNameDictionary@internal@v8@@@12@V?$Handle@VName@internal@v8@@@12@V?$Handle@VObject@internal@v8@@@12@VPropertyDetails@12@@Z
  ??$Allocate@VIsolate@internal@v8@@@AstConsString@internal@v8@@AEBA?AV?$Handle@VString@internal@v8@@@12@PEAVIsolate@12@@Z
  ??$Allocate@VIsolate@internal@v8@@@DescriptorArray@internal@v8@@SA?AV?$Handle@VDescriptorArray@internal@v8@@@12@PEAVIsolate@12@HHW4AllocationType@12@@Z
  ??$Allocate@VIsolate@internal@v8@@@OrderedHashMap@internal@v8@@SA?AV?$MaybeHandle@VOrderedHashMap@internal@v8@@@12@PEAVIsolate@12@HW4AllocationType@12@@Z
  ??$Allocate@VIsolate@internal@v8@@@OrderedHashSet@internal@v8@@SA?AV?$MaybeHandle@VOrderedHashSet@internal@v8@@@12@PEAVIsolate@12@HW4AllocationType@12@@Z
  ??$Allocate@VIsolate@internal@v8@@@OrderedNameDictionary@internal@v8@@SA?AV?$MaybeHandle@VOrderedNameDictionary@internal@v8@@@12@PEAVIsolate@12@HW4AllocationType@12@@Z
  ??$Allocate@VLocalIsolate@internal@v8@@@AstConsString@internal@v8@@AEBA?AV?$Handle@VString@internal@v8@@@12@PEAVLocalIsolate@12@@Z
  ??$Allocate@VLocalIsolate@internal@v8@@@OrderedNameDictionary@internal@v8@@SA?AV?$MaybeHandle@VOrderedNameDictionary@internal@v8@@@12@PEAVLocalIsolate@12@HW4AllocationType@12@@Z
  ??$AllocateFlat@VIsolate@internal@v8@@@AstConsString@internal@v8@@QEBA?AV?$Handle@VString@internal@v8@@@12@PEAVIsolate@12@@Z
  ??$AllocateFlat@VLocalIsolate@internal@v8@@@AstConsString@internal@v8@@QEBA?AV?$Handle@VString@internal@v8@@@12@PEAVLocalIsolate@12@@Z
  ??$AllocateScopeInfos@VIsolate@internal@v8@@@DeclarationScope@internal@v8@@SAXPEAVParseInfo@12@PEAVIsolate@12@@Z
  ??$AllocateScopeInfos@VLocalIsolate@internal@v8@@@DeclarationScope@internal@v8@@SAXPEAVParseInfo@12@PEAVLocalIsolate@12@@Z
  ??$AllocateScopeInfosRecursively@VIsolate@internal@v8@@@Scope@internal@v8@@AEAAXPEAVIsolate@12@V?$MaybeHandle@VScopeInfo@internal@v8@@@12@@Z
  ??$AllocateScopeInfosRecursively@VLocalIsolate@internal@v8@@@Scope@internal@v8@@AEAAXPEAVLocalIsolate@12@V?$MaybeHandle@VScopeInfo@internal@v8@@@12@@Z
  ??$AllocateSlotSet@$00@MemoryChunk@internal@v8@@QEAAPEAVSlotSet@12@XZ
  ??$AllocateSlotSet@$01@MemoryChunk@internal@v8@@QEAAPEAVSlotSet@12@XZ
  ??$AllocateSlotSet@$0A@@MemoryChunk@internal@v8@@QEAAPEAVSlotSet@12@XZ
  ??$At@VIsolate@internal@v8@@@ConstantArrayBuilder@interpreter@internal@v8@@QEBA?AV?$MaybeHandle@VObject@internal@v8@@@23@_KPEAVIsolate@23@@Z
  ??$At@VLocalIsolate@internal@v8@@@ConstantArrayBuilder@interpreter@internal@v8@@QEBA?AV?$MaybeHandle@VObject@internal@v8@@@23@_KPEAVLocalIsolate@23@@Z
  ??$BigIntLiteral@VIsolate@internal@v8@@@internal@v8@@YA?AV?$MaybeHandle@VBigInt@internal@v8@@@01@PEAVIsolate@01@PEBD@Z
  ??$BigIntLiteral@VLocalIsolate@internal@v8@@@internal@v8@@YA?AV?$MaybeHandle@VBigInt@internal@v8@@@01@PEAVLocalIsolate@01@PEBD@Z
  ??$BuildValue@VIsolate@internal@v8@@@Literal@internal@v8@@QEBA?AV?$Handle@VObject@internal@v8@@@12@PEAVIsolate@12@@Z
  ??$BuildValue@VLocalIsolate@internal@v8@@@Literal@internal@v8@@QEBA?AV?$Handle@VObject@internal@v8@@@12@PEAVLocalIsolate@12@@Z
  ??$ConvertDouble@H@internal@v8@@YAHN@Z
  ??$ConvertDouble@I@internal@v8@@YAIN@Z
  ??$ConvertDouble@M@internal@v8@@YAMN@Z
  ??$ConvertDouble@N@internal@v8@@YANN@Z
  ??$ConvertDouble@_J@internal@v8@@YA_JN@Z
  ??$ConvertDouble@_K@internal@v8@@YA_KN@Z
  ??$ConvertDouble@_N@internal@v8@@YA_NN@Z
  ??$Create@VIsolate@internal@v8@@@ScopeInfo@internal@v8@@SA?AV?$Handle@VScopeInfo@internal@v8@@@12@PEAVIsolate@12@PEAVZone@12@PEAVScope@12@V?$MaybeHandle@VScopeInfo@internal@v8@@@12@@Z
  ??$Create@VLocalIsolate@internal@v8@@@ScopeInfo@internal@v8@@SA?AV?$Handle@VScopeInfo@internal@v8@@@12@PEAVLocalIsolate@12@PEAVZone@12@PEAVScope@12@V?$MaybeHandle@VScopeInfo@internal@v8@@@12@@Z
  ??$CreateScript@VIsolate@internal@v8@@@ParseInfo@internal@v8@@QEAA?AV?$Handle@VScript@internal@v8@@@12@PEAVIsolate@12@V?$Handle@VString@internal@v8@@@12@V?$MaybeHandle@VFixedArray@internal@v8@@@12@VScriptOriginOptions@2@W4NativesFlag@12@@Z
  ??$CreateScript@VLocalIsolate@internal@v8@@@ParseInfo@internal@v8@@QEAA?AV?$Handle@VScript@internal@v8@@@12@PEAVLocalIsolate@12@V?$Handle@VString@internal@v8@@@12@V?$MaybeHandle@VFixedArray@internal@v8@@@12@VScriptOriginOptions@2@W4NativesFlag@12@@Z
  ??$Decode@E@Utf8Decoder@internal@v8@@QEAAXPEAEAEBV?$Vector@$$CBE@base@2@@Z
  ??$Decode@G@Utf8Decoder@internal@v8@@QEAAXPEAGAEBV?$Vector@$$CBE@base@2@@Z
  ??$DeserializeScopeChain@VIsolate@internal@v8@@@Scope@internal@v8@@SAPEAV012@PEAVIsolate@12@PEAVZone@12@VScopeInfo@12@PEAVDeclarationScope@12@PEAVAstValueFactory@12@W4DeserializationMode@012@@Z
  ??$DeserializeScopeChain@VLocalIsolate@internal@v8@@@Scope@internal@v8@@SAPEAV012@PEAVLocalIsolate@12@PEAVZone@12@VScopeInfo@12@PEAVDeclarationScope@12@PEAVAstValueFactory@12@W4DeserializationMode@012@@Z
  ??$EnsureCapacity@VIsolate@internal@v8@@@?$HashTable@VCompilationCacheTable@internal@v8@@VCompilationCacheShape@23@@internal@v8@@SA?AV?$Handle@VCompilationCacheTable@internal@v8@@@12@PEAVIsolate@12@V312@HW4AllocationType@12@@Z
  ??$EnsureCapacity@VIsolate@internal@v8@@@?$HashTable@VEphemeronHashTable@internal@v8@@VObjectHashTableShape@23@@internal@v8@@SA?AV?$Handle@VEphemeronHashTable@internal@v8@@@12@PEAVIsolate@12@V312@HW4AllocationType@12@@Z
  ??$EnsureCapacity@VIsolate@internal@v8@@@?$HashTable@VGlobalDictionary@internal@v8@@VGlobalDictionaryShape@23@@internal@v8@@SA?AV?$Handle@VGlobalDictionary@internal@v8@@@12@PEAVIsolate@12@V312@HW4AllocationType@12@@Z
  ??$EnsureCapacity@VIsolate@internal@v8@@@?$HashTable@VNameDictionary@internal@v8@@VNameDictionaryShape@23@@internal@v8@@SA?AV?$Handle@VNameDictionary@internal@v8@@@12@PEAVIsolate@12@V312@HW4AllocationType@12@@Z
  ??$EnsureCapacity@VIsolate@internal@v8@@@?$HashTable@VNameToIndexHashTable@internal@v8@@VNameToIndexShape@23@@internal@v8@@SA?AV?$Handle@VNameToIndexHashTable@internal@v8@@@12@PEAVIsolate@12@V312@HW4AllocationType@12@@Z
  ??$EnsureCapacity@VIsolate@internal@v8@@@?$HashTable@VNumberDictionary@internal@v8@@VNumberDictionaryShape@23@@internal@v8@@SA?AV?$Handle@VNumberDictionary@internal@v8@@@12@PEAVIsolate@12@V312@HW4AllocationType@12@@Z
  ??$EnsureCapacity@VIsolate@internal@v8@@@?$HashTable@VObjectHashSet@internal@v8@@VObjectHashSetShape@23@@internal@v8@@SA?AV?$Handle@VObjectHashSet@internal@v8@@@12@PEAVIsolate@12@V312@HW4AllocationType@12@@Z
  ??$EnsureCapacity@VIsolate@internal@v8@@@?$HashTable@VObjectHashTable@internal@v8@@VObjectHashTableShape@23@@internal@v8@@SA?AV?$Handle@VObjectHashTable@internal@v8@@@12@PEAVIsolate@12@V312@HW4AllocationType@12@@Z
  ??$EnsureCapacity@VIsolate@internal@v8@@@?$HashTable@VRegisteredSymbolTable@internal@v8@@VRegisteredSymbolTableShape@23@@internal@v8@@SA?AV?$Handle@VRegisteredSymbolTable@internal@v8@@@12@PEAVIsolate@12@V312@HW4AllocationType@12@@Z
  ??$EnsureCapacity@VIsolate@internal@v8@@@?$HashTable@VSimpleNumberDictionary@internal@v8@@VSimpleNumberDictionaryShape@23@@internal@v8@@SA?AV?$Handle@VSimpleNumberDictionary@internal@v8@@@12@PEAVIsolate@12@V312@HW4AllocationType@12@@Z
  ??$EnsureCapacity@VIsolate@internal@v8@@@?$HashTable@VStringSet@internal@v8@@VStringSetShape@23@@internal@v8@@SA?AV?$Handle@VStringSet@internal@v8@@@12@PEAVIsolate@12@V312@HW4AllocationType@12@@Z
  ??$EnsureCapacity@VLocalIsolate@internal@v8@@@?$HashTable@VCompilationCacheTable@internal@v8@@VCompilationCacheShape@23@@internal@v8@@SA?AV?$Handle@VCompilationCacheTable@internal@v8@@@12@PEAVLocalIsolate@12@V312@HW4AllocationType@12@@Z
  ??$EnsureCapacity@VLocalIsolate@internal@v8@@@?$HashTable@VEphemeronHashTable@internal@v8@@VObjectHashTableShape@23@@internal@v8@@SA?AV?$Handle@VEphemeronHashTable@internal@v8@@@12@PEAVLocalIsolate@12@V312@HW4AllocationType@12@@Z
  ??$EnsureCapacity@VLocalIsolate@internal@v8@@@?$HashTable@VGlobalDictionary@internal@v8@@VGlobalDictionaryShape@23@@internal@v8@@SA?AV?$Handle@VGlobalDictionary@internal@v8@@@12@PEAVLocalIsolate@12@V312@HW4AllocationType@12@@Z
  ??$EnsureCapacity@VLocalIsolate@internal@v8@@@?$HashTable@VNameDictionary@internal@v8@@VNameDictionaryShape@23@@internal@v8@@SA?AV?$Handle@VNameDictionary@internal@v8@@@12@PEAVLocalIsolate@12@V312@HW4AllocationType@12@@Z
  ??$EnsureCapacity@VLocalIsolate@internal@v8@@@?$HashTable@VNameToIndexHashTable@internal@v8@@VNameToIndexShape@23@@internal@v8@@SA?AV?$Handle@VNameToIndexHashTable@internal@v8@@@12@PEAVLocalIsolate@12@V312@HW4AllocationType@12@@Z
  ??$EnsureCapacity@VLocalIsolate@internal@v8@@@?$HashTable@VNumberDictionary@internal@v8@@VNumberDictionaryShape@23@@internal@v8@@SA?AV?$Handle@VNumberDictionary@internal@v8@@@12@PEAVLocalIsolate@12@V312@HW4AllocationType@12@@Z
  ??$EnsureCapacity@VLocalIsolate@internal@v8@@@?$HashTable@VObjectHashSet@internal@v8@@VObjectHashSetShape@23@@internal@v8@@SA?AV?$Handle@VObjectHashSet@internal@v8@@@12@PEAVLocalIsolate@12@V312@HW4AllocationType@12@@Z
  ??$EnsureCapacity@VLocalIsolate@internal@v8@@@?$HashTable@VObjectHashTable@internal@v8@@VObjectHashTableShape@23@@internal@v8@@SA?AV?$Handle@VObjectHashTable@internal@v8@@@12@PEAVLocalIsolate@12@V312@HW4AllocationType@12@@Z
  ??$EnsureCapacity@VLocalIsolate@internal@v8@@@?$HashTable@VRegisteredSymbolTable@internal@v8@@VRegisteredSymbolTableShape@23@@internal@v8@@SA?AV?$Handle@VRegisteredSymbolTable@internal@v8@@@12@PEAVLocalIsolate@12@V312@HW4AllocationType@12@@Z
  ??$EnsureCapacity@VLocalIsolate@internal@v8@@@?$HashTable@VSimpleNumberDictionary@internal@v8@@VSimpleNumberDictionaryShape@23@@internal@v8@@SA?AV?$Handle@VSimpleNumberDictionary@internal@v8@@@12@PEAVLocalIsolate@12@V312@HW4AllocationType@12@@Z
  ??$EnsureCapacity@VLocalIsolate@internal@v8@@@?$HashTable@VStringSet@internal@v8@@VStringSetShape@23@@internal@v8@@SA?AV?$Handle@VStringSet@internal@v8@@@12@PEAVLocalIsolate@12@V312@HW4AllocationType@12@@Z
  ??$EnsureGrowable@VIsolate@internal@v8@@@?$OrderedHashTable@VOrderedHashMap@internal@v8@@$01@internal@v8@@SA?AV?$MaybeHandle@VOrderedHashMap@internal@v8@@@12@PEAVIsolate@12@V?$Handle@VOrderedHashMap@internal@v8@@@12@@Z
  ??$EnsureGrowable@VIsolate@internal@v8@@@?$OrderedHashTable@VOrderedHashSet@internal@v8@@$00@internal@v8@@SA?AV?$MaybeHandle@VOrderedHashSet@internal@v8@@@12@PEAVIsolate@12@V?$Handle@VOrderedHashSet@internal@v8@@@12@@Z
  ??$FindEntry@VIsolate@internal@v8@@@OrderedNameDictionary@internal@v8@@QEAA?AVInternalIndex@12@PEAVIsolate@12@VObject@12@@Z
  ??$FindEntry@VLocalIsolate@internal@v8@@@OrderedNameDictionary@internal@v8@@QEAA?AVInternalIndex@12@PEAVLocalIsolate@12@VObject@12@@Z
  ??$GetBoilerplateValue@VIsolate@internal@v8@@@LiteralBoilerplateBuilder@internal@v8@@SA?AV?$Handle@VObject@internal@v8@@@12@PEAVExpression@12@PEAVIsolate@12@@Z
  ??$GetBoilerplateValue@VLocalIsolate@internal@v8@@@LiteralBoilerplateBuilder@internal@v8@@SA?AV?$Handle@VObject@internal@v8@@@12@PEAVExpression@12@PEAVLocalIsolate@12@@Z
  ??$GetConstantForIndexOperand@VIsolate@internal@v8@@@BytecodeArrayIterator@interpreter@internal@v8@@QEBA?AV?$Handle@VObject@internal@v8@@@23@HPEAVIsolate@23@@Z
  ??$InitFromFunctionLiteral@VIsolate@internal@v8@@@SharedFunctionInfo@internal@v8@@SAXPEAVIsolate@12@V?$Handle@VSharedFunctionInfo@internal@v8@@@12@PEAVFunctionLiteral@12@_N@Z
  ??$InitFromFunctionLiteral@VLocalIsolate@internal@v8@@@SharedFunctionInfo@internal@v8@@SAXPEAVLocalIsolate@12@V?$Handle@VSharedFunctionInfo@internal@v8@@@12@PEAVFunctionLiteral@12@_N@Z
  ??$InitLineEnds@VIsolate@internal@v8@@@Script@internal@v8@@SAXPEAVIsolate@12@V?$Handle@VScript@internal@v8@@@12@@Z
  ??$InitLineEnds@VLocalIsolate@internal@v8@@@Script@internal@v8@@SAXPEAVLocalIsolate@12@V?$Handle@VScript@internal@v8@@@12@@Z
  ??$Initialize@VIsolate@internal@v8@@@SwissNameDictionary@internal@v8@@QEAAXPEAVIsolate@12@VByteArray@12@H@Z
  ??$Initialize@VLocalIsolate@internal@v8@@@SwissNameDictionary@internal@v8@@QEAAXPEAVLocalIsolate@12@VByteArray@12@H@Z
  ??$Internalize@VIsolate@internal@v8@@@AstRawString@internal@v8@@QEAAXPEAVIsolate@12@@Z
  ??$Internalize@VIsolate@internal@v8@@@AstValueFactory@internal@v8@@QEAAXPEAVIsolate@12@@Z
  ??$Internalize@VLocalIsolate@internal@v8@@@AstRawString@internal@v8@@QEAAXPEAVLocalIsolate@12@@Z
  ??$Internalize@VLocalIsolate@internal@v8@@@AstValueFactory@internal@v8@@QEAAXPEAVLocalIsolate@12@@Z
  ??$InternalizeStringWithKey@V?$SeqSubStringKey@VSeqOneByteString@internal@v8@@@internal@v8@@@?$FactoryBase@VFactory@internal@v8@@@internal@v8@@QEAA?AV?$Handle@VString@internal@v8@@@12@PEAV?$SeqSubStringKey@VSeqOneByteString@internal@v8@@@12@@Z
  ??$InternalizeStringWithKey@V?$SeqSubStringKey@VSeqTwoByteString@internal@v8@@@internal@v8@@@?$FactoryBase@VFactory@internal@v8@@@internal@v8@@QEAA?AV?$Handle@VString@internal@v8@@@12@PEAV?$SeqSubStringKey@VSeqTwoByteString@internal@v8@@@12@@Z
  ??$InternalizeStringWithKey@V?$SequentialStringKey@E@internal@v8@@@?$FactoryBase@VFactory@internal@v8@@@internal@v8@@QEAA?AV?$Handle@VString@internal@v8@@@12@PEAV?$SequentialStringKey@E@12@@Z
  ??$InternalizeStringWithKey@V?$SequentialStringKey@E@internal@v8@@@?$FactoryBase@VLocalFactory@internal@v8@@@internal@v8@@QEAA?AV?$Handle@VString@internal@v8@@@12@PEAV?$SequentialStringKey@E@12@@Z
  ??$InternalizeStringWithKey@V?$SequentialStringKey@G@internal@v8@@@?$FactoryBase@VFactory@internal@v8@@@internal@v8@@QEAA?AV?$Handle@VString@internal@v8@@@12@PEAV?$SequentialStringKey@G@12@@Z
  ??$InternalizeStringWithKey@V?$SequentialStringKey@G@internal@v8@@@?$FactoryBase@VLocalFactory@internal@v8@@@internal@v8@@QEAA?AV?$Handle@VString@internal@v8@@@12@PEAV?$SequentialStringKey@G@12@@Z
  ??$MakeCheckOpString@HH@base@v8@@YAPEAV?$basic_string@DU?$char_traits@D@std@@V?$allocator@D@2@@std@@HHPEBD@Z
  ??$MakeCheckOpString@II@base@v8@@YAPEAV?$basic_string@DU?$char_traits@D@std@@V?$allocator@D@2@@std@@IIPEBD@Z
  ??$MakeCheckOpString@JJ@base@v8@@YAPEAV?$basic_string@DU?$char_traits@D@std@@V?$allocator@D@2@@std@@JJPEBD@Z
  ??$MakeCheckOpString@KK@base@v8@@YAPEAV?$basic_string@DU?$char_traits@D@std@@V?$allocator@D@2@@std@@KKPEBD@Z
  ??$MakeCheckOpString@PEBXPEBX@base@v8@@YAPEAV?$basic_string@DU?$char_traits@D@std@@V?$allocator@D@2@@std@@PEBX0PEBD@Z
  ??$MakeCheckOpString@_J_J@base@v8@@YAPEAV?$basic_string@DU?$char_traits@D@std@@V?$allocator@D@2@@std@@_J0PEBD@Z
  ??$MakeCheckOpString@_K_K@base@v8@@YAPEAV?$basic_string@DU?$char_traits@D@std@@V?$allocator@D@2@@std@@_K0PEBD@Z
  ??$MakeThin@VIsolate@internal@v8@@@String@internal@v8@@QEAAXPEAVIsolate@12@V012@@Z
  ??$MakeThin@VLocalIsolate@internal@v8@@@String@internal@v8@@QEAAXPEAVLocalIsolate@12@V012@@Z
  ??$New@VIsolate@internal@v8@@@?$BaseNameDictionary@VGlobalDictionary@internal@v8@@VGlobalDictionaryShape@23@@internal@v8@@SA?AV?$Handle@VGlobalDictionary@internal@v8@@@12@PEAVIsolate@12@HW4AllocationType@12@W4MinimumCapacity@12@@Z
  ??$New@VIsolate@internal@v8@@@?$BaseNameDictionary@VNameDictionary@internal@v8@@VNameDictionaryShape@23@@internal@v8@@SA?AV?$Handle@VNameDictionary@internal@v8@@@12@PEAVIsolate@12@HW4AllocationType@12@W4MinimumCapacity@12@@Z
  ??$New@VIsolate@internal@v8@@@?$HashTable@VCompilationCacheTable@internal@v8@@VCompilationCacheShape@23@@internal@v8@@SA?AV?$Handle@VCompilationCacheTable@internal@v8@@@12@PEAVIsolate@12@HW4AllocationType@12@W4MinimumCapacity@12@@Z
  ??$New@VIsolate@internal@v8@@@?$HashTable@VEphemeronHashTable@internal@v8@@VObjectHashTableShape@23@@internal@v8@@SA?AV?$Handle@VEphemeronHashTable@internal@v8@@@12@PEAVIsolate@12@HW4AllocationType@12@W4MinimumCapacity@12@@Z
  ??$New@VIsolate@internal@v8@@@?$HashTable@VGlobalDictionary@internal@v8@@VGlobalDictionaryShape@23@@internal@v8@@SA?AV?$Handle@VGlobalDictionary@internal@v8@@@12@PEAVIsolate@12@HW4AllocationType@12@W4MinimumCapacity@12@@Z
  ??$New@VIsolate@internal@v8@@@?$HashTable@VNameDictionary@internal@v8@@VNameDictionaryShape@23@@internal@v8@@SA?AV?$Handle@VNameDictionary@internal@v8@@@12@PEAVIsolate@12@HW4AllocationType@12@W4MinimumCapacity@12@@Z
  ??$New@VIsolate@internal@v8@@@?$HashTable@VNameToIndexHashTable@internal@v8@@VNameToIndexShape@23@@internal@v8@@SA?AV?$Handle@VNameToIndexHashTable@internal@v8@@@12@PEAVIsolate@12@HW4AllocationType@12@W4MinimumCapacity@12@@Z
  ??$New@VIsolate@internal@v8@@@?$HashTable@VNumberDictionary@internal@v8@@VNumberDictionaryShape@23@@internal@v8@@SA?AV?$Handle@VNumberDictionary@internal@v8@@@12@PEAVIsolate@12@HW4AllocationType@12@W4MinimumCapacity@12@@Z
  ??$New@VIsolate@internal@v8@@@?$HashTable@VObjectHashSet@internal@v8@@VObjectHashSetShape@23@@internal@v8@@SA?AV?$Handle@VObjectHashSet@internal@v8@@@12@PEAVIsolate@12@HW4AllocationType@12@W4MinimumCapacity@12@@Z
  ??$New@VIsolate@internal@v8@@@?$HashTable@VObjectHashTable@internal@v8@@VObjectHashTableShape@23@@internal@v8@@SA?AV?$Handle@VObjectHashTable@internal@v8@@@12@PEAVIsolate@12@HW4AllocationType@12@W4MinimumCapacity@12@@Z
  ??$New@VIsolate@internal@v8@@@?$HashTable@VRegisteredSymbolTable@internal@v8@@VRegisteredSymbolTableShape@23@@internal@v8@@SA?AV?$Handle@VRegisteredSymbolTable@internal@v8@@@12@PEAVIsolate@12@HW4AllocationType@12@W4MinimumCapacity@12@@Z
  ??$New@VIsolate@internal@v8@@@?$HashTable@VSimpleNumberDictionary@internal@v8@@VSimpleNumberDictionaryShape@23@@internal@v8@@SA?AV?$Handle@VSimpleNumberDictionary@internal@v8@@@12@PEAVIsolate@12@HW4AllocationType@12@W4MinimumCapacity@12@@Z
  ??$New@VIsolate@internal@v8@@@?$HashTable@VStringSet@internal@v8@@VStringSetShape@23@@internal@v8@@SA?AV?$Handle@VStringSet@internal@v8@@@12@PEAVIsolate@12@HW4AllocationType@12@W4MinimumCapacity@12@@Z
  ??$New@VLocalIsolate@internal@v8@@@?$BaseNameDictionary@VGlobalDictionary@internal@v8@@VGlobalDictionaryShape@23@@internal@v8@@SA?AV?$Handle@VGlobalDictionary@internal@v8@@@12@PEAVLocalIsolate@12@HW4AllocationType@12@W4MinimumCapacity@12@@Z
  ??$New@VLocalIsolate@internal@v8@@@?$BaseNameDictionary@VNameDictionary@internal@v8@@VNameDictionaryShape@23@@internal@v8@@SA?AV?$Handle@VNameDictionary@internal@v8@@@12@PEAVLocalIsolate@12@HW4AllocationType@12@W4MinimumCapacity@12@@Z
  ??$New@VLocalIsolate@internal@v8@@@?$HashTable@VCompilationCacheTable@internal@v8@@VCompilationCacheShape@23@@internal@v8@@SA?AV?$Handle@VCompilationCacheTable@internal@v8@@@12@PEAVLocalIsolate@12@HW4AllocationType@12@W4MinimumCapacity@12@@Z
  ??$New@VLocalIsolate@internal@v8@@@?$HashTable@VEphemeronHashTable@internal@v8@@VObjectHashTableShape@23@@internal@v8@@SA?AV?$Handle@VEphemeronHashTable@internal@v8@@@12@PEAVLocalIsolate@12@HW4AllocationType@12@W4MinimumCapacity@12@@Z
  ??$New@VLocalIsolate@internal@v8@@@?$HashTable@VGlobalDictionary@internal@v8@@VGlobalDictionaryShape@23@@internal@v8@@SA?AV?$Handle@VGlobalDictionary@internal@v8@@@12@PEAVLocalIsolate@12@HW4AllocationType@12@W4MinimumCapacity@12@@Z
  ??$New@VLocalIsolate@internal@v8@@@?$HashTable@VNameDictionary@internal@v8@@VNameDictionaryShape@23@@internal@v8@@SA?AV?$Handle@VNameDictionary@internal@v8@@@12@PEAVLocalIsolate@12@HW4AllocationType@12@W4MinimumCapacity@12@@Z
  ??$New@VLocalIsolate@internal@v8@@@?$HashTable@VNameToIndexHashTable@internal@v8@@VNameToIndexShape@23@@internal@v8@@SA?AV?$Handle@VNameToIndexHashTable@internal@v8@@@12@PEAVLocalIsolate@12@HW4AllocationType@12@W4MinimumCapacity@12@@Z
  ??$New@VLocalIsolate@internal@v8@@@?$HashTable@VNumberDictionary@internal@v8@@VNumberDictionaryShape@23@@internal@v8@@SA?AV?$Handle@VNumberDictionary@internal@v8@@@12@PEAVLocalIsolate@12@HW4AllocationType@12@W4MinimumCapacity@12@@Z
  ??$New@VLocalIsolate@internal@v8@@@?$HashTable@VObjectHashSet@internal@v8@@VObjectHashSetShape@23@@internal@v8@@SA?AV?$Handle@VObjectHashSet@internal@v8@@@12@PEAVLocalIsolate@12@HW4AllocationType@12@W4MinimumCapacity@12@@Z
  ??$New@VLocalIsolate@internal@v8@@@?$HashTable@VObjectHashTable@internal@v8@@VObjectHashTableShape@23@@internal@v8@@SA?AV?$Handle@VObjectHashTable@internal@v8@@@12@PEAVLocalIsolate@12@HW4AllocationType@12@W4MinimumCapacity@12@@Z
  ??$New@VLocalIsolate@internal@v8@@@?$HashTable@VRegisteredSymbolTable@internal@v8@@VRegisteredSymbolTableShape@23@@internal@v8@@SA?AV?$Handle@VRegisteredSymbolTable@internal@v8@@@12@PEAVLocalIsolate@12@HW4AllocationType@12@W4MinimumCapacity@12@@Z
  ??$New@VLocalIsolate@internal@v8@@@?$HashTable@VSimpleNumberDictionary@internal@v8@@VSimpleNumberDictionaryShape@23@@internal@v8@@SA?AV?$Handle@VSimpleNumberDictionary@internal@v8@@@12@PEAVLocalIsolate@12@HW4AllocationType@12@W4MinimumCapacity@12@@Z
  ??$New@VLocalIsolate@internal@v8@@@?$HashTable@VStringSet@internal@v8@@VStringSetShape@23@@internal@v8@@SA?AV?$Handle@VStringSet@internal@v8@@@12@PEAVLocalIsolate@12@HW4AllocationType@12@W4MinimumCapacity@12@@Z
  ??$NewHeapNumber@$00@?$FactoryBase@VFactory@internal@v8@@@internal@v8@@QEAA?AV?$Handle@VHeapNumber@internal@v8@@@12@XZ
  ??$NewHeapNumber@$00@?$FactoryBase@VLocalFactory@internal@v8@@@internal@v8@@QEAA?AV?$Handle@VHeapNumber@internal@v8@@@12@XZ
  ??$NewHeapNumber@$03@?$FactoryBase@VFactory@internal@v8@@@internal@v8@@QEAA?AV?$Handle@VHeapNumber@internal@v8@@@12@XZ
  ??$NewHeapNumber@$04@?$FactoryBase@VFactory@internal@v8@@@internal@v8@@QEAA?AV?$Handle@VHeapNumber@internal@v8@@@12@XZ
  ??$NewHeapNumber@$0A@@?$FactoryBase@VFactory@internal@v8@@@internal@v8@@QEAA?AV?$Handle@VHeapNumber@internal@v8@@@12@XZ
  ??$PrepareErrors@VIsolate@internal@v8@@@PendingCompilationErrorHandler@internal@v8@@QEAAXPEAVIsolate@12@PEAVAstValueFactory@12@@Z
  ??$PrepareErrors@VLocalIsolate@internal@v8@@@PendingCompilationErrorHandler@internal@v8@@QEAAXPEAVLocalIsolate@12@PEAVAstValueFactory@12@@Z
  ??$PrintCheckOperand@C@base@v8@@YA?AV?$basic_string@DU?$char_traits@D@std@@V?$allocator@D@2@@std@@C@Z
  ??$PrintCheckOperand@D@base@v8@@YA?AV?$basic_string@DU?$char_traits@D@std@@V?$allocator@D@2@@std@@D@Z
  ??$PrintCheckOperand@E@base@v8@@YA?AV?$basic_string@DU?$char_traits@D@std@@V?$allocator@D@2@@std@@E@Z
  ??$PrintCheckOperand@H@base@v8@@YA?AV?$basic_string@DU?$char_traits@D@std@@V?$allocator@D@2@@std@@H@Z
  ??$PrintCheckOperand@I@base@v8@@YA?AV?$basic_string@DU?$char_traits@D@std@@V?$allocator@D@2@@std@@I@Z
  ??$PrintCheckOperand@J@base@v8@@YA?AV?$basic_string@DU?$char_traits@D@std@@V?$allocator@D@2@@std@@J@Z
  ??$PrintCheckOperand@K@base@v8@@YA?AV?$basic_string@DU?$char_traits@D@std@@V?$allocator@D@2@@std@@K@Z
  ??$PrintCheckOperand@PEAC@base@v8@@YA?AV?$basic_string@DU?$char_traits@D@std@@V?$allocator@D@2@@std@@PEAC@Z
  ??$PrintCheckOperand@PEAD@base@v8@@YA?AV?$basic_string@DU?$char_traits@D@std@@V?$allocator@D@2@@std@@PEAD@Z
  ??$PrintCheckOperand@PEAE@base@v8@@YA?AV?$basic_string@DU?$char_traits@D@std@@V?$allocator@D@2@@std@@PEAE@Z
  ??$PrintCheckOperand@PEBC@base@v8@@YA?AV?$basic_string@DU?$char_traits@D@std@@V?$allocator@D@2@@std@@PEBC@Z
  ??$PrintCheckOperand@PEBD@base@v8@@YA?AV?$basic_string@DU?$char_traits@D@std@@V?$allocator@D@2@@std@@PEBD@Z
  ??$PrintCheckOperand@PEBE@base@v8@@YA?AV?$basic_string@DU?$char_traits@D@std@@V?$allocator@D@2@@std@@PEBE@Z
  ??$PrintCheckOperand@PEBX@base@v8@@YA?AV?$basic_string@DU?$char_traits@D@std@@V?$allocator@D@2@@std@@PEBX@Z
  ??$PrintCheckOperand@_J@base@v8@@YA?AV?$basic_string@DU?$char_traits@D@std@@V?$allocator@D@2@@std@@_J@Z
  ??$PrintCheckOperand@_K@base@v8@@YA?AV?$basic_string@DU?$char_traits@D@std@@V?$allocator@D@2@@std@@_K@Z
  ??$ReadZigZag@H@ValueDeserializer@internal@v8@@AEAA?AV?$Maybe@H@2@XZ
  ??$RegisterObjectWithInvalidatedSlots@$00@MemoryChunk@internal@v8@@QEAAXVHeapObject@12@@Z
  ??$RegisterObjectWithInvalidatedSlots@$0A@@MemoryChunk@internal@v8@@QEAAXVHeapObject@12@@Z
  ??$Rehash@VIsolate@internal@v8@@@OrderedNameDictionary@internal@v8@@SA?AV?$MaybeHandle@VOrderedNameDictionary@internal@v8@@@12@PEAVIsolate@12@V?$Handle@VOrderedNameDictionary@internal@v8@@@12@H@Z
  ??$Rehash@VIsolate@internal@v8@@@SwissNameDictionary@internal@v8@@QEAAXPEAVIsolate@12@@Z
  ??$Rehash@VIsolate@internal@v8@@@SwissNameDictionary@internal@v8@@SA?AV?$Handle@VSwissNameDictionary@internal@v8@@@12@PEAVIsolate@12@V312@H@Z
  ??$Rehash@VLocalIsolate@internal@v8@@@SwissNameDictionary@internal@v8@@QEAAXPEAVLocalIsolate@12@@Z
  ??$Rehash@VLocalIsolate@internal@v8@@@SwissNameDictionary@internal@v8@@SA?AV?$Handle@VSwissNameDictionary@internal@v8@@@12@PEAVLocalIsolate@12@V312@H@Z
  ??$SetScriptScopeInfo@VIsolate@internal@v8@@@Scope@internal@v8@@SAXPEAVIsolate@12@PEAVDeclarationScope@12@@Z
  ??$SetScriptScopeInfo@VLocalIsolate@internal@v8@@@Scope@internal@v8@@SAXPEAVLocalIsolate@12@PEAVDeclarationScope@12@@Z
  ??$SignedDivisionByConstant@I@base@v8@@YA?AU?$MagicNumbersForDivision@I@01@I@Z
  ??$SignedDivisionByConstant@_K@base@v8@@YA?AU?$MagicNumbersForDivision@_K@01@_K@Z
  ??$Start@$00@LookupIterator@internal@v8@@AEAAXXZ
  ??$Start@$0A@@LookupIterator@internal@v8@@AEAAXXZ
  ??$TailCallBytecodeDispatch@V?$TNode@VObject@internal@v8@@@internal@v8@@V?$TNode@UIntPtrT@internal@v8@@@23@V?$TNode@VBytecodeArray@internal@v8@@@23@V?$TNode@VExternalReference@internal@v8@@@23@@CodeAssembler@compiler@internal@v8@@QEAAXAEBVCallInterfaceDescriptor@23@V?$TNode@URawPtrT@internal@v8@@@23@V?$TNode@VObject@internal@v8@@@23@V?$TNode@UIntPtrT@internal@v8@@@23@V?$TNode@VBytecodeArray@internal@v8@@@23@V?$TNode@VExternalReference@internal@v8@@@23@@Z
  ??$ToBytecodeArray@VIsolate@internal@v8@@@BytecodeArrayBuilder@interpreter@internal@v8@@QEAA?AV?$Handle@VBytecodeArray@internal@v8@@@23@PEAVIsolate@23@@Z
  ??$ToBytecodeArray@VIsolate@internal@v8@@@BytecodeArrayWriter@interpreter@internal@v8@@QEAA?AV?$Handle@VBytecodeArray@internal@v8@@@23@PEAVIsolate@23@HHV?$Handle@VByteArray@internal@v8@@@23@@Z
  ??$ToBytecodeArray@VLocalIsolate@internal@v8@@@BytecodeArrayBuilder@interpreter@internal@v8@@QEAA?AV?$Handle@VBytecodeArray@internal@v8@@@23@PEAVLocalIsolate@23@@Z
  ??$ToBytecodeArray@VLocalIsolate@internal@v8@@@BytecodeArrayWriter@interpreter@internal@v8@@QEAA?AV?$Handle@VBytecodeArray@internal@v8@@@23@PEAVLocalIsolate@23@HHV?$Handle@VByteArray@internal@v8@@@23@@Z
  ??$ToFixedArray@VIsolate@internal@v8@@@ConstantArrayBuilder@interpreter@internal@v8@@QEAA?AV?$Handle@VFixedArray@internal@v8@@@23@PEAVIsolate@23@@Z
  ??$ToFixedArray@VLocalIsolate@internal@v8@@@ConstantArrayBuilder@interpreter@internal@v8@@QEAA?AV?$Handle@VFixedArray@internal@v8@@@23@PEAVLocalIsolate@23@@Z
  ??$ToSourcePositionTable@VIsolate@internal@v8@@@BytecodeArrayBuilder@interpreter@internal@v8@@QEAA?AV?$Handle@VByteArray@internal@v8@@@23@PEAVIsolate@23@@Z
  ??$ToSourcePositionTable@VIsolate@internal@v8@@@BytecodeArrayWriter@interpreter@internal@v8@@QEAA?AV?$Handle@VByteArray@internal@v8@@@23@PEAVIsolate@23@@Z
  ??$ToSourcePositionTable@VIsolate@internal@v8@@@SourcePositionTableBuilder@internal@v8@@QEAA?AV?$Handle@VByteArray@internal@v8@@@12@PEAVIsolate@12@@Z
  ??$ToSourcePositionTable@VLocalIsolate@internal@v8@@@BytecodeArrayBuilder@interpreter@internal@v8@@QEAA?AV?$Handle@VByteArray@internal@v8@@@23@PEAVLocalIsolate@23@@Z
  ??$ToSourcePositionTable@VLocalIsolate@internal@v8@@@BytecodeArrayWriter@interpreter@internal@v8@@QEAA?AV?$Handle@VByteArray@internal@v8@@@23@PEAVLocalIsolate@23@@Z
  ??$ToSourcePositionTable@VLocalIsolate@internal@v8@@@SourcePositionTableBuilder@internal@v8@@QEAA?AV?$Handle@VByteArray@internal@v8@@@12@PEAVLocalIsolate@12@@Z
  ??$TryToCopyAndConvertArrayToCppBuffer@$0CAAAA@H@v8@@YA_NV?$Local@VArray@v8@@@0@PEAHI@Z
  ??$TryToCopyAndConvertArrayToCppBuffer@$0DAAAA@I@v8@@YA_NV?$Local@VArray@v8@@@0@PEAII@Z
  ??$TryToCopyAndConvertArrayToCppBuffer@$0GAAAA@M@v8@@YA_NV?$Local@VArray@v8@@@0@PEAMI@Z
  ??$TryToCopyAndConvertArrayToCppBuffer@$0HAAAA@N@v8@@YA_NV?$Local@VArray@v8@@@0@PEANI@Z
  ??$UnsignedDivisionByConstant@I@base@v8@@YA?AU?$MagicNumbersForDivision@I@01@II@Z
  ??$UnsignedDivisionByConstant@_K@base@v8@@YA?AU?$MagicNumbersForDivision@_K@01@_KI@Z
  ??$WriteBarrierForRange@VFullObjectSlot@internal@v8@@@Heap@internal@v8@@QEAAXVHeapObject@12@VFullObjectSlot@12@1@Z
  ??$WriteToFlat@E@String@internal@v8@@SAXV012@PEAEHH@Z
  ??$WriteToFlat@E@String@internal@v8@@SAXV012@PEAEHHVPtrComprCageBase@12@AEBVSharedStringAccessGuardIfNeeded@12@@Z
  ??$WriteToFlat@G@String@internal@v8@@SAXV012@PEAGHH@Z
  ??$WriteToFlat@G@String@internal@v8@@SAXV012@PEAGHHVPtrComprCageBase@12@AEBVSharedStringAccessGuardIfNeeded@12@@Z
  ??$WriteZigZag@H@ValueSerializer@internal@v8@@AEAAXH@Z
  ??$vinstr@VYMMRegister@internal@v8@@V123@V123@@Assembler@internal@v8@@QEAAXEVYMMRegister@12@00W4SIMDPrefix@012@W4LeadingOpcode@012@W4VexW@012@W4CpuFeature@12@@Z
  ??$vinstr@VYMMRegister@internal@v8@@V123@VOperand@23@@Assembler@internal@v8@@QEAAXEVYMMRegister@12@0VOperand@12@W4SIMDPrefix@012@W4LeadingOpcode@012@W4VexW@012@W4CpuFeature@12@@Z
  ??$vinstr@VYMMRegister@internal@v8@@V123@VXMMRegister@23@@Assembler@internal@v8@@QEAAXEVYMMRegister@12@0VXMMRegister@12@W4SIMDPrefix@012@W4LeadingOpcode@012@W4VexW@012@W4CpuFeature@12@@Z
  ??$vinstr@VYMMRegister@internal@v8@@VXMMRegister@23@V423@@Assembler@internal@v8@@QEAAXEVYMMRegister@12@VXMMRegister@12@1W4SIMDPrefix@012@W4LeadingOpcode@012@W4VexW@012@W4CpuFeature@12@@Z
  ??$vinstr@VYMMRegister@internal@v8@@VXMMRegister@23@VOperand@23@@Assembler@internal@v8@@QEAAXEVYMMRegister@12@VXMMRegister@12@VOperand@12@W4SIMDPrefix@012@W4LeadingOpcode@012@W4VexW@012@W4CpuFeature@12@@Z
  ??0?$BaseNameDictionary@VGlobalDictionary@internal@v8@@VGlobalDictionaryShape@23@@internal@v8@@IEAA@_K@Z
  ??0?$BaseNameDictionary@VGlobalDictionary@internal@v8@@VGlobalDictionaryShape@23@@internal@v8@@QEAA@XZ
  ??0?$BaseNameDictionary@VNameDictionary@internal@v8@@VNameDictionaryShape@23@@internal@v8@@IEAA@_K@Z
  ??0?$BaseNameDictionary@VNameDictionary@internal@v8@@VNameDictionaryShape@23@@internal@v8@@QEAA@XZ
  ??0?$CanonicalHandleScopeForOptimization@VOptimizedCompilationInfo@internal@v8@@@internal@v8@@QEAA@PEAVIsolate@12@PEAVOptimizedCompilationInfo@12@@Z
  ??0?$CombinationAssertScope@V?$PerThreadAssertScopeDebugOnly@$01$0A@@internal@v8@@V?$PerThreadAssertScopeDebugOnly@$00$0A@@23@@internal@v8@@QEAA@XZ
  ??0?$CombinationAssertScope@V?$PerThreadAssertScopeDebugOnly@$02$0A@@internal@v8@@V?$PerThreadAssertScopeDebugOnly@$01$0A@@23@V?$PerThreadAssertScopeDebugOnly@$00$0A@@23@@internal@v8@@QEAA@XZ
  ??0?$CombinationAssertScope@V?$PerThreadAssertScopeDebugOnly@$03$0A@@internal@v8@@V?$PerThreadAssertScopeDebugOnly@$02$0A@@23@V?$PerThreadAssertScopeDebugOnly@$01$0A@@23@V?$PerThreadAssertScopeDebugOnly@$00$0A@@23@@internal@v8@@QEAA@XZ
  ??0?$CombinationAssertScope@V?$PerThreadAssertScopeDebugOnly@$0A@$00@internal@v8@@V?$PerThreadAssertScopeDebugOnly@$00$00@23@@internal@v8@@QEAA@XZ
  ??0?$CombinationAssertScope@V?$PerThreadAssertScopeDebugOnly@$0A@$0A@@internal@v8@@V?$PerThreadAssertScopeDebugOnly@$00$0A@@23@@internal@v8@@QEAA@XZ
  ??0?$Deserializer@VIsolate@internal@v8@@@internal@v8@@IEAA@PEAVIsolate@12@V?$Vector@$$CBE@base@2@I_N2@Z
  ??0?$Deserializer@VLocalIsolate@internal@v8@@@internal@v8@@IEAA@PEAVLocalIsolate@12@V?$Vector@$$CBE@base@2@I_N2@Z
  ??0?$Dictionary@VGlobalDictionary@internal@v8@@VGlobalDictionaryShape@23@@internal@v8@@IEAA@_K@Z
  ??0?$Dictionary@VGlobalDictionary@internal@v8@@VGlobalDictionaryShape@23@@internal@v8@@QEAA@XZ
  ??0?$Dictionary@VNameDictionary@internal@v8@@VNameDictionaryShape@23@@internal@v8@@IEAA@_K@Z
  ??0?$Dictionary@VNameDictionary@internal@v8@@VNameDictionaryShape@23@@internal@v8@@QEAA@XZ
  ??0?$Dictionary@VNumberDictionary@internal@v8@@VNumberDictionaryShape@23@@internal@v8@@IEAA@_K@Z
  ??0?$Dictionary@VNumberDictionary@internal@v8@@VNumberDictionaryShape@23@@internal@v8@@QEAA@XZ
  ??0?$Dictionary@VSimpleNumberDictionary@internal@v8@@VSimpleNumberDictionaryShape@23@@internal@v8@@IEAA@_K@Z
  ??0?$Dictionary@VSimpleNumberDictionary@internal@v8@@VSimpleNumberDictionaryShape@23@@internal@v8@@QEAA@XZ
  ??0?$HashTable@VCompilationCacheTable@internal@v8@@VCompilationCacheShape@23@@internal@v8@@IEAA@_K@Z
  ??0?$HashTable@VCompilationCacheTable@internal@v8@@VCompilationCacheShape@23@@internal@v8@@QEAA@XZ
  ??0?$HashTable@VEphemeronHashTable@internal@v8@@VObjectHashTableShape@23@@internal@v8@@IEAA@_K@Z
  ??0?$HashTable@VEphemeronHashTable@internal@v8@@VObjectHashTableShape@23@@internal@v8@@QEAA@XZ
  ??0?$HashTable@VGlobalDictionary@internal@v8@@VGlobalDictionaryShape@23@@internal@v8@@IEAA@_K@Z
  ??0?$HashTable@VGlobalDictionary@internal@v8@@VGlobalDictionaryShape@23@@internal@v8@@QEAA@XZ
  ??0?$HashTable@VNameDictionary@internal@v8@@VNameDictionaryShape@23@@internal@v8@@IEAA@_K@Z
  ??0?$HashTable@VNameDictionary@internal@v8@@VNameDictionaryShape@23@@internal@v8@@QEAA@XZ
  ??0?$HashTable@VNameToIndexHashTable@internal@v8@@VNameToIndexShape@23@@internal@v8@@IEAA@_K@Z
  ??0?$HashTable@VNameToIndexHashTable@internal@v8@@VNameToIndexShape@23@@internal@v8@@QEAA@XZ
  ??0?$HashTable@VNumberDictionary@internal@v8@@VNumberDictionaryShape@23@@internal@v8@@IEAA@_K@Z
  ??0?$HashTable@VNumberDictionary@internal@v8@@VNumberDictionaryShape@23@@internal@v8@@QEAA@XZ
  ??0?$HashTable@VObjectHashSet@internal@v8@@VObjectHashSetShape@23@@internal@v8@@IEAA@_K@Z
  ??0?$HashTable@VObjectHashSet@internal@v8@@VObjectHashSetShape@23@@internal@v8@@QEAA@XZ
  ??0?$HashTable@VObjectHashTable@internal@v8@@VObjectHashTableShape@23@@internal@v8@@IEAA@_K@Z
  ??0?$HashTable@VObjectHashTable@internal@v8@@VObjectHashTableShape@23@@internal@v8@@QEAA@XZ
  ??0?$HashTable@VRegisteredSymbolTable@internal@v8@@VRegisteredSymbolTableShape@23@@internal@v8@@IEAA@_K@Z
  ??0?$HashTable@VRegisteredSymbolTable@internal@v8@@VRegisteredSymbolTableShape@23@@internal@v8@@QEAA@XZ
  ??0?$HashTable@VSimpleNumberDictionary@internal@v8@@VSimpleNumberDictionaryShape@23@@internal@v8@@IEAA@_K@Z
  ??0?$HashTable@VSimpleNumberDictionary@internal@v8@@VSimpleNumberDictionaryShape@23@@internal@v8@@QEAA@XZ
  ??0?$HashTable@VStringSet@internal@v8@@VStringSetShape@23@@internal@v8@@IEAA@_K@Z
  ??0?$HashTable@VStringSet@internal@v8@@VStringSetShape@23@@internal@v8@@QEAA@XZ
  ??0?$MagicNumbersForDivision@I@base@v8@@QEAA@II_N@Z
  ??0?$MagicNumbersForDivision@_K@base@v8@@QEAA@_KI_N@Z
  ??0?$MemorySpan@$$CBD@v8@@QEAA@PEBD_K@Z
  ??0?$MemorySpan@$$CBD@v8@@QEAA@XZ
  ??0?$MemorySpan@$$CBE@v8@@QEAA@PEBE_K@Z
  ??0?$MemorySpan@$$CBE@v8@@QEAA@XZ
  ??0?$MemorySpan@$$CBVCFunction@v8@@@v8@@QEAA@PEBVCFunction@1@_K@Z
  ??0?$MemorySpan@$$CBVCFunction@v8@@@v8@@QEAA@XZ
  ??0?$ObjectHashTableBase@VEphemeronHashTable@internal@v8@@VObjectHashTableShape@23@@internal@v8@@IEAA@_K@Z
  ??0?$ObjectHashTableBase@VEphemeronHashTable@internal@v8@@VObjectHashTableShape@23@@internal@v8@@QEAA@XZ
  ??0?$ObjectHashTableBase@VObjectHashTable@internal@v8@@VObjectHashTableShape@23@@internal@v8@@IEAA@_K@Z
  ??0?$ObjectHashTableBase@VObjectHashTable@internal@v8@@VObjectHashTableShape@23@@internal@v8@@QEAA@XZ
  ??0?$OrderedHashTable@VOrderedHashMap@internal@v8@@$01@internal@v8@@IEAA@_K@Z
  ??0?$OrderedHashTable@VOrderedHashMap@internal@v8@@$01@internal@v8@@QEAA@XZ
  ??0?$OrderedHashTable@VOrderedHashSet@internal@v8@@$00@internal@v8@@IEAA@_K@Z
  ??0?$OrderedHashTable@VOrderedHashSet@internal@v8@@$00@internal@v8@@QEAA@XZ
  ??0?$OrderedHashTable@VOrderedNameDictionary@internal@v8@@$02@internal@v8@@IEAA@_K@Z
  ??0?$OrderedHashTable@VOrderedNameDictionary@internal@v8@@$02@internal@v8@@QEAA@XZ
  ??0?$ParserBase@VParser@internal@v8@@@internal@v8@@QEAA@PEAVZone@12@PEAVScanner@12@_KPEAVAstValueFactory@12@PEAVPendingCompilationErrorHandler@12@PEAVRuntimeCallStats@12@PEAVLogger@12@VUnoptimizedCompileFlags@12@_N@Z
  ??0?$PerThreadAssertScope@$00$00@internal@v8@@QEAA@XZ
  ??0?$PerThreadAssertScope@$00$0A@@internal@v8@@QEAA@XZ
  ??0?$PerThreadAssertScope@$01$00@internal@v8@@QEAA@XZ
  ??0?$PerThreadAssertScope@$01$0A@@internal@v8@@QEAA@XZ
  ??0?$PerThreadAssertScope@$02$00@internal@v8@@QEAA@XZ
  ??0?$PerThreadAssertScope@$02$0A@@internal@v8@@QEAA@XZ
  ??0?$PerThreadAssertScope@$03$00@internal@v8@@QEAA@XZ
  ??0?$PerThreadAssertScope@$03$0A@@internal@v8@@QEAA@XZ
  ??0?$PerThreadAssertScope@$04$00@internal@v8@@QEAA@XZ
  ??0?$PerThreadAssertScope@$04$0A@@internal@v8@@QEAA@XZ
  ??0?$PerThreadAssertScope@$05$0A@@internal@v8@@QEAA@XZ
  ??0?$PerThreadAssertScope@$0A@$00@internal@v8@@QEAA@XZ
  ??0?$PerThreadAssertScope@$0A@$0A@@internal@v8@@QEAA@XZ
  ??0?$SharedTurboAssemblerBase@VTurboAssembler@internal@v8@@@internal@v8@@QEAA@PEAVIsolate@12@AEBUAssemblerOptions@12@W4CodeObjectRequired@12@V?$unique_ptr@VAssemblerBuffer@internal@v8@@U?$default_delete@VAssemblerBuffer@internal@v8@@@std@@@std@@@Z
  ??0?$SharedTurboAssemblerBase@VTurboAssembler@internal@v8@@@internal@v8@@QEAA@PEAVIsolate@12@W4CodeObjectRequired@12@V?$unique_ptr@VAssemblerBuffer@internal@v8@@U?$default_delete@VAssemblerBuffer@internal@v8@@@std@@@std@@@Z
  ??0?$StaticCallInterfaceDescriptor@VBigIntToI32PairDescriptor@internal@v8@@@internal@v8@@QEAA@W4Key@CallDescriptors@12@@Z
  ??0?$StaticCallInterfaceDescriptor@VBigIntToI64Descriptor@internal@v8@@@internal@v8@@QEAA@W4Key@CallDescriptors@12@@Z
  ??0?$StaticCallInterfaceDescriptor@VI32PairToBigIntDescriptor@internal@v8@@@internal@v8@@QEAA@W4Key@CallDescriptors@12@@Z
  ??0?$StaticCallInterfaceDescriptor@VI64ToBigIntDescriptor@internal@v8@@@internal@v8@@QEAA@W4Key@CallDescriptors@12@@Z
  ??0?$StaticCallInterfaceDescriptor@VInterpreterDispatchDescriptor@internal@v8@@@internal@v8@@QEAA@W4Key@CallDescriptors@12@@Z
  ??0?$StaticCallInterfaceDescriptor@VVoidDescriptor@internal@v8@@@internal@v8@@QEAA@W4Key@CallDescriptors@12@@Z
  ??0?$TimeBase@VThreadTicks@base@v8@@@time_internal@base@v8@@IEAA@_J@Z
  ??0?$TimeBase@VTime@base@v8@@@time_internal@base@v8@@IEAA@_J@Z
  ??0?$TimeBase@VTimeTicks@base@v8@@@time_internal@base@v8@@IEAA@_J@Z
  ??0?$ZoneVector@PEAVMoveOperands@compiler@internal@v8@@@internal@v8@@QEAA@AEBV012@@Z
  ??0?$ZoneVector@PEAVMoveOperands@compiler@internal@v8@@@internal@v8@@QEAA@PEAVZone@12@@Z
  ??0?$ZoneVector@PEAVMoveOperands@compiler@internal@v8@@@internal@v8@@QEAA@V?$initializer_list@PEAVMoveOperands@compiler@internal@v8@@@std@@PEAVZone@12@@Z
  ??0?$ZoneVector@PEAVMoveOperands@compiler@internal@v8@@@internal@v8@@QEAA@_KPEAVMoveOperands@compiler@12@PEAVZone@12@@Z
  ??0?$ZoneVector@PEAVMoveOperands@compiler@internal@v8@@@internal@v8@@QEAA@_KPEAVZone@12@@Z
  ??0?$basic_ios@DU?$char_traits@D@std@@@std@@IEAA@XZ
  ??0?$basic_ios@DU?$char_traits@D@std@@@std@@QEAA@PEAV?$basic_streambuf@DU?$char_traits@D@std@@@1@@Z
  ??0?$basic_ostream@DU?$char_traits@D@std@@@std@@IEAA@$$QEAV01@@Z
  ??0?$basic_ostream@DU?$char_traits@D@std@@@std@@QEAA@PEAV?$basic_streambuf@DU?$char_traits@D@std@@@1@_N@Z
  ??0?$basic_ostream@DU?$char_traits@D@std@@@std@@QEAA@W4_Uninitialized@1@_N@Z
  ??0?$basic_streambuf@DU?$char_traits@D@std@@@std@@IEAA@AEBV01@@Z
  ??0?$basic_streambuf@DU?$char_traits@D@std@@@std@@IEAA@W4_Uninitialized@1@@Z
  ??0?$basic_streambuf@DU?$char_traits@D@std@@@std@@IEAA@XZ
  ??0?$vector@PEAVMoveOperands@compiler@internal@v8@@V?$ZoneAllocator@PEAVMoveOperands@compiler@internal@v8@@@34@@std@@QEAA@$$QEAV01@@Z
  ??0?$vector@PEAVMoveOperands@compiler@internal@v8@@V?$ZoneAllocator@PEAVMoveOperands@compiler@internal@v8@@@34@@std@@QEAA@$$QEAV01@AEBV?$ZoneAllocator@PEAVMoveOperands@compiler@internal@v8@@@internal@v8@@@Z
  ??0?$vector@PEAVMoveOperands@compiler@internal@v8@@V?$ZoneAllocator@PEAVMoveOperands@compiler@internal@v8@@@34@@std@@QEAA@AEBV01@@Z
  ??0?$vector@PEAVMoveOperands@compiler@internal@v8@@V?$ZoneAllocator@PEAVMoveOperands@compiler@internal@v8@@@34@@std@@QEAA@AEBV01@AEBV?$ZoneAllocator@PEAVMoveOperands@compiler@internal@v8@@@internal@v8@@@Z
  ??0?$vector@PEAVMoveOperands@compiler@internal@v8@@V?$ZoneAllocator@PEAVMoveOperands@compiler@internal@v8@@@34@@std@@QEAA@AEBV?$ZoneAllocator@PEAVMoveOperands@compiler@internal@v8@@@internal@v8@@@Z
  ??0?$vector@PEAVMoveOperands@compiler@internal@v8@@V?$ZoneAllocator@PEAVMoveOperands@compiler@internal@v8@@@34@@std@@QEAA@V?$initializer_list@PEAVMoveOperands@compiler@internal@v8@@@1@AEBV?$ZoneAllocator@PEAVMoveOperands@compiler@internal@v8@@@internal@v8@@@Z
  ??0?$vector@PEAVMoveOperands@compiler@internal@v8@@V?$ZoneAllocator@PEAVMoveOperands@compiler@internal@v8@@@34@@std@@QEAA@XZ
  ??0?$vector@PEAVMoveOperands@compiler@internal@v8@@V?$ZoneAllocator@PEAVMoveOperands@compiler@internal@v8@@@34@@std@@QEAA@_KAEBQEAVMoveOperands@compiler@internal@v8@@AEBV?$ZoneAllocator@PEAVMoveOperands@compiler@internal@v8@@@45@@Z
  ??0?$vector@PEAVMoveOperands@compiler@internal@v8@@V?$ZoneAllocator@PEAVMoveOperands@compiler@internal@v8@@@34@@std@@QEAA@_KAEBV?$ZoneAllocator@PEAVMoveOperands@compiler@internal@v8@@@internal@v8@@@Z
  ??0?$vector@UCpuProfileDeoptFrame@v8@@V?$allocator@UCpuProfileDeoptFrame@v8@@@std@@@std@@QEAA@$$QEAV01@@Z
  ??0?$vector@UCpuProfileDeoptFrame@v8@@V?$allocator@UCpuProfileDeoptFrame@v8@@@std@@@std@@QEAA@$$QEAV01@AEBV?$allocator@UCpuProfileDeoptFrame@v8@@@1@@Z
  ??0?$vector@UCpuProfileDeoptFrame@v8@@V?$allocator@UCpuProfileDeoptFrame@v8@@@std@@@std@@QEAA@AEBV01@@Z
  ??0?$vector@UCpuProfileDeoptFrame@v8@@V?$allocator@UCpuProfileDeoptFrame@v8@@@std@@@std@@QEAA@AEBV01@AEBV?$allocator@UCpuProfileDeoptFrame@v8@@@1@@Z
  ??0?$vector@UCpuProfileDeoptFrame@v8@@V?$allocator@UCpuProfileDeoptFrame@v8@@@std@@@std@@QEAA@AEBV?$allocator@UCpuProfileDeoptFrame@v8@@@1@@Z
  ??0?$vector@UCpuProfileDeoptFrame@v8@@V?$allocator@UCpuProfileDeoptFrame@v8@@@std@@@std@@QEAA@V?$initializer_list@UCpuProfileDeoptFrame@v8@@@1@AEBV?$allocator@UCpuProfileDeoptFrame@v8@@@1@@Z
  ??0?$vector@UCpuProfileDeoptFrame@v8@@V?$allocator@UCpuProfileDeoptFrame@v8@@@std@@@std@@QEAA@XZ
  ??0?$vector@UCpuProfileDeoptFrame@v8@@V?$allocator@UCpuProfileDeoptFrame@v8@@@std@@@std@@QEAA@_KAEBUCpuProfileDeoptFrame@v8@@AEBV?$allocator@UCpuProfileDeoptFrame@v8@@@1@@Z
  ??0?$vector@UCpuProfileDeoptFrame@v8@@V?$allocator@UCpuProfileDeoptFrame@v8@@@std@@@std@@QEAA@_KAEBV?$allocator@UCpuProfileDeoptFrame@v8@@@1@@Z
  ??0?$vector@UCpuProfileDeoptInfo@v8@@V?$allocator@UCpuProfileDeoptInfo@v8@@@std@@@std@@QEAA@$$QEAV01@@Z
  ??0?$vector@UCpuProfileDeoptInfo@v8@@V?$allocator@UCpuProfileDeoptInfo@v8@@@std@@@std@@QEAA@$$QEAV01@AEBV?$allocator@UCpuProfileDeoptInfo@v8@@@1@@Z
  ??0?$vector@UCpuProfileDeoptInfo@v8@@V?$allocator@UCpuProfileDeoptInfo@v8@@@std@@@std@@QEAA@AEBV01@@Z
  ??0?$vector@UCpuProfileDeoptInfo@v8@@V?$allocator@UCpuProfileDeoptInfo@v8@@@std@@@std@@QEAA@AEBV01@AEBV?$allocator@UCpuProfileDeoptInfo@v8@@@1@@Z
  ??0?$vector@UCpuProfileDeoptInfo@v8@@V?$allocator@UCpuProfileDeoptInfo@v8@@@std@@@std@@QEAA@AEBV?$allocator@UCpuProfileDeoptInfo@v8@@@1@@Z
  ??0?$vector@UCpuProfileDeoptInfo@v8@@V?$allocator@UCpuProfileDeoptInfo@v8@@@std@@@std@@QEAA@V?$initializer_list@UCpuProfileDeoptInfo@v8@@@1@AEBV?$allocator@UCpuProfileDeoptInfo@v8@@@1@@Z
  ??0?$vector@UCpuProfileDeoptInfo@v8@@V?$allocator@UCpuProfileDeoptInfo@v8@@@std@@@std@@QEAA@XZ
  ??0?$vector@UCpuProfileDeoptInfo@v8@@V?$allocator@UCpuProfileDeoptInfo@v8@@@std@@@std@@QEAA@_KAEBUCpuProfileDeoptInfo@v8@@AEBV?$allocator@UCpuProfileDeoptInfo@v8@@@1@@Z
  ??0?$vector@UCpuProfileDeoptInfo@v8@@V?$allocator@UCpuProfileDeoptInfo@v8@@@std@@@std@@QEAA@_KAEBV?$allocator@UCpuProfileDeoptInfo@v8@@@1@@Z
  ??0AccountingAllocator@internal@v8@@QEAA@XZ
  ??0ActivityControl@v8@@QEAA@AEBV01@@Z
  ??0ActivityControl@v8@@QEAA@XZ
  ??0AddTypeAssertionsReducer@compiler@internal@v8@@QEAA@PEAVEditor@AdvancedReducer@123@PEAVJSGraph@123@PEAVZone@23@@Z
  ??0AddressSpaceReservation@base@v8@@AEAA@PEAX_K@Z
  ??0AddressToTraceMap@internal@v8@@QEAA@$$QEAV012@@Z
  ??0AddressToTraceMap@internal@v8@@QEAA@AEBV012@@Z
  ??0AddressToTraceMap@internal@v8@@QEAA@XZ
  ??0AlignedCachedData@internal@v8@@QEAA@PEBEH@Z
  ??0AlignedSlotAllocator@internal@v8@@QEAA@XZ
  ??0AllocationProfile@v8@@QEAA@AEBV01@@Z
  ??0AllocationProfile@v8@@QEAA@XZ
  ??0Allocator@ArrayBuffer@v8@@QEAA@AEBV012@@Z
  ??0Allocator@ArrayBuffer@v8@@QEAA@XZ
  ??0AllowCompilation@internal@v8@@QEAA@PEAVIsolate@12@@Z
  ??0AllowDeoptimization@internal@v8@@QEAA@PEAVIsolate@12@@Z
  ??0AllowExceptions@internal@v8@@QEAA@PEAVIsolate@12@@Z
  ??0AllowJavascriptExecution@internal@v8@@QEAA@PEAVIsolate@12@@Z
  ??0AllowJavascriptExecutionScope@Isolate@v8@@QEAA@PEAV12@@Z
  ??0ArrayBufferAllocator@node@@QEAA@$$QEAV01@@Z
  ??0ArrayBufferAllocator@node@@QEAA@AEBV01@@Z
  ??0ArrayBufferAllocator@node@@QEAA@XZ
  ??0AsmCallableType@wasm@internal@v8@@IEAA@XZ
  ??0AsmFunctionType@wasm@internal@v8@@IEAA@PEAVZone@23@PEAVAsmType@123@@Z
  ??0AsmJsOffsetInformation@wasm@internal@v8@@QEAA@V?$Vector@$$CBE@base@3@@Z
  ??0AsmJsScanner@internal@v8@@QEAA@$$QEAV012@@Z
  ??0AsmJsScanner@internal@v8@@QEAA@AEBV012@@Z
  ??0AsmJsScanner@internal@v8@@QEAA@PEAVUtf16CharacterStream@12@@Z
  ??0AsmOverloadedFunctionType@wasm@internal@v8@@AEAA@PEAVZone@23@@Z
  ??0Assembler@internal@v8@@QEAA@AEBUAssemblerOptions@12@V?$unique_ptr@VAssemblerBuffer@internal@v8@@U?$default_delete@VAssemblerBuffer@internal@v8@@@std@@@std@@@Z
  ??0AssemblerBase@internal@v8@@QEAA@AEBUAssemblerOptions@12@V?$unique_ptr@VAssemblerBuffer@internal@v8@@U?$default_delete@VAssemblerBuffer@internal@v8@@@std@@@std@@@Z
  ??0AssemblerOptions@internal@v8@@QEAA@XZ
  ??0AsyncResource@node@@QEAA@PEAVIsolate@v8@@V?$Local@VObject@v8@@@3@PEBDN@Z
  ??0AsyncStreamingDecoder@wasm@internal@v8@@QEAA@V?$unique_ptr@VStreamingProcessor@wasm@internal@v8@@U?$default_delete@VStreamingProcessor@wasm@internal@v8@@@std@@@std@@@Z
  ??0BackgroundCompileTask@internal@v8@@QEAA@PEAUScriptStreamingData@12@PEAVIsolate@12@W4ScriptType@2@@Z
  ??0BackgroundCompileTask@internal@v8@@QEAA@PEAVIsolate@12@V?$Handle@VSharedFunctionInfo@internal@v8@@@12@V?$unique_ptr@VUtf16CharacterStream@internal@v8@@U?$default_delete@VUtf16CharacterStream@internal@v8@@@std@@@std@@PEAVWorkerThreadRuntimeCallStats@12@PEAVTimedHistogram@12@H@Z
  ??0BackgroundDeserializeTask@internal@v8@@QEAA@PEAVIsolate@12@V?$unique_ptr@UCachedData@ScriptCompiler@v8@@U?$default_delete@UCachedData@ScriptCompiler@v8@@@std@@@std@@@Z
  ??0BackingStore@internal@v8@@AEAA@PEAX_K11W4SharedFlag@12@W4ResizableFlag@12@_N4444@Z
  ??0BackupIncumbentScope@Context@v8@@QEAA@V?$Local@VContext@v8@@@2@@Z
  ??0BasePage@internal@cppgc@@IEAA@AEAVHeapBase@12@AEAVBaseSpace@12@W4PageType@012@@Z
  ??0BaseSpace@internal@cppgc@@IEAA@PEAVRawHeap@12@_KW4PageType@012@_N@Z
  ??0BaseSpace@internal@v8@@IEAA@PEAVHeap@12@W4AllocationSpace@12@@Z
  ??0BasicBlock@compiler@internal@v8@@QEAA@PEAVZone@23@VId@0123@@Z
  ??0BasicBlockProfilerData@internal@v8@@QEAA@V?$Handle@VOnHeapBasicBlockProfilerData@internal@v8@@@12@PEAVIsolate@12@@Z
  ??0BasicBlockProfilerData@internal@v8@@QEAA@VOnHeapBasicBlockProfilerData@12@@Z
  ??0BigIntToI32PairDescriptor@internal@v8@@IEAA@W4Key@CallDescriptors@12@@Z
  ??0BigIntToI32PairDescriptor@internal@v8@@QEAA@XZ
  ??0BigIntToI64Descriptor@internal@v8@@IEAA@W4Key@CallDescriptors@12@@Z
  ??0BigIntToI64Descriptor@internal@v8@@QEAA@XZ
  ??0Bignum@base@v8@@QEAA@XZ
  ??0Binary@protocol@v8_inspector@@AEAA@V?$shared_ptr@V?$vector@EV?$allocator@E@std@@@std@@@std@@@Z
  ??0Binary@protocol@v8_inspector@@QEAA@$$QEAV012@@Z
  ??0Binary@protocol@v8_inspector@@QEAA@AEBV012@@Z
  ??0Binary@protocol@v8_inspector@@QEAA@XZ
  ??0BitVector@internal@v8@@QEAA@AEBV012@PEAVZone@12@@Z
  ??0BitVector@internal@v8@@QEAA@HPEAVZone@12@@Z
  ??0BitVector@internal@v8@@QEAA@XZ
  ??0BlockBuilder@interpreter@internal@v8@@QEAA@PEAVBytecodeArrayBuilder@123@PEAVBlockCoverageBuilder@123@PEAVBreakableStatement@23@@Z
  ??0BlockData@Coverage@debug@v8@@AEAA@PEAUCoverageBlock@internal@3@V?$shared_ptr@VCoverage@internal@v8@@@std@@@Z
  ??0BlockData@Coverage@debug@v8@@QEAA@$$QEAV0123@@Z
  ??0BookmarkScope@Scanner@internal@v8@@QEAA@PEAV123@@Z
  ??0BoundedPageAllocator@base@v8@@QEAA@PEAVPageAllocator@2@_K11W4PageInitializationMode@12@@Z
  ??0BranchConditionDuplicator@compiler@internal@v8@@QEAA@PEAVZone@23@PEAVGraph@123@@Z
  ??0BranchElimination@compiler@internal@v8@@QEAA@AEBV0123@@Z
  ??0BranchElimination@compiler@internal@v8@@QEAA@PEAVEditor@AdvancedReducer@123@PEAVJSGraph@123@PEAVZone@23@PEAVSourcePositionTable@123@W4Phase@0123@@Z
  ??0BranchHintMap@wasm@internal@v8@@QEAA@$$QEAV0123@@Z
  ??0BranchHintMap@wasm@internal@v8@@QEAA@AEBV0123@@Z
  ??0BranchHintMap@wasm@internal@v8@@QEAA@XZ
  ??0BranchMatcher@compiler@internal@v8@@QEAA@PEAVNode@123@@Z
  ??0BreakIterator@internal@v8@@QEAA@V?$Handle@VDebugInfo@internal@v8@@@12@@Z
  ??0BreakLocation@debug@v8@@QEAA@HHW4BreakLocationType@12@@Z
  ??0BreakableControlFlowBuilder@interpreter@internal@v8@@QEAA@PEAVBytecodeArrayBuilder@123@PEAVBlockCoverageBuilder@123@PEAVAstNode@23@@Z
  ??0ByteData@PreparseDataBuilder@internal@v8@@QEAA@XZ
  ??0BytecodeAnalysis@compiler@internal@v8@@QEAA@V?$Handle@VBytecodeArray@internal@v8@@@23@PEAVZone@23@VBytecodeOffset@23@_N@Z
  ??0BytecodeArrayBuilder@interpreter@internal@v8@@QEAA@PEAVZone@23@HHPEAVFeedbackVectorSpec@23@W4RecordingMode@SourcePositionTableBuilder@23@@Z
  ??0BytecodeArrayIterator@interpreter@internal@v8@@QEAA@V?$Handle@VBytecodeArray@internal@v8@@@23@H@Z
  ??0BytecodeArrayRandomIterator@interpreter@internal@v8@@QEAA@V?$Handle@VBytecodeArray@internal@v8@@@23@PEAVZone@23@@Z
  ??0BytecodeArrayWriter@interpreter@internal@v8@@QEAA@PEAVZone@23@PEAVConstantArrayBuilder@123@W4RecordingMode@SourcePositionTableBuilder@23@@Z
  ??0BytecodeIterator@wasm@internal@v8@@QEAA@$$QEAV0123@@Z
  ??0BytecodeIterator@wasm@internal@v8@@QEAA@AEBV0123@@Z
  ??0BytecodeIterator@wasm@internal@v8@@QEAA@PEBE0PEAUBodyLocalDecls@123@@Z
  ??0BytecodeJumpTable@interpreter@internal@v8@@QEAA@_KHHPEAVZone@23@@Z
  ??0BytecodeLabel@interpreter@internal@v8@@QEAA@XZ
  ??0BytecodeLabels@interpreter@internal@v8@@QEAA@PEAVZone@23@@Z
  ??0BytecodeLivenessMap@compiler@internal@v8@@QEAA@HPEAVZone@23@@Z
  ??0BytecodeLoopAssignments@compiler@internal@v8@@QEAA@HHPEAVZone@23@@Z
  ??0BytecodeLoopHeader@interpreter@internal@v8@@QEAA@XZ
  ??0BytecodeNode@interpreter@internal@v8@@AEAA@W4Bytecode@123@HW4OperandScale@123@VBytecodeSourceInfo@123@IIIII@Z
  ??0BytecodeNode@interpreter@internal@v8@@QEAA@W4Bytecode@123@IIIIIVBytecodeSourceInfo@123@@Z
  ??0BytecodeNode@interpreter@internal@v8@@QEAA@W4Bytecode@123@IIIIVBytecodeSourceInfo@123@@Z
  ??0BytecodeNode@interpreter@internal@v8@@QEAA@W4Bytecode@123@IIIVBytecodeSourceInfo@123@@Z
  ??0BytecodeNode@interpreter@internal@v8@@QEAA@W4Bytecode@123@IIVBytecodeSourceInfo@123@@Z
  ??0BytecodeNode@interpreter@internal@v8@@QEAA@W4Bytecode@123@IVBytecodeSourceInfo@123@@Z
  ??0BytecodeNode@interpreter@internal@v8@@QEAA@W4Bytecode@123@VBytecodeSourceInfo@123@@Z
  ??0BytecodeOffsetIterator@baseline@internal@v8@@QEAA@V?$Handle@VByteArray@internal@v8@@@23@V?$Handle@VBytecodeArray@internal@v8@@@23@@Z
  ??0BytecodeOffsetIterator@baseline@internal@v8@@QEAA@VByteArray@23@VBytecodeArray@23@@Z
  ??0BytecodeRegisterOptimizer@interpreter@internal@v8@@QEAA@PEAVZone@23@PEAVBytecodeRegisterAllocator@123@HHPEAVBytecodeWriter@0123@@Z
  ??0CFunction@v8@@QEAA@PEBXPEBVCFunctionInfo@1@@Z
  ??0CFunction@v8@@QEAA@XZ
  ??0CFunctionInfo@v8@@QEAA@AEBVCTypeInfo@1@IPEBV21@@Z
  ??0CPU@base@v8@@QEAA@XZ
  ??0CachedData@ScriptCompiler@v8@@QEAA@PEBEHW4BufferPolicy@012@@Z
  ??0CachedData@ScriptCompiler@v8@@QEAA@XZ
  ??0CallDescriptor@compiler@internal@v8@@QEAA@W4Kind@0123@VMachineType@23@VLinkageLocation@123@PEAV?$Signature@VLinkageLocation@compiler@internal@v8@@@23@_KV?$Flags@W4Property@Operator@compiler@internal@v8@@E@base@3@V?$RegListBase@VRegister@internal@v8@@@23@V?$RegListBase@VXMMRegister@internal@v8@@@23@V?$Flags@W4Flag@CallDescriptor@compiler@internal@v8@@H@93@PEBDW4StackArgumentOrder@23@PEBV?$Signature@VValueType@wasm@internal@v8@@@23@V?$RegListBase@VRegister@internal@v8@@@23@4@Z
  ??0CallInterfaceDescriptor@internal@v8@@QEAA@W4Key@CallDescriptors@12@@Z
  ??0CallInterfaceDescriptor@internal@v8@@QEAA@XZ
  ??0CallInterfaceDescriptorData@internal@v8@@QEAA@XZ
  ??0CallRuntimeParameters@compiler@internal@v8@@QEAA@W4FunctionId@Runtime@23@_K@Z
  ??0CallbackScope@AsyncResource@node@@QEAA@PEAV12@@Z
  ??0CallbackScope@node@@QEAA@PEAVEnvironment@1@V?$Local@VObject@v8@@@v8@@Uasync_context@1@@Z
  ??0CallbackScope@node@@QEAA@PEAVIsolate@v8@@V?$Local@VObject@v8@@@3@Uasync_context@1@@Z
  ??0Cancelable@internal@v8@@QEAA@PEAVCancelableTaskManager@12@@Z
  ??0CancelableTask@internal@v8@@QEAA@PEAVCancelableTaskManager@12@@Z
  ??0CancelableTask@internal@v8@@QEAA@PEAVIsolate@12@@Z
  ??0CancelableTaskManager@internal@v8@@QEAA@XZ
  ??0CanonicalHandleScope@internal@v8@@QEAA@PEAVIsolate@12@PEAVZone@12@@Z
  ??0Channel@V8Inspector@v8_inspector@@QEAA@AEBV012@@Z
  ??0Channel@V8Inspector@v8_inspector@@QEAA@XZ
  ??0CheckpointElimination@compiler@internal@v8@@QEAA@AEBV0123@@Z
  ??0CheckpointElimination@compiler@internal@v8@@QEAA@PEAVEditor@AdvancedReducer@123@@Z
  ??0ClassScope@internal@v8@@QEAA@$$QEAV012@@Z
  ??0ClassScope@internal@v8@@QEAA@PEAVZone@12@PEAVScope@12@_N@Z
  ??0CodeAssembler@compiler@internal@v8@@QEAA@PEAVCodeAssemblerState@123@@Z
  ??0CodeAssemblerLabel@compiler@internal@v8@@QEAA@PEAVCodeAssembler@123@AEBV?$ZoneVector@PEAVCodeAssemblerVariable@compiler@internal@v8@@@23@W4Type@0123@@Z
  ??0CodeAssemblerLabel@compiler@internal@v8@@QEAA@PEAVCodeAssembler@123@PEAVCodeAssemblerVariable@123@W4Type@0123@@Z
  ??0CodeAssemblerLabel@compiler@internal@v8@@QEAA@PEAVCodeAssembler@123@V?$initializer_list@PEAVCodeAssemblerVariable@compiler@internal@v8@@@std@@W4Type@0123@@Z
  ??0CodeAssemblerLabel@compiler@internal@v8@@QEAA@PEAVCodeAssembler@123@W4Type@0123@@Z
  ??0CodeAssemblerLabel@compiler@internal@v8@@QEAA@PEAVCodeAssembler@123@_KPEBQEAVCodeAssemblerVariable@123@W4Type@0123@@Z
  ??0CodeAssemblerState@compiler@internal@v8@@AEAA@PEAVIsolate@23@PEAVZone@23@PEAVCallDescriptor@123@W4CodeKind@23@PEBDW4Builtin@23@@Z
  ??0CodeAssemblerState@compiler@internal@v8@@QEAA@PEAVIsolate@23@PEAVZone@23@AEBVCallInterfaceDescriptor@23@W4CodeKind@23@PEBDW4Builtin@23@@Z
  ??0CodeAssemblerState@compiler@internal@v8@@QEAA@PEAVIsolate@23@PEAVZone@23@HW4CodeKind@23@PEBDW4Builtin@23@@Z
  ??0CodeAssemblerVariable@compiler@internal@v8@@IEAA@PEAVCodeAssembler@123@W4MachineRepresentation@23@@Z
  ??0CodeAssemblerVariable@compiler@internal@v8@@IEAA@PEAVCodeAssembler@123@W4MachineRepresentation@23@PEAVNode@123@@Z
  ??0CodeBuilder@Factory@internal@v8@@QEAA@PEAVIsolate@23@AEBVCodeDesc@23@W4CodeKind@23@@Z
  ??0CodeBuilder@Factory@internal@v8@@QEAA@PEAVLocalIsolate@23@AEBVCodeDesc@23@W4CodeKind@23@@Z
  ??0CodeCommentsIterator@internal@v8@@QEAA@_KI@Z
  ??0CodeEntryStorage@internal@v8@@QEAA@XZ
  ??0CodeEventHandler@v8@@QEAA@PEAVIsolate@1@@Z
  ??0CodeEventLogger@internal@v8@@QEAA@PEAVIsolate@12@@Z
  ??0CodeGenerator@compiler@internal@v8@@QEAA@PEAVZone@23@PEAVFrame@123@PEAVLinkage@123@PEAVInstructionSequence@123@PEAVOptimizedCompilationInfo@23@PEAVIsolate@23@V?$Optional@VOsrHelper@compiler@internal@v8@@@base@3@HPEAVJumpOptimizationInfo@23@AEBUAssemblerOptions@23@W4Builtin@23@_K_KPEBD@Z
  ??0CodeMap@internal@v8@@QEAA@AEAVCodeEntryStorage@12@@Z
  ??0CodeObjectRegistry@internal@v8@@QEAA@XZ
  ??0CodeSpaceWriteScope@wasm@internal@v8@@QEAA@PEAVNativeModule@123@@Z
  ??0CombinedHeapObjectIterator@internal@v8@@QEAA@PEAVHeap@12@W4HeapObjectsFiltering@HeapObjectIterator@12@@Z
  ??0CommandLineAPIScope@V8InspectorSession@v8_inspector@@QEAA@AEBV012@@Z
  ??0CommandLineAPIScope@V8InspectorSession@v8_inspector@@QEAA@XZ
  ??0CommonEnvironmentSetup@node@@AEAA@PEAVMultiIsolatePlatform@1@PEAV?$vector@V?$basic_string@DU?$char_traits@D@std@@V?$allocator@D@2@@std@@V?$allocator@V?$basic_string@DU?$char_traits@D@std@@V?$allocator@D@2@@std@@@2@@std@@V?$function@$$A6APEAVEnvironment@node@@PEBVCommonEnvironmentSetup@2@@Z@4@@Z
  ??0CommonOperatorBuilder@compiler@internal@v8@@QEAA@PEAVZone@23@@Z
  ??0CommonOperatorReducer@compiler@internal@v8@@QEAA@AEBV0123@@Z
  ??0CommonOperatorReducer@compiler@internal@v8@@QEAA@PEAVEditor@AdvancedReducer@123@PEAVGraph@123@PEAVJSHeapBroker@123@PEAVCommonOperatorBuilder@123@PEAVMachineOperatorBuilder@123@PEAVZone@23@W4BranchSemantics@123@@Z
  ??0CompactionSpace@internal@v8@@QEAA@PEAVHeap@12@W4AllocationSpace@12@W4Executability@12@W4CompactionSpaceKind@12@@Z
  ??0Compactor@internal@cppgc@@QEAA@AEAVRawHeap@12@@Z
  ??0CompilationCache@internal@v8@@AEAA@PEAVIsolate@12@@Z
  ??0CompilationDependencies@compiler@internal@v8@@QEAA@$$QEAV0123@@Z
  ??0CompilationDependencies@compiler@internal@v8@@QEAA@AEBV0123@@Z
  ??0CompilationDependencies@compiler@internal@v8@@QEAA@PEAVJSHeapBroker@123@PEAVZone@23@@Z
  ??0CompilationEventCallback@wasm@internal@v8@@QEAA@AEBV0123@@Z
  ??0CompilationEventCallback@wasm@internal@v8@@QEAA@XZ
  ??0CompilationJob@internal@v8@@QEAA@AEBV012@@Z
  ??0CompilationJob@internal@v8@@QEAA@W4State@012@@Z
  ??0CompilationResultResolver@wasm@internal@v8@@QEAA@AEBV0123@@Z
  ??0CompilationResultResolver@wasm@internal@v8@@QEAA@XZ
  ??0CompiledWasmModule@v8@@AEAA@V?$shared_ptr@VNativeModule@wasm@internal@v8@@@std@@PEBD_K@Z
  ??0CompiledWasmModule@v8@@QEAA@$$QEAV01@@Z
  ??0CompiledWasmModule@v8@@QEAA@AEBV01@@Z
  ??0ConcurrentMarker@internal@cppgc@@QEAA@AEAVHeapBase@12@AEAVMarkingWorklists@12@AEAVIncrementalMarkingSchedule@12@PEAVPlatform@2@@Z
  ??0ConcurrentMarkerBase@internal@cppgc@@QEAA@AEAVHeapBase@12@AEAVMarkingWorklists@12@AEAVIncrementalMarkingSchedule@12@PEAVPlatform@2@@Z
  ??0ConcurrentMarking@internal@v8@@QEAA@PEAVHeap@12@PEAVMarkingWorklists@12@PEAVWeakObjects@12@@Z
  ??0ConcurrentMarkingVisitor@internal@cppgc@@QEAA@AEAVHeapBase@12@AEAVConcurrentMarkingState@12@@Z
  ??0ConcurrentUnifiedHeapMarkingVisitor@internal@v8@@QEAA@AEAVHeapBase@1cppgc@@PEAVHeap@12@AEAVConcurrentMarkingState@14@@Z
  ??0ConditionVariable@base@v8@@QEAA@XZ
  ??0ConditionalControlFlowBuilder@interpreter@internal@v8@@QEAA@PEAVBytecodeArrayBuilder@123@PEAVBlockCoverageBuilder@123@PEAVAstNode@23@@Z
  ??0Constant@compiler@internal@v8@@QEAA@H@Z
  ??0Constant@compiler@internal@v8@@QEAA@M@Z
  ??0Constant@compiler@internal@v8@@QEAA@N@Z
  ??0Constant@compiler@internal@v8@@QEAA@PEBVStringConstantBase@23@@Z
  ??0Constant@compiler@internal@v8@@QEAA@V?$Handle@VHeapObject@internal@v8@@@23@_N@Z
  ??0Constant@compiler@internal@v8@@QEAA@VExternalReference@23@@Z
  ??0Constant@compiler@internal@v8@@QEAA@VRelocatablePtrConstantInfo@123@@Z
  ??0Constant@compiler@internal@v8@@QEAA@VRpoNumber@123@@Z
  ??0Constant@compiler@internal@v8@@QEAA@_J@Z
  ??0ConstantArrayBuilder@interpreter@internal@v8@@QEAA@$$QEAV0123@@Z
  ??0ConstantArrayBuilder@interpreter@internal@v8@@QEAA@PEAVZone@23@@Z
  ??0ConstantFoldingReducer@compiler@internal@v8@@QEAA@PEAVEditor@AdvancedReducer@123@PEAVJSGraph@123@PEAVJSHeapBroker@123@@Z
  ??0ConsumeCodeCacheTask@ScriptCompiler@v8@@AEAA@V?$unique_ptr@VBackgroundDeserializeTask@internal@v8@@U?$default_delete@VBackgroundDeserializeTask@internal@v8@@@std@@@std@@@Z
  ??0ContextDeserializer@internal@v8@@AEAA@PEAVIsolate@12@PEBVSnapshotData@12@_N@Z
  ??0ContextSerializer@internal@v8@@QEAA@PEAVIsolate@12@V?$Flags@W4SerializerFlag@Snapshot@internal@v8@@H@base@2@PEAVStartupSerializer@12@USerializeInternalFieldsCallback@2@@Z
  ??0ControlEquivalence@compiler@internal@v8@@QEAA@$$QEAV0123@@Z
  ??0ControlEquivalence@compiler@internal@v8@@QEAA@AEBV0123@@Z
  ??0ControlEquivalence@compiler@internal@v8@@QEAA@PEAVZone@23@PEAVGraph@123@@Z
  ??0ControlFlowBuilder@interpreter@internal@v8@@QEAA@PEAVBytecodeArrayBuilder@123@@Z
  ??0ControlFlowOptimizer@compiler@internal@v8@@QEAA@PEAVGraph@123@PEAVCommonOperatorBuilder@123@PEAVMachineOperatorBuilder@123@PEAVTickCounter@23@PEAVZone@23@@Z
  ??0Coverage@debug@v8@@AEAA@V?$shared_ptr@VCoverage@internal@v8@@@std@@@Z
  ??0Coverage@debug@v8@@QEAA@$$QEAV012@@Z
  ??0CppHeap@internal@v8@@QEAA@PEAVPlatform@2@AEBV?$vector@V?$unique_ptr@VCustomSpaceBase@cppgc@@U?$default_delete@VCustomSpaceBase@cppgc@@@std@@@std@@V?$allocator@V?$unique_ptr@VCustomSpaceBase@cppgc@@U?$default_delete@VCustomSpaceBase@cppgc@@@std@@@std@@@2@@std@@AEBUWrapperDescriptor@2@@Z
  ??0CppHeap@v8@@AEAA@XZ
  ??0CppHeap@v8@@QEAA@AEBV01@@Z
  ??0CpuFeatureScope@internal@v8@@QEAA@PEAVAssemblerBase@12@W4CpuFeature@12@W4CheckPolicy@012@@Z
  ??0CpuProfile@internal@v8@@QEAA@PEAVCpuProfiler@12@IPEBDVCpuProfilingOptions@2@V?$unique_ptr@VDiscardedSamplesDelegate@v8@@U?$default_delete@VDiscardedSamplesDelegate@v8@@@std@@@std@@@Z
  ??0CpuProfileDeoptInfo@v8@@QEAA@$$QEAU01@@Z
  ??0CpuProfileDeoptInfo@v8@@QEAA@AEBU01@@Z
  ??0CpuProfileDeoptInfo@v8@@QEAA@XZ
  ??0CpuProfiler@internal@v8@@QEAA@PEAVIsolate@12@W4CpuProfilingNamingMode@2@W4CpuProfilingLoggingMode@2@@Z
  ??0CpuProfiler@internal@v8@@QEAA@PEAVIsolate@12@W4CpuProfilingNamingMode@2@W4CpuProfilingLoggingMode@2@PEAVCpuProfilesCollection@12@PEAVSymbolizer@12@PEAVProfilerEventsProcessor@12@PEAVProfilerCodeObserver@12@@Z
  ??0CpuProfilesCollection@internal@v8@@QEAA@PEAVIsolate@12@@Z
  ??0CpuProfilingOptions@v8@@QEAA@$$QEAV01@@Z
  ??0CpuProfilingOptions@v8@@QEAA@AEBV01@@Z
  ??0CpuProfilingOptions@v8@@QEAA@W4CpuProfilingMode@1@IHV?$MaybeLocal@VContext@v8@@@1@@Z
  ??0CreateParams@Isolate@v8@@QEAA@AEBU012@@Z
  ??0CreateParams@Isolate@v8@@QEAA@XZ
  ??0CrossThreadPersistentRegion@internal@cppgc@@QEAA@AEBVFatalOutOfMemoryHandler@12@@Z
  ??0CsaLoadElimination@compiler@internal@v8@@QEAA@PEAVEditor@AdvancedReducer@123@PEAVJSGraph@123@PEAVZone@23@@Z
  ??0DateCache@internal@v8@@QEAA@AEBV012@@Z
  ??0DateCache@internal@v8@@QEAA@XZ
  ??0DbgStreamBuf@internal@v8@@QEAA@AEBV012@@Z
  ??0DbgStreamBuf@internal@v8@@QEAA@XZ
  ??0DeadCodeElimination@compiler@internal@v8@@QEAA@PEAVEditor@AdvancedReducer@123@PEAVGraph@123@PEAVCommonOperatorBuilder@123@PEAVZone@23@@Z
  ??0Debug@internal@v8@@AEAA@PEAVIsolate@12@@Z
  ??0DebugInfo@wasm@internal@v8@@QEAA@PEAVNativeModule@123@@Z
  ??0DeclarationScope@internal@v8@@QEAA@$$QEAV012@@Z
  ??0DeclarationScope@internal@v8@@QEAA@PEAVZone@12@PEAVAstValueFactory@12@W4REPLMode@12@@Z
  ??0DeclarationScope@internal@v8@@QEAA@PEAVZone@12@PEAVScope@12@W4ScopeType@12@W4FunctionKind@12@@Z
  ??0DeclarationScope@internal@v8@@QEAA@PEAVZone@12@W4ScopeType@12@PEAVAstValueFactory@12@V?$Handle@VScopeInfo@internal@v8@@@12@@Z
  ??0DefaultEmbedderRootsHandler@internal@v8@@QEAA@$$QEAV012@@Z
  ??0DefaultEmbedderRootsHandler@internal@v8@@QEAA@AEBV012@@Z
  ??0DefaultEmbedderRootsHandler@internal@v8@@QEAA@XZ
  ??0Delegate@ValueDeserializer@v8@@QEAA@AEBV012@@Z
  ??0Delegate@ValueDeserializer@v8@@QEAA@XZ
  ??0Delegate@ValueSerializer@v8@@QEAA@AEBV012@@Z
  ??0Delegate@ValueSerializer@v8@@QEAA@XZ
  ??0Descriptor@internal@v8@@IEAA@V?$Handle@VName@internal@v8@@@12@AEBVMaybeObjectHandle@12@VPropertyDetails@12@@Z
  ??0Descriptor@internal@v8@@IEAA@V?$Handle@VName@internal@v8@@@12@AEBVMaybeObjectHandle@12@W4PropertyKind@12@W4PropertyAttributes@12@W4PropertyLocation@12@W4PropertyConstness@12@VRepresentation@12@H@Z
  ??0Descriptor@internal@v8@@QEAA@XZ
  ??0DetachableVectorBase@internal@v8@@QEAA@XZ
  ??0DiamondMatcher@compiler@internal@v8@@QEAA@PEAVNode@123@@Z
  ??0DisallowCompilation@internal@v8@@QEAA@PEAVIsolate@12@@Z
  ??0DisallowDeoptimization@internal@v8@@QEAA@PEAVIsolate@12@@Z
  ??0DisallowExceptions@internal@v8@@QEAA@PEAVIsolate@12@@Z
  ??0DisallowGarbageCollectionScope@subtle@cppgc@@QEAA@AEAVHeapHandle@2@@Z
  ??0DisallowJavascriptExecution@internal@v8@@QEAA@PEAVIsolate@12@@Z
  ??0DisallowJavascriptExecutionScope@Isolate@v8@@QEAA@PEAV12@W4OnFailure@012@@Z
  ??0DiscardedSamplesDelegate@v8@@QEAA@AEBV01@@Z
  ??0DiscardedSamplesDelegate@v8@@QEAA@XZ
  ??0DisjointAllocationPool@wasm@internal@v8@@QEAA@$$QEAV0123@@Z
  ??0DisjointAllocationPool@wasm@internal@v8@@QEAA@VAddressRegion@base@3@@Z
  ??0DisjointAllocationPool@wasm@internal@v8@@QEAA@XZ
  ??0Domain@API@Schema@protocol@v8_inspector@@QEAA@$$QEAV01234@@Z
  ??0Domain@API@Schema@protocol@v8_inspector@@QEAA@AEBV01234@@Z
  ??0Domain@API@Schema@protocol@v8_inspector@@QEAA@XZ
  ??0DumpOnJavascriptExecution@internal@v8@@QEAA@PEAVIsolate@12@@Z
  ??0EhFrameIterator@internal@v8@@QEAA@PEBE0@Z
  ??0EhFrameWriter@internal@v8@@QEAA@PEAVZone@12@@Z
  ??0EmbedderGraph@v8@@QEAA@AEBV01@@Z
  ??0EmbedderGraph@v8@@QEAA@XZ
  ??0EmbedderHeapTracer@v8@@QEAA@AEBV01@@Z
  ??0EmbedderHeapTracer@v8@@QEAA@XZ
  ??0EmbedderRootsHandler@v8@@QEAA@AEBV01@@Z
  ??0EmbedderRootsHandler@v8@@QEAA@XZ
  ??0EmbedderStackStateScope@internal@v8@@AEAA@PEAVLocalEmbedderHeapTracer@12@W4EmbedderStackState@cppgc@@@Z
  ??0EmbedderStackStateScope@internal@v8@@QEAA@PEAVHeap@12@W4Origin@012@W4EmbedderStackState@cppgc@@@Z
  ??0EmbedderState@internal@v8@@QEAA@PEAVIsolate@2@V?$Local@VContext@v8@@@2@W4EmbedderStateTag@2@@Z
  ??0EmbedderStateScope@v8@@QEAA@PEAVIsolate@1@V?$Local@VContext@v8@@@1@W4EmbedderStateTag@1@@Z
  ??0Entry@TypeProfile@debug@v8@@AEAA@PEBUTypeProfileEntry@internal@3@V?$shared_ptr@VTypeProfile@internal@v8@@@std@@@Z
  ??0Entry@TypeProfile@debug@v8@@QEAA@$$QEAV0123@@Z
  ??0EphemeronHashTable@internal@v8@@IEAA@_K@Z
  ??0EphemeronHashTable@internal@v8@@QEAA@XZ
  ??0ErrorThrower@wasm@internal@v8@@QEAA@$$QEAV0123@@Z
  ??0ErrorThrower@wasm@internal@v8@@QEAA@PEAVIsolate@23@PEBD@Z
  ??0EscapableHandleScope@v8@@QEAA@PEAVIsolate@1@@Z
  ??0EscapeAnalysis@compiler@internal@v8@@QEAA@PEAVJSGraph@123@PEAVTickCounter@23@PEAVZone@23@@Z
  ??0EscapeAnalysisReducer@compiler@internal@v8@@QEAA@PEAVEditor@AdvancedReducer@123@PEAVJSGraph@123@PEAVJSHeapBroker@123@VEscapeAnalysisResult@123@PEAVZone@23@@Z
  ??0Event@StatsCollector@internal@cppgc@@QEAA@XZ
  ??0Exported@protocol@v8_inspector@@QEAA@AEBV012@@Z
  ??0Exported@protocol@v8_inspector@@QEAA@XZ
  ??0Extension@v8@@QEAA@PEBD0HPEAPEBDH@Z
  ??0ExtensionConfiguration@v8@@QEAA@HQEAPEBD@Z
  ??0ExtensionConfiguration@v8@@QEAA@XZ
  ??0ExternalMarkingWorklist@MarkingWorklists@internal@cppgc@@QEAA@XZ
  ??0ExternalOneByteStringResource@String@v8@@IEAA@XZ
  ??0ExternalResourceVisitor@v8@@QEAA@AEBV01@@Z
  ??0ExternalResourceVisitor@v8@@QEAA@XZ
  ??0ExternalSourceStream@ScriptCompiler@v8@@QEAA@AEBV012@@Z
  ??0ExternalSourceStream@ScriptCompiler@v8@@QEAA@XZ
  ??0ExternalStringResource@String@v8@@IEAA@XZ
  ??0ExternalStringResourceBase@String@v8@@IEAA@XZ
  ??0FatalOutOfMemoryHandler@internal@cppgc@@QEAA@PEAVHeapBase@12@@Z
  ??0FatalOutOfMemoryHandler@internal@cppgc@@QEAA@XZ
  ??0FeedbackIterator@internal@v8@@QEAA@PEBVFeedbackNexus@12@@Z
  ??0FeedbackNexus@internal@v8@@QEAA@V?$Handle@VFeedbackVector@internal@v8@@@12@VFeedbackSlot@12@@Z
  ??0FeedbackNexus@internal@v8@@QEAA@V?$Handle@VFeedbackVector@internal@v8@@@12@VFeedbackSlot@12@AEBVNexusConfig@12@@Z
  ??0FeedbackNexus@internal@v8@@QEAA@VFeedbackVector@12@VFeedbackSlot@12@@Z
  ??0FeedbackSource@compiler@internal@v8@@QEAA@V?$Handle@VFeedbackVector@internal@v8@@@23@VFeedbackSlot@23@@Z
  ??0FeedbackVectorSpec@internal@v8@@QEAA@$$QEAV012@@Z
  ??0FeedbackVectorSpec@internal@v8@@QEAA@AEBV012@@Z
  ??0FeedbackVectorSpec@internal@v8@@QEAA@PEAVZone@12@@Z
  ??0FlatStringReader@internal@v8@@QEAA@$$QEAV012@@Z
  ??0FlatStringReader@internal@v8@@QEAA@AEBV012@@Z
  ??0FlatStringReader@internal@v8@@QEAA@PEAVIsolate@12@V?$Handle@VString@internal@v8@@@12@@Z
  ??0Frame@compiler@internal@v8@@QEAA@H@Z
  ??0FrameSummary@internal@v8@@QEAA@VJavaScriptFrameSummary@012@@Z
  ??0FrameSummary@internal@v8@@QEAA@VWasmFrameSummary@012@@Z
  ??0FreeList@internal@cppgc@@QEAA@$$QEAV012@@Z
  ??0FreeList@internal@cppgc@@QEAA@XZ
  ??0FreeListMany@internal@v8@@QEAA@XZ
  ??0FreeListManyCached@internal@v8@@QEAA@XZ
  ??0FreeListManyCachedFastPath@internal@v8@@QEAA@XZ
  ??0FreeListManyCachedOrigin@internal@v8@@QEAA@XZ
  ??0FunctionData@Coverage@debug@v8@@AEAA@PEAUCoverageFunction@internal@3@V?$shared_ptr@VCoverage@internal@v8@@@std@@@Z
  ??0FunctionData@Coverage@debug@v8@@QEAA@$$QEAV0123@@Z
  ??0FunctionTargetAndRef@internal@v8@@QEAA@V?$Handle@VWasmInstanceObject@internal@v8@@@12@H@Z
  ??0GCInfoTable@internal@cppgc@@QEAA@PEAVPageAllocator@v8@@@Z
  ??0GCInvoker@internal@cppgc@@QEAA@PEAVGarbageCollector@12@PEAVPlatform@2@W4StackSupport@Heap@2@@Z
  ??0GCTracer@internal@v8@@QEAA@PEAVHeap@12@@Z
  ??0GlobalDictionary@internal@v8@@IEAA@_K@Z
  ??0GlobalDictionary@internal@v8@@QEAA@XZ
  ??0GlobalHandles@internal@v8@@QEAA@PEAVIsolate@12@@Z
  ??0GlobalSafepointScope@internal@v8@@QEAA@PEAVIsolate@12@@Z
  ??0Graph@compiler@internal@v8@@QEAA@PEAVZone@23@@Z
  ??0GraphAssembler@compiler@internal@v8@@QEAA@AEBV0123@@Z
  ??0GraphAssembler@compiler@internal@v8@@QEAA@PEAVMachineGraph@123@PEAVZone@23@V?$Optional@V?$function@$$A6AXPEAVNode@compiler@internal@v8@@@Z@std@@@base@3@_N@Z
  ??0GraphReducer@compiler@internal@v8@@QEAA@PEAVZone@23@PEAVGraph@123@PEAVTickCounter@23@PEAVJSHeapBroker@123@PEAVNode@123@PEAVObserveNodeManager@123@@Z
  ??0GraphTrimmer@compiler@internal@v8@@QEAA@PEAVZone@23@PEAVGraph@123@@Z
  ??0HandleScope@v8@@QEAA@PEAVIsolate@1@@Z
  ??0HandlerTable@internal@v8@@QEAA@PEBVWasmCode@wasm@12@@Z
  ??0HandlerTable@internal@v8@@QEAA@VByteArray@12@@Z
  ??0HandlerTable@internal@v8@@QEAA@VBytecodeArray@12@@Z
  ??0HandlerTable@internal@v8@@QEAA@VCode@12@@Z
  ??0HandlerTable@internal@v8@@QEAA@_KHW4EncodingMode@012@@Z
  ??0HandlerTableBuilder@interpreter@internal@v8@@QEAA@PEAVZone@23@@Z
  ??0HashTableBase@internal@v8@@IEAA@_K@Z
  ??0HashTableBase@internal@v8@@QEAA@XZ
  ??0Heap@cppgc@@AEAA@XZ
  ??0Heap@cppgc@@QEAA@AEBV01@@Z
  ??0Heap@internal@cppgc@@QEAA@V?$shared_ptr@VPlatform@cppgc@@@std@@UHeapOptions@02@@Z
  ??0HeapAllocator@internal@v8@@QEAA@PEAVHeap@12@@Z
  ??0HeapBase@internal@cppgc@@QEAA@V?$shared_ptr@VPlatform@cppgc@@@std@@AEBV?$vector@V?$unique_ptr@VCustomSpaceBase@cppgc@@U?$default_delete@VCustomSpaceBase@cppgc@@@std@@@std@@V?$allocator@V?$unique_ptr@VCustomSpaceBase@cppgc@@U?$default_delete@VCustomSpaceBase@cppgc@@@std@@@std@@@2@@4@W4StackSupport@Heap@2@W4MarkingType@72@W4SweepingType@72@@Z
  ??0HeapCodeStatistics@v8@@QEAA@XZ
  ??0HeapConstantType@compiler@internal@v8@@AEAA@_KAEBVHeapObjectRef@123@@Z
  ??0HeapGrowing@internal@cppgc@@QEAA@PEAVGarbageCollector@12@PEAVStatsCollector@12@UResourceConstraints@Heap@2@W4MarkingType@62@W4SweepingType@62@@Z
  ??0HeapObjectIterator@internal@v8@@QEAA@PEAVHeap@12@W4HeapObjectsFiltering@012@@Z
  ??0HeapObjectStatistics@v8@@QEAA@XZ
  ??0HeapSpaceStatistics@v8@@QEAA@XZ
  ??0HeapStatistics@v8@@QEAA@XZ
  ??0HiddenLocalFactory@internal@v8@@QEAA@PEAVIsolate@12@@Z
  ??0I32PairToBigIntDescriptor@internal@v8@@IEAA@W4Key@CallDescriptors@12@@Z
  ??0I32PairToBigIntDescriptor@internal@v8@@QEAA@XZ
  ??0I64ToBigIntDescriptor@internal@v8@@IEAA@W4Key@CallDescriptors@12@@Z
  ??0I64ToBigIntDescriptor@internal@v8@@QEAA@XZ
  ??0IdentityMapBase@internal@v8@@IEAA@PEAVHeap@12@@Z
  ??0IncrementalMarking@internal@v8@@QEAA@PEAVHeap@12@PEAVWeakObjects@12@@Z
  ??0IncrementalMarkingSchedule@internal@cppgc@@QEAA@XZ
  ??0IndexGenerator@internal@v8@@QEAA@_K@Z
  ??0InitializationResult@node@@AEAA@XZ
  ??0InitializationResult@node@@QEAA@AEBV01@@Z
  ??0Inputs@Node@compiler@internal@v8@@QEAA@PEBQEAV1234@H@Z
  ??0Inspectable@V8InspectorSession@v8_inspector@@QEAA@AEBV012@@Z
  ??0Inspectable@V8InspectorSession@v8_inspector@@QEAA@XZ
  ??0InstantiationResultResolver@wasm@internal@v8@@QEAA@AEBV0123@@Z
  ??0InstantiationResultResolver@wasm@internal@v8@@QEAA@XZ
  ??0Instruction@compiler@internal@v8@@AEAA@I@Z
  ??0Instruction@compiler@internal@v8@@AEAA@I_KPEAVInstructionOperand@123@0101@Z
  ??0InstructionBlock@compiler@internal@v8@@QEAA@$$QEAV0123@@Z
  ??0InstructionBlock@compiler@internal@v8@@QEAA@AEBV0123@@Z
  ??0InstructionBlock@compiler@internal@v8@@QEAA@PEAVZone@23@VRpoNumber@123@111_N2@Z
  ??0InstructionOperand@compiler@internal@v8@@IEAA@W4Kind@0123@@Z
  ??0InstructionOperand@compiler@internal@v8@@QEAA@XZ
  ??0InstructionScheduler@compiler@internal@v8@@QEAA@PEAVZone@23@PEAVInstructionSequence@123@@Z
  ??0InstructionSelector@compiler@internal@v8@@QEAA@$$QEAV0123@@Z
  ??0InstructionSelector@compiler@internal@v8@@QEAA@AEBV0123@@Z
  ??0InstructionSelector@compiler@internal@v8@@QEAA@PEAVZone@23@_KPEAVLinkage@123@PEAVInstructionSequence@123@PEAVSchedule@123@PEAVSourcePositionTable@123@PEAVFrame@123@W4EnableSwitchJumpTable@0123@PEAVTickCounter@23@PEAVJSHeapBroker@123@PEA_KPEA_KW4SourcePositionMode@0123@VFeatures@0123@W4EnableScheduling@0123@W4EnableRootsRelativeAddressing@0123@W4EnableTraceTurboJson@0123@@Z
  ??0InstructionSequence@compiler@internal@v8@@QEAA@PEAVIsolate@23@PEAVZone@23@PEAV?$ZoneVector@PEAVInstructionBlock@compiler@internal@v8@@@23@@Z
  ??0Int64Lowering@compiler@internal@v8@@QEAA@$$QEAV0123@@Z
  ??0Int64Lowering@compiler@internal@v8@@QEAA@PEAVGraph@123@PEAVMachineOperatorBuilder@123@PEAVCommonOperatorBuilder@123@PEAVSimplifiedOperatorBuilder@123@PEAVZone@23@PEAV?$Signature@W4MachineRepresentation@internal@v8@@@23@V?$unique_ptr@UInt64LoweringSpecialCase@compiler@internal@v8@@U?$default_delete@UInt64LoweringSpecialCase@compiler@internal@v8@@@std@@@std@@@Z
  ??0Int64LoweringSpecialCase@compiler@internal@v8@@QEAA@$$QEAU0123@@Z
  ??0Int64LoweringSpecialCase@compiler@internal@v8@@QEAA@AEBU0123@@Z
  ??0Int64LoweringSpecialCase@compiler@internal@v8@@QEAA@XZ
  ??0InterpreterDispatchDescriptor@internal@v8@@IEAA@W4Key@CallDescriptors@12@@Z
  ??0InterpreterDispatchDescriptor@internal@v8@@QEAA@XZ
  ??0InterruptsScope@internal@v8@@QEAA@PEAVIsolate@12@_JW4Mode@012@@Z
  ??0InvalidatedSlotsCleanup@internal@v8@@QEAA@$$QEAV012@@Z
  ??0InvalidatedSlotsCleanup@internal@v8@@QEAA@AEBV012@@Z
  ??0InvalidatedSlotsCleanup@internal@v8@@QEAA@PEAVMemoryChunk@12@PEAV?$set@VHeapObject@internal@v8@@UComparer@Object@23@V?$allocator@VHeapObject@internal@v8@@@std@@@std@@@Z
  ??0InvalidatedSlotsFilter@internal@v8@@AEAA@PEAVMemoryChunk@12@PEAV?$set@VHeapObject@internal@v8@@UComparer@Object@23@V?$allocator@VHeapObject@internal@v8@@@std@@@std@@W4RememberedSetType@12@@Z
  ??0InvalidatedSlotsFilter@internal@v8@@QEAA@$$QEAV012@@Z
  ??0InvalidatedSlotsFilter@internal@v8@@QEAA@AEBV012@@Z
  ??0Isolate@internal@v8@@AEAA@V?$unique_ptr@VIsolateAllocator@internal@v8@@U?$default_delete@VIsolateAllocator@internal@v8@@@std@@@std@@_N@Z
  ??0IsolateAllocator@internal@v8@@QEAA@XZ
  ??0IsolatePlatformDelegate@node@@QEAA@$$QEAV01@@Z
  ??0IsolatePlatformDelegate@node@@QEAA@AEBV01@@Z
  ??0IsolatePlatformDelegate@node@@QEAA@XZ
  ??0Iterator@Script@internal@v8@@QEAA@PEAVIsolate@23@@Z
  ??0JSCallReducer@compiler@internal@v8@@QEAA@$$QEAV0123@@Z
  ??0JSCallReducer@compiler@internal@v8@@QEAA@AEBV0123@@Z
  ??0JSCallReducer@compiler@internal@v8@@QEAA@PEAVEditor@AdvancedReducer@123@PEAVJSGraph@123@PEAVJSHeapBroker@123@PEAVZone@23@V?$Flags@W4Flag@JSCallReducer@compiler@internal@v8@@H@base@3@@Z
  ??0JSContextSpecialization@compiler@internal@v8@@QEAA@PEAVEditor@AdvancedReducer@123@PEAVJSGraph@123@PEAVJSHeapBroker@123@V?$Maybe@UOuterContext@compiler@internal@v8@@@3@V?$MaybeHandle@VJSFunction@internal@v8@@@23@@Z
  ??0JSCreateLowering@compiler@internal@v8@@QEAA@AEBV0123@@Z
  ??0JSCreateLowering@compiler@internal@v8@@QEAA@PEAVEditor@AdvancedReducer@123@PEAVCompilationDependencies@123@PEAVJSGraph@123@PEAVJSHeapBroker@123@PEAVZone@23@@Z
  ??0JSFunctionBuilder@Factory@internal@v8@@QEAA@PEAVIsolate@23@V?$Handle@VSharedFunctionInfo@internal@v8@@@23@V?$Handle@VContext@internal@v8@@@23@@Z
  ??0JSFunctionRef@compiler@internal@v8@@QEAA@PEAVJSHeapBroker@123@PEAVObjectData@123@_N@Z
  ??0JSGraph@compiler@internal@v8@@QEAA@PEAVIsolate@23@PEAVGraph@123@PEAVCommonOperatorBuilder@123@PEAVJSOperatorBuilder@123@PEAVSimplifiedOperatorBuilder@123@PEAVMachineOperatorBuilder@123@@Z
  ??0JSGraphAssembler@compiler@internal@v8@@QEAA@$$QEAV0123@@Z
  ??0JSGraphAssembler@compiler@internal@v8@@QEAA@AEBV0123@@Z
  ??0JSGraphAssembler@compiler@internal@v8@@QEAA@PEAVJSGraph@123@PEAVZone@23@V?$Optional@V?$function@$$A6AXPEAVNode@compiler@internal@v8@@@Z@std@@@base@3@_N@Z
  ??0JSHeapBroker@compiler@internal@v8@@QEAA@PEAVIsolate@23@PEAVZone@23@@Z
  ??0JSHeapBroker@compiler@internal@v8@@QEAA@PEAVIsolate@23@PEAVZone@23@_NW4CodeKind@23@@Z
  ??0JSIntrinsicLowering@compiler@internal@v8@@QEAA@AEBV0123@@Z
  ??0JSIntrinsicLowering@compiler@internal@v8@@QEAA@PEAVEditor@AdvancedReducer@123@PEAVJSGraph@123@PEAVJSHeapBroker@123@@Z
  ??0JSNativeContextSpecialization@compiler@internal@v8@@QEAA@PEAVEditor@AdvancedReducer@123@PEAVJSGraph@123@PEAVJSHeapBroker@123@V?$Flags@W4Flag@JSNativeContextSpecialization@compiler@internal@v8@@H@base@3@PEAVCompilationDependencies@123@PEAVZone@23@5@Z
  ??0JSOperatorBuilder@compiler@internal@v8@@QEAA@PEAVZone@23@@Z
  ??0JSToWasmWrapperCompilationUnit@wasm@internal@v8@@QEAA@PEAVIsolate@23@PEBV?$Signature@VValueType@wasm@internal@v8@@@23@PEBUWasmModule@123@_NAEBVWasmFeatures@123@W4AllowGeneric@0123@@Z
  ??0JSTypedLowering@compiler@internal@v8@@QEAA@AEBV0123@@Z
  ??0JSTypedLowering@compiler@internal@v8@@QEAA@PEAVEditor@AdvancedReducer@123@PEAVJSGraph@123@PEAVJSHeapBroker@123@PEAVZone@23@@Z
  ??0JumpTableAssembler@wasm@internal@v8@@AEAA@_KH@Z
  ??0JumpTableTargetOffsets@interpreter@internal@v8@@QEAA@PEBVBytecodeArrayIterator@123@HHH@Z
  ??0LargeObjectSpace@internal@v8@@IEAA@PEAVHeap@12@W4AllocationSpace@12@@Z
  ??0LargePage@internal@cppgc@@AEAA@AEAVHeapBase@12@AEAVBaseSpace@12@_K@Z
  ??0LargePageMemoryRegion@internal@cppgc@@QEAA@AEAVPageAllocator@v8@@AEAVFatalOutOfMemoryHandler@12@_K@Z
  ??0LargePageSpace@internal@cppgc@@QEAA@PEAVRawHeap@12@_K@Z
  ??0LazilyGeneratedNames@wasm@internal@v8@@QEAA@XZ
  ??0LazyCompileDispatcher@internal@v8@@QEAA@PEAVIsolate@12@PEAVPlatform@2@_K@Z
  ??0Linkage@compiler@internal@v8@@QEAA@PEAVCallDescriptor@123@@Z
  ??0LiveRange@compiler@internal@v8@@AEAA@HW4MachineRepresentation@23@PEAVTopLevelLiveRange@123@@Z
  ??0LoadElimination@compiler@internal@v8@@QEAA@PEAVEditor@AdvancedReducer@123@PEAVJSGraph@123@PEAVZone@23@@Z
  ??0Local@MarkingWorklists@internal@v8@@QEAA@PEAV123@V?$unique_ptr@VCppMarkingState@internal@v8@@U?$default_delete@VCppMarkingState@internal@v8@@@std@@@std@@@Z
  ??0LocalAllocationBuffer@internal@v8@@AEAA@PEAVHeap@12@VLinearAllocationArea@12@@Z
  ??0LocalAllocationBuffer@internal@v8@@QEAA@$$QEAV012@@Z
  ??0LocalDeclEncoder@wasm@internal@v8@@QEAA@$$QEAV0123@@Z
  ??0LocalDeclEncoder@wasm@internal@v8@@QEAA@AEBV0123@@Z
  ??0LocalDeclEncoder@wasm@internal@v8@@QEAA@PEAVZone@23@PEBV?$Signature@VValueType@wasm@internal@v8@@@23@@Z
  ??0LocalEmbedderHeapTracer@internal@v8@@QEAA@PEAVIsolate@12@@Z
  ??0LocalFactory@internal@v8@@QEAA@PEAVIsolate@12@@Z
  ??0LocalHeap@internal@v8@@QEAA@PEAVHeap@12@W4ThreadKind@12@V?$unique_ptr@VPersistentHandles@internal@v8@@U?$default_delete@VPersistentHandles@internal@v8@@@std@@@std@@@Z
  ??0LocalIsolate@internal@v8@@QEAA@PEAVIsolate@12@W4ThreadKind@12@@Z
  ??0Location@debug@v8@@QEAA@HH@Z
  ??0Location@debug@v8@@QEAA@XZ
  ??0Location@v8@@QEAA@HH@Z
  ??0Locker@v8@@QEAA@PEAVIsolate@1@@Z
  ??0LongTaskStats@metrics@v8@@QEAA@XZ
  ??0LookupIterator@internal@v8@@AEAA@PEAVIsolate@12@V?$Handle@VObject@internal@v8@@@12@V?$Handle@VName@internal@v8@@@12@V?$Handle@VMap@internal@v8@@@12@VPropertyDetails@12@_N@Z
  ??0LookupIterator@internal@v8@@AEAA@PEAVIsolate@12@V?$Handle@VObject@internal@v8@@@12@V?$Handle@VName@internal@v8@@@12@_K1W4Configuration@012@@Z
  ??0LookupIterator@internal@v8@@QEAA@PEAVIsolate@12@V?$Handle@VObject@internal@v8@@@12@AEBVPropertyKey@12@1W4Configuration@012@@Z
  ??0LookupIterator@internal@v8@@QEAA@PEAVIsolate@12@V?$Handle@VObject@internal@v8@@@12@AEBVPropertyKey@12@W4Configuration@012@@Z
  ??0LookupIterator@internal@v8@@QEAA@PEAVIsolate@12@V?$Handle@VObject@internal@v8@@@12@V?$Handle@VName@internal@v8@@@12@1W4Configuration@012@@Z
  ??0LookupIterator@internal@v8@@QEAA@PEAVIsolate@12@V?$Handle@VObject@internal@v8@@@12@V?$Handle@VName@internal@v8@@@12@W4Configuration@012@@Z
  ??0LookupIterator@internal@v8@@QEAA@PEAVIsolate@12@V?$Handle@VObject@internal@v8@@@12@_K1W4Configuration@012@@Z
  ??0LookupIterator@internal@v8@@QEAA@PEAVIsolate@12@V?$Handle@VObject@internal@v8@@@12@_KW4Configuration@012@@Z
  ??0LoopBuilder@interpreter@internal@v8@@QEAA@PEAVBytecodeArrayBuilder@123@PEAVBlockCoverageBuilder@123@PEAVAstNode@23@@Z
  ??0LoopInfo@compiler@internal@v8@@QEAA@$$QEAU0123@@Z
  ??0LoopInfo@compiler@internal@v8@@QEAA@AEBU0123@@Z
  ??0LoopInfo@compiler@internal@v8@@QEAA@HHHPEAVZone@23@@Z
  ??0LoopPeeler@compiler@internal@v8@@QEAA@PEAVGraph@123@PEAVCommonOperatorBuilder@123@PEAVLoopTree@123@PEAVZone@23@PEAVSourcePositionTable@123@PEAVNodeOriginTable@123@@Z
  ??0MachineGraph@compiler@internal@v8@@QEAA@PEAVGraph@123@PEAVCommonOperatorBuilder@123@PEAVMachineOperatorBuilder@123@@Z
  ??0MachineOperatorBuilder@compiler@internal@v8@@QEAA@PEAVZone@23@W4MachineRepresentation@23@V?$Flags@W4Flag@MachineOperatorBuilder@compiler@internal@v8@@I@base@3@VAlignmentRequirements@0123@@Z
  ??0MachineOperatorReducer@compiler@internal@v8@@QEAA@AEBV0123@@Z
  ??0MachineOperatorReducer@compiler@internal@v8@@QEAA@PEAVEditor@AdvancedReducer@123@PEAVMachineGraph@123@_N@Z
  ??0MacroAssembler@internal@v8@@QEAA@PEAVIsolate@12@AEBUAssemblerOptions@12@W4CodeObjectRequired@12@V?$unique_ptr@VAssemblerBuffer@internal@v8@@U?$default_delete@VAssemblerBuffer@internal@v8@@@std@@@std@@@Z
  ??0MacroAssembler@internal@v8@@QEAA@PEAVIsolate@12@W4CodeObjectRequired@12@V?$unique_ptr@VAssemblerBuffer@internal@v8@@U?$default_delete@VAssemblerBuffer@internal@v8@@@std@@@std@@@Z
  ??0MapRef@compiler@internal@v8@@QEAA@PEAVJSHeapBroker@123@PEAVObjectData@123@_N@Z
  ??0MapUpdater@internal@v8@@QEAA@PEAVIsolate@12@V?$Handle@VMap@internal@v8@@@12@@Z
  ??0Marker@internal@cppgc@@QEAA@AEAVHeapBase@12@PEAVPlatform@2@UMarkingConfig@MarkerBase@12@@Z
  ??0MarkerBase@internal@cppgc@@IEAA@AEAVHeapBase@12@PEAVPlatform@2@UMarkingConfig@012@@Z
  ??0MarkingVerifier@internal@cppgc@@QEAA@AEAVHeapBase@12@W4CollectionType@MarkingConfig@MarkerBase@12@@Z
  ??0MarkingVerifierBase@internal@cppgc@@IEAA@AEAVHeapBase@12@W4CollectionType@MarkingConfig@MarkerBase@12@AEAVVerificationState@12@V?$unique_ptr@VVisitor@cppgc@@U?$default_delete@VVisitor@cppgc@@@std@@@std@@@Z
  ??0MarkingVisitorBase@internal@cppgc@@QEAA@AEAVHeapBase@12@AEAVBasicMarkingState@12@@Z
  ??0MarkingWorklists@internal@v8@@QEAA@XZ
  ??0MeasureMemoryDelegate@internal@v8@@QEAA@AEBV012@@Z
  ??0MeasureMemoryDelegate@internal@v8@@QEAA@PEAVIsolate@12@V?$Handle@VNativeContext@internal@v8@@@12@V?$Handle@VJSPromise@internal@v8@@@12@W4MeasureMemoryMode@2@@Z
  ??0MeasureMemoryDelegate@v8@@QEAA@AEBV01@@Z
  ??0MeasureMemoryDelegate@v8@@QEAA@XZ
  ??0MemoryAllocator@internal@v8@@QEAA@PEAVIsolate@12@PEAVPageAllocator@2@_K@Z
  ??0MemoryMappedFile@OS@base@v8@@QEAA@AEBV0123@@Z
  ??0MemoryMappedFile@OS@base@v8@@QEAA@XZ
  ??0MemoryReducer@internal@v8@@QEAA@PEAVHeap@12@@Z
  ??0MemoryRegion@internal@cppgc@@QEAA@PEAE_K@Z
  ??0MemoryRegion@internal@cppgc@@QEAA@XZ
  ??0MessageLocation@internal@v8@@QEAA@V?$Handle@VScript@internal@v8@@@12@HH@Z
  ??0MessageLocation@internal@v8@@QEAA@V?$Handle@VScript@internal@v8@@@12@HHV?$Handle@VSharedFunctionInfo@internal@v8@@@12@@Z
  ??0MessageLocation@internal@v8@@QEAA@V?$Handle@VScript@internal@v8@@@12@V?$Handle@VSharedFunctionInfo@internal@v8@@@12@H@Z
  ??0MessageLocation@internal@v8@@QEAA@XZ
  ??0MicrotaskQueue@internal@v8@@AEAA@XZ
  ??0MicrotaskQueue@v8@@AEAA@XZ
  ??0MicrotasksScope@v8@@QEAA@PEAVIsolate@1@PEAVMicrotaskQueue@1@W4Type@01@@Z
  ??0MicrotasksScope@v8@@QEAA@PEAVIsolate@1@W4Type@01@@Z
  ??0ModuleWireBytes@wasm@internal@v8@@QEAA@PEBE0@Z
  ??0ModuleWireBytes@wasm@internal@v8@@QEAA@V?$Vector@$$CBE@base@3@@Z
  ??0MoveOperands@compiler@internal@v8@@QEAA@AEBVInstructionOperand@123@0@Z
  ??0MoveOptimizer@compiler@internal@v8@@QEAA@PEAVZone@23@PEAVInstructionSequence@123@@Z
  ??0MultiIsolatePlatform@node@@QEAA@AEBV01@@Z
  ??0MultiIsolatePlatform@node@@QEAA@XZ
  ??0MutatorMarkingVisitor@internal@cppgc@@QEAA@AEAVHeapBase@12@AEAVMutatorMarkingState@12@@Z
  ??0MutatorMinorGCMarkingVisitor@internal@v8@@QEAA@AEAVHeapBase@1cppgc@@AEAVMutatorMarkingState@14@AEAVUnifiedHeapMarkingState@12@@Z
  ??0MutatorMinorGCMarkingVisitor@internal@v8@@QEAA@AEBV012@@Z
  ??0MutatorUnifiedHeapMarkingVisitor@internal@v8@@QEAA@AEAVHeapBase@1cppgc@@AEAVMutatorMarkingState@14@AEAVUnifiedHeapMarkingState@12@@Z
  ??0MutatorUnifiedHeapMarkingVisitor@internal@v8@@QEAA@AEBV012@@Z
  ??0Mutex@base@v8@@QEAA@XZ
  ??0NameConverter@disasm@@QEAA@XZ
  ??0NameDictionary@internal@v8@@IEAA@_K@Z
  ??0NameDictionary@internal@v8@@QEAA@XZ
  ??0NameProvider@cppgc@@QEAA@AEBV01@@Z
  ??0NameProvider@cppgc@@QEAA@XZ
  ??0NameToIndexHashTable@internal@v8@@IEAA@_K@Z
  ??0NameToIndexHashTable@internal@v8@@QEAA@XZ
  ??0NativeContextStats@internal@v8@@QEAA@$$QEAV012@@Z
  ??0NativeContextStats@internal@v8@@QEAA@AEBV012@@Z
  ??0NativeContextStats@internal@v8@@QEAA@XZ
  ??0NativeModule@wasm@internal@v8@@AEAA@AEBVWasmFeatures@123@W4DynamicTiering@123@VVirtualMemory@23@V?$shared_ptr@$$CBUWasmModule@wasm@internal@v8@@@std@@V?$shared_ptr@VCounters@internal@v8@@@8@PEAV?$shared_ptr@VNativeModule@wasm@internal@v8@@@8@@Z
  ??0NativeModuleDeserializer@wasm@internal@v8@@QEAA@PEAVNativeModule@123@@Z
  ??0NativeModuleSerializer@wasm@internal@v8@@QEAA@PEBVNativeModule@123@V?$Vector@QEAVWasmCode@wasm@internal@v8@@@base@3@@Z
  ??0NewSpace@internal@v8@@QEAA@PEAVHeap@12@PEAVPageAllocator@2@_K2PEAVLinearAllocationArea@12@@Z
  ??0NexusConfig@internal@v8@@AEAA@PEAVIsolate@12@@Z
  ??0NexusConfig@internal@v8@@AEAA@PEAVIsolate@12@PEAVLocalHeap@12@@Z
  ??0NoDumpOnJavascriptExecution@internal@v8@@QEAA@PEAVIsolate@12@@Z
  ??0NoGarbageCollectionScope@subtle@cppgc@@QEAA@AEAVHeapHandle@2@@Z
  ??0NoThrowOnJavascriptExecution@internal@v8@@QEAA@PEAVIsolate@12@@Z
  ??0Node@compiler@internal@v8@@AEAA@IPEBVOperator@123@HH@Z
  ??0NodeOriginTable@compiler@internal@v8@@QEAA@PEAVGraph@123@@Z
  ??0NormalPage@internal@cppgc@@AEAA@AEAVHeapBase@12@AEAVBaseSpace@12@@Z
  ??0NormalPageMemoryPool@internal@cppgc@@QEAA@AEBV012@@Z
  ??0NormalPageMemoryPool@internal@cppgc@@QEAA@XZ
  ??0NormalPageMemoryRegion@internal@cppgc@@QEAA@AEAVPageAllocator@v8@@AEAVFatalOutOfMemoryHandler@12@@Z
  ??0NormalPageSpace@internal@cppgc@@QEAA@PEAVRawHeap@12@_K_N@Z
  ??0OFStream@internal@v8@@QEAA@PEAU_iobuf@@@Z
  ??0OFStreamBase@internal@v8@@QEAA@AEBV012@@Z
  ??0OFStreamBase@internal@v8@@QEAA@PEAU_iobuf@@@Z
  ??0OSROptimizedCodeCache@internal@v8@@IEAA@_K@Z
  ??0OSROptimizedCodeCache@internal@v8@@QEAA@XZ
  ??0ObjectAllocator@internal@cppgc@@QEAA@AEAVRawHeap@12@AEAVPageBackend@12@AEAVStatsCollector@12@AEAVPreFinalizerHandler@12@@Z
  ??0ObjectHashSet@internal@v8@@IEAA@_K@Z
  ??0ObjectHashSet@internal@v8@@QEAA@XZ
  ??0ObjectHashTable@internal@v8@@IEAA@_K@Z
  ??0ObjectHashTable@internal@v8@@QEAA@XZ
  ??0ObjectIterator@internal@v8@@QEAA@AEBV012@@Z
  ??0ObjectIterator@internal@v8@@QEAA@XZ
  ??0ObjectRef@compiler@internal@v8@@QEAA@PEAVJSHeapBroker@123@PEAVObjectData@123@_N@Z
  ??0ObjectStartBitmap@internal@cppgc@@QEAA@PEAE@Z
  ??0OldToNewRememberedSet@internal@cppgc@@QEAA@AEBVHeapBase@12@@Z
  ??0Operand@internal@v8@@QEAA@PEAVLabel@12@H@Z
  ??0Operand@internal@v8@@QEAA@V012@H@Z
  ??0Operand@internal@v8@@QEAA@VRegister@12@0W4ScaleFactor@12@H@Z
  ??0Operand@internal@v8@@QEAA@VRegister@12@H@Z
  ??0Operand@internal@v8@@QEAA@VRegister@12@W4ScaleFactor@12@H@Z
  ??0OperationTyper@compiler@internal@v8@@QEAA@PEAVJSHeapBroker@123@PEAVZone@23@@Z
  ??0OperationsBarrier@internal@v8@@QEAA@XZ
  ??0Operator@compiler@internal@v8@@QEAA@GV?$Flags@W4Property@Operator@compiler@internal@v8@@E@base@3@PEBD_K22222@Z
  ??0OptimizedCompilationInfo@internal@v8@@QEAA@PEAVZone@12@PEAVIsolate@12@V?$Handle@VSharedFunctionInfo@internal@v8@@@12@V?$Handle@VJSFunction@internal@v8@@@12@W4CodeKind@12@@Z
  ??0OptimizedCompilationInfo@internal@v8@@QEAA@PEAVZone@12@PEAVIsolate@12@V?$Handle@VSharedFunctionInfo@internal@v8@@@12@V?$Handle@VJSFunction@internal@v8@@@12@W4CodeKind@12@VBytecodeOffset@12@PEAVJavaScriptFrame@12@@Z
  ??0OptimizedCompilationInfo@internal@v8@@QEAA@V?$Vector@$$CBD@base@2@PEAVZone@12@W4CodeKind@12@@Z
  ??0OptimizingCompileDispatcher@internal@v8@@QEAA@PEAVIsolate@12@@Z
  ??0OrderedHashMap@internal@v8@@IEAA@_K@Z
  ??0OrderedHashMap@internal@v8@@QEAA@XZ
  ??0OrderedHashSet@internal@v8@@IEAA@_K@Z
  ??0OrderedHashSet@internal@v8@@QEAA@XZ
  ??0OrderedNameDictionary@internal@v8@@IEAA@_K@Z
  ??0OrderedNameDictionary@internal@v8@@QEAA@XZ
  ??0OutputStream@v8@@QEAA@AEBV01@@Z
  ??0OutputStream@v8@@QEAA@XZ
  ??0OverrideEmbedderStackStateScope@testing@cppgc@@QEAA@AEAVHeapHandle@2@W4EmbedderStackState@2@@Z
  ??0PageAllocator@base@v8@@QEAA@AEBV012@@Z
  ??0PageAllocator@base@v8@@QEAA@XZ
  ??0PageBackend@internal@cppgc@@QEAA@AEAVPageAllocator@v8@@AEAVFatalOutOfMemoryHandler@12@@Z
  ??0PageMemory@internal@cppgc@@QEAA@VMemoryRegion@12@0@Z
  ??0PageMemoryRegion@internal@cppgc@@IEAA@AEAVPageAllocator@v8@@AEAVFatalOutOfMemoryHandler@12@VMemoryRegion@12@_N@Z
  ??0PageMemoryRegionTree@internal@cppgc@@QEAA@AEBV012@@Z
  ??0PageMemoryRegionTree@internal@cppgc@@QEAA@XZ
  ??0PagedSpace@internal@v8@@QEAA@PEAVHeap@12@W4AllocationSpace@12@W4Executability@12@PEAVFreeList@12@PEAVLinearAllocationArea@12@W4CompactionSpaceKind@12@@Z
  ??0PagedSpaceIterator@internal@v8@@QEAA@PEAVHeap@12@@Z
  ??0PagedSpaceObjectIterator@internal@v8@@QEAA@$$QEAV012@@Z
  ??0PagedSpaceObjectIterator@internal@v8@@QEAA@AEBV012@@Z
  ??0PagedSpaceObjectIterator@internal@v8@@QEAA@PEAVHeap@12@PEAVPagedSpace@12@@Z
  ??0PagedSpaceObjectIterator@internal@v8@@QEAA@PEAVHeap@12@PEAVPagedSpace@12@PEAVPage@12@@Z
  ??0ParallelMove@compiler@internal@v8@@QEAA@PEAVZone@23@@Z
  ??0ParseInfo@internal@v8@@AEAA@VUnoptimizedCompileFlags@12@PEAVUnoptimizedCompileState@12@PEAVReusableUnoptimizedCompileState@12@_KPEAVRuntimeCallStats@12@@Z
  ??0ParseInfo@internal@v8@@QEAA@PEAVIsolate@12@VUnoptimizedCompileFlags@12@PEAVUnoptimizedCompileState@12@PEAVReusableUnoptimizedCompileState@12@@Z
  ??0ParseInfo@internal@v8@@QEAA@PEAVLocalIsolate@12@VUnoptimizedCompileFlags@12@PEAVUnoptimizedCompileState@12@PEAVReusableUnoptimizedCompileState@12@_K@Z
  ??0Parser@internal@v8@@QEAA@PEAVLocalIsolate@12@PEAVParseInfo@12@V?$Handle@VScript@internal@v8@@@12@@Z
  ??0PauseAllocationObserversScope@internal@v8@@QEAA@PEAVHeap@12@@Z
  ??0PersistentHandleVisitor@v8@@QEAA@AEBV01@@Z
  ??0PersistentHandleVisitor@v8@@QEAA@XZ
  ??0PersistentHandles@internal@v8@@QEAA@PEAVIsolate@12@@Z
  ??0PersistentHandlesScope@internal@v8@@QEAA@PEAVIsolate@12@@Z
  ??0PersistentRegion@internal@cppgc@@QEAA@AEBVFatalOutOfMemoryHandler@12@@Z
  ??0PersistentRegionBase@internal@cppgc@@IEAA@AEBVFatalOutOfMemoryHandler@12@@Z
  ??0PersistentRegionLock@internal@cppgc@@QEAA@XZ
  ??0PhiInstruction@compiler@internal@v8@@QEAA@$$QEAV0123@@Z
  ??0PhiInstruction@compiler@internal@v8@@QEAA@AEBV0123@@Z
  ??0PhiInstruction@compiler@internal@v8@@QEAA@PEAVZone@23@H_K@Z
  ??0Platform@cppgc@@QEAA@AEBV01@@Z
  ??0Platform@cppgc@@QEAA@XZ
  ??0PlatformAwareObjectStartBitmap@internal@cppgc@@QEAA@PEAE@Z
  ??0PrefinalizerRegistration@internal@cppgc@@QEAA@PEAXP6A_NAEBVLivenessBroker@2@0@Z@Z
  ??0PreparseDataBuilder@internal@v8@@QEAA@PEAVZone@12@PEAV012@PEAV?$vector@PEAXV?$allocator@PEAX@std@@@std@@@Z
  ??0ProcessingScope@LocalEmbedderHeapTracer@internal@v8@@QEAA@AEBV0123@@Z
  ??0ProcessingScope@LocalEmbedderHeapTracer@internal@v8@@QEAA@PEAV123@@Z
  ??0ProfileNode@internal@v8@@QEAA@PEAVProfileTree@12@PEAVCodeEntry@12@PEAV012@H@Z
  ??0ProfileTree@internal@v8@@QEAA@PEAVIsolate@12@PEAVCodeEntryStorage@12@@Z
  ??0ProfilerCodeObserver@internal@v8@@QEAA@PEAVIsolate@12@AEAVCodeEntryStorage@12@@Z
  ??0ProfilerEventsProcessor@internal@v8@@IEAA@PEAVIsolate@12@PEAVSymbolizer@12@PEAVProfilerCodeObserver@12@PEAVCpuProfilesCollection@12@@Z
  ??0ProfilerListener@internal@v8@@QEAA@PEAVIsolate@12@PEAVCodeEventObserver@12@AEAVCodeEntryStorage@12@AEAVWeakCodeRegistry@12@W4CpuProfilingNamingMode@2@@Z
  ??0PropertyDescriptor@v8@@QEAA@V?$Local@VValue@v8@@@1@0@Z
  ??0PropertyDescriptor@v8@@QEAA@V?$Local@VValue@v8@@@1@@Z
  ??0PropertyDescriptor@v8@@QEAA@V?$Local@VValue@v8@@@1@_N@Z
  ??0PropertyDescriptor@v8@@QEAA@XZ
  ??0PropertyIterator@debug@v8@@QEAA@AEBV012@@Z
  ??0PropertyIterator@debug@v8@@QEAA@XZ
  ??0RandomNumberGenerator@base@v8@@QEAA@XZ
  ??0RandomNumberGenerator@base@v8@@QEAA@_J@Z
  ??0RawHeap@internal@cppgc@@QEAA@PEAVHeapBase@12@AEBV?$vector@V?$unique_ptr@VCustomSpaceBase@cppgc@@U?$default_delete@VCustomSpaceBase@cppgc@@@std@@@std@@V?$allocator@V?$unique_ptr@VCustomSpaceBase@cppgc@@U?$default_delete@VCustomSpaceBase@cppgc@@@std@@@std@@@2@@std@@@Z
  ??0RawMachineAssembler@compiler@internal@v8@@QEAA@PEAVIsolate@23@PEAVGraph@123@PEAVCallDescriptor@123@W4MachineRepresentation@23@V?$Flags@W4Flag@MachineOperatorBuilder@compiler@internal@v8@@I@base@3@VAlignmentRequirements@MachineOperatorBuilder@123@@Z
  ??0RawMachineLabel@compiler@internal@v8@@QEAA@W4Type@0123@@Z
  ??0ReadOnlyHeapObjectIterator@internal@v8@@QEAA@PEBVReadOnlyHeap@12@@Z
  ??0ReadOnlyHeapObjectIterator@internal@v8@@QEAA@PEBVReadOnlySpace@12@@Z
  ??0ReadOnlySerializer@internal@v8@@QEAA@PEAVIsolate@12@V?$Flags@W4SerializerFlag@Snapshot@internal@v8@@H@base@2@@Z
  ??0ReadOnlySpace@internal@v8@@QEAA@PEAVHeap@12@@Z
  ??0Recorder@metrics@v8@@QEAA@AEBV012@@Z
  ??0Recorder@metrics@v8@@QEAA@XZ
  ??0RecursiveMutex@base@v8@@QEAA@XZ
  ??0Reducer@compiler@internal@v8@@QEAA@AEBV0123@@Z
  ??0Reducer@compiler@internal@v8@@QEAA@XZ
  ??0RedundancyElimination@compiler@internal@v8@@QEAA@PEAVEditor@AdvancedReducer@123@PEAVZone@23@@Z
  ??0RegExpBytecodeGenerator@internal@v8@@QEAA@PEAVIsolate@12@PEAVZone@12@@Z
  ??0RegExpMacroAssemblerX64@internal@v8@@QEAA@PEAVIsolate@12@PEAVZone@12@W4Mode@NativeRegExpMacroAssembler@12@H@Z
  ??0RegionAllocator@base@v8@@QEAA@_K00@Z
  ??0Register@interpreter@internal@v8@@QEAA@H@Z
  ??0RegisterConfiguration@internal@v8@@QEAA@AEBV012@@Z
  ??0RegisterConfiguration@internal@v8@@QEAA@W4AliasingKind@12@HHHHHHPEBH11@Z
  ??0RegisterState@v8@@QEAA@AEBU01@@Z
  ??0RegisterState@v8@@QEAA@XZ
  ??0RelocIterator@internal@v8@@AEAA@VCode@12@_K1PEBE2H@Z
  ??0RelocIterator@internal@v8@@QEAA@AEBVCodeDesc@12@H@Z
  ??0RelocIterator@internal@v8@@QEAA@PEAVEmbeddedData@12@VCode@12@H@Z
  ??0RelocIterator@internal@v8@@QEAA@V?$Vector@E@base@2@V?$Vector@$$CBE@42@_KH@Z
  ??0RelocIterator@internal@v8@@QEAA@VCode@12@H@Z
  ??0RelocIterator@internal@v8@@QEAA@VCode@12@VByteArray@12@H@Z
  ??0RelocIterator@internal@v8@@QEAA@VCodeReference@12@H@Z
  ??0RemoteObject@API@Runtime@protocol@v8_inspector@@QEAA@$$QEAV01234@@Z
  ??0RemoteObject@API@Runtime@protocol@v8_inspector@@QEAA@AEBV01234@@Z
  ??0RemoteObject@API@Runtime@protocol@v8_inspector@@QEAA@XZ
  ??0RepresentationChanger@compiler@internal@v8@@QEAA@PEAVJSGraph@123@PEAVJSHeapBroker@123@PEAVSimplifiedLoweringVerifier@123@@Z
  ??0ResourceConstraints@v8@@QEAA@XZ
  ??0ResumeJumpTarget@compiler@internal@v8@@AEAA@HHH@Z
  ??0ReusableUnoptimizedCompileState@internal@v8@@QEAA@PEAVIsolate@12@@Z
  ??0ReusableUnoptimizedCompileState@internal@v8@@QEAA@PEAVLocalIsolate@12@@Z
  ??0RuntimeCallStats@internal@v8@@QEAA@W4ThreadType@012@@Z
  ??0SafeForTerminationScope@Isolate@v8@@QEAA@PEAV12@@Z
  ??0SafepointScope@internal@v8@@QEAA@PEAVHeap@12@@Z
  ??0SameThreadEnabledCheckingPolicyBase@internal@cppgc@@QEAA@XZ
  ??0Sampler@sampler@v8@@QEAA@PEAVIsolate@2@@Z
  ??0SamplingEventsProcessor@internal@v8@@QEAA@PEAVIsolate@12@PEAVSymbolizer@12@PEAVProfilerCodeObserver@12@PEAVCpuProfilesCollection@12@VTimeDelta@base@2@_N@Z
  ??0SaveAndSwitchContext@internal@v8@@QEAA@PEAVIsolate@12@VContext@12@@Z
  ??0SaveContext@internal@v8@@QEAA@PEAVIsolate@12@@Z
  ??0Scanner@internal@v8@@QEAA@PEAVUtf16CharacterStream@12@VUnoptimizedCompileFlags@12@@Z
  ??0Schedule@compiler@internal@v8@@QEAA@PEAVZone@23@_K@Z
  ??0ScheduledErrorThrower@wasm@internal@v8@@QEAA@PEAVIsolate@23@PEBD@Z
  ??0Scheduler@compiler@internal@v8@@AEAA@PEAVZone@23@PEAVGraph@123@PEAVSchedule@123@V?$Flags@W4Flag@Scheduler@compiler@internal@v8@@H@base@3@_KPEAVTickCounter@23@PEBVProfileDataFromFile@23@@Z
  ??0Scheduler@compiler@internal@v8@@QEAA@$$QEAV0123@@Z
  ??0Scheduler@compiler@internal@v8@@QEAA@AEBV0123@@Z
  ??0Scope@GCTracer@internal@v8@@QEAA@PEAV123@W4ScopeId@0123@W4ThreadKind@23@@Z
  ??0Scope@Isolate@v8@@QEAA@PEAV12@@Z
  ??0Scope@internal@v8@@AEAA@PEAVZone@12@PEBVAstRawString@12@W4MaybeAssignedFlag@12@V?$Handle@VScopeInfo@internal@v8@@@12@@Z
  ??0Scope@internal@v8@@AEAA@PEAVZone@12@W4ScopeType@12@PEAVAstValueFactory@12@V?$Handle@VScopeInfo@internal@v8@@@12@@Z
  ??0Scope@internal@v8@@IEAA@PEAVZone@12@@Z
  ??0Scope@internal@v8@@QEAA@$$QEAV012@@Z
  ??0Scope@internal@v8@@QEAA@PEAVZone@12@PEAV012@W4ScopeType@12@@Z
  ??0ScopeIterator@debug@v8@@QEAA@XZ
  ??0ScopedExceptionHandler@compiler@internal@v8@@QEAA@PEAVCodeAssembler@123@PEAV?$CodeAssemblerParameterizedLabel@VObject@internal@v8@@@123@@Z
  ??0ScopedExceptionHandler@compiler@internal@v8@@QEAA@PEAVCodeAssembler@123@PEAVCodeAssemblerLabel@123@PEAV?$TypedCodeAssemblerVariable@VObject@internal@v8@@@123@@Z
  ??0ScriptData@Coverage@debug@v8@@AEAA@_KV?$shared_ptr@VCoverage@internal@v8@@@std@@@Z
  ??0ScriptData@Coverage@debug@v8@@QEAA@$$QEAV0123@@Z
  ??0ScriptData@TypeProfile@debug@v8@@AEAA@_KV?$shared_ptr@VTypeProfile@internal@v8@@@std@@@Z
  ??0ScriptData@TypeProfile@debug@v8@@QEAA@$$QEAV0123@@Z
  ??0ScriptIterator@SharedFunctionInfo@internal@v8@@QEAA@PEAVIsolate@23@VScript@23@@Z
  ??0ScriptOrigin@v8@@QEAA@PEAVIsolate@1@V?$Local@VValue@v8@@@1@HH_NH1222V?$Local@VData@v8@@@1@@Z
  ??0ScriptStreamingTask@ScriptCompiler@v8@@AEAA@PEAUScriptStreamingData@internal@2@@Z
  ??0SealHandleScope@v8@@QEAA@PEAVIsolate@1@@Z
  ??0SearchMatch@API@Debugger@protocol@v8_inspector@@QEAA@$$QEAV01234@@Z
  ??0SearchMatch@API@Debugger@protocol@v8_inspector@@QEAA@AEBV01234@@Z
  ??0SearchMatch@API@Debugger@protocol@v8_inspector@@QEAA@XZ
  ??0SegmentBase@internal@base@heap@@QEAA@G@Z
  ??0Semaphore@base@v8@@QEAA@H@Z
  ??0SetupIsolateDelegate@internal@v8@@QEAA@AEBV012@@Z
  ??0SetupIsolateDelegate@internal@v8@@QEAA@_N@Z
  ??0SharedFunctionInfoRef@compiler@internal@v8@@QEAA@PEAVJSHeapBroker@123@PEAVObjectData@123@_N@Z
  ??0SharedHeapSerializer@internal@v8@@QEAA@PEAVIsolate@12@V?$Flags@W4SerializerFlag@Snapshot@internal@v8@@H@base@2@PEAVReadOnlySerializer@12@@Z
  ??0SharedMemoryStatistics@v8@@QEAA@XZ
  ??0SharedMutex@base@v8@@QEAA@XZ
  ??0SharedTurboAssembler@internal@v8@@QEAA@PEAVIsolate@12@AEBUAssemblerOptions@12@W4CodeObjectRequired@12@V?$unique_ptr@VAssemblerBuffer@internal@v8@@U?$default_delete@VAssemblerBuffer@internal@v8@@@std@@@std@@@Z
  ??0SharedTurboAssembler@internal@v8@@QEAA@PEAVIsolate@12@W4CodeObjectRequired@12@V?$unique_ptr@VAssemblerBuffer@internal@v8@@U?$default_delete@VAssemblerBuffer@internal@v8@@@std@@@std@@@Z
  ??0SignatureMap@wasm@internal@v8@@QEAA@$$QEAV0123@@Z
  ??0SignatureMap@wasm@internal@v8@@QEAA@XZ
  ??0SimplifiedLowering@compiler@internal@v8@@QEAA@PEAVJSGraph@123@PEAVJSHeapBroker@123@PEAVZone@23@PEAVSourcePositionTable@123@PEAVNodeOriginTable@123@PEAVTickCounter@23@PEAVLinkage@123@PEAVOptimizedCompilationInfo@23@PEAVObserveNodeManager@123@@Z
  ??0SimplifiedOperatorBuilder@compiler@internal@v8@@QEAA@PEAVZone@23@@Z
  ??0SimplifiedOperatorReducer@compiler@internal@v8@@QEAA@PEAVEditor@AdvancedReducer@123@PEAVJSGraph@123@PEAVJSHeapBroker@123@W4BranchSemantics@123@@Z
  ??0SnapshotCreator@v8@@QEAA@PEAVIsolate@1@PEB_JPEAVStartupData@1@@Z
  ??0SnapshotCreator@v8@@QEAA@PEB_JPEAVStartupData@1@@Z
  ??0SnapshotData@internal@v8@@IEAA@XZ
  ??0SnapshotData@internal@v8@@QEAA@$$QEAV012@@Z
  ??0SnapshotData@internal@v8@@QEAA@PEBVSerializer@12@@Z
  ??0SnapshotData@internal@v8@@QEAA@V?$Vector@$$CBE@base@2@@Z
  ??0SourceIdAssigner@compiler@internal@v8@@QEAA@$$QEAV0123@@Z
  ??0SourceIdAssigner@compiler@internal@v8@@QEAA@AEBV0123@@Z
  ??0SourceIdAssigner@compiler@internal@v8@@QEAA@_K@Z
  ??0SourceLocation@cppgc@@AEAA@PEBD0_K@Z
  ??0SourceLocation@cppgc@@QEAA@XZ
  ??0SourcePositionTable@compiler@internal@v8@@QEAA@PEAVGraph@123@@Z
  ??0SourcePositionTable@internal@v8@@QEAA@XZ
  ??0SourcePositionTableBuilder@internal@v8@@QEAA@$$QEAV012@@Z
  ??0SourcePositionTableBuilder@internal@v8@@QEAA@AEBV012@@Z
  ??0SourcePositionTableBuilder@internal@v8@@QEAA@PEAVZone@12@W4RecordingMode@012@@Z
  ??0SourcePositionTableIterator@internal@v8@@QEAA@V?$Handle@VByteArray@internal@v8@@@12@W4IterationFilter@012@W4FunctionEntryFilter@012@@Z
  ??0SourcePositionTableIterator@internal@v8@@QEAA@V?$Vector@$$CBE@base@2@W4IterationFilter@012@W4FunctionEntryFilter@012@@Z
  ??0SourcePositionTableIterator@internal@v8@@QEAA@VByteArray@12@W4IterationFilter@012@W4FunctionEntryFilter@012@@Z
  ??0Space@internal@v8@@QEAA@PEAVHeap@12@W4AllocationSpace@12@PEAVFreeList@12@@Z
  ??0SpaceIterator@internal@v8@@QEAA@AEBV012@@Z
  ??0SpaceIterator@internal@v8@@QEAA@PEAVHeap@12@@Z
  ??0Stack@base@heap@@QEAA@PEBX@Z
  ??0StackFrameIterator@internal@v8@@QEAA@PEAVIsolate@12@@Z
  ??0StackFrameIterator@internal@v8@@QEAA@PEAVIsolate@12@PEAVStackMemory@wasm@12@@Z
  ??0StackFrameIterator@internal@v8@@QEAA@PEAVIsolate@12@PEAVThreadLocalTop@12@@Z
  ??0StackGuard@internal@v8@@QEAA@PEAVIsolate@12@@Z
  ??0StackTrace@API@Runtime@protocol@v8_inspector@@QEAA@$$QEAV01234@@Z
  ??0StackTrace@API@Runtime@protocol@v8_inspector@@QEAA@AEBV01234@@Z
  ??0StackTrace@API@Runtime@protocol@v8_inspector@@QEAA@XZ
  ??0StackTrace@debug@base@v8@@QEAA@PEAU_EXCEPTION_POINTERS@@@Z
  ??0StackTrace@debug@base@v8@@QEAA@PEBQEBX_K@Z
  ??0StackTrace@debug@base@v8@@QEAA@PEBU_CONTEXT@@@Z
  ??0StackTrace@debug@base@v8@@QEAA@XZ
  ??0StackTraceFrameIterator@internal@v8@@QEAA@PEAVIsolate@12@@Z
  ??0StackTraceFrameIterator@internal@v8@@QEAA@PEAVIsolate@12@W4StackFrameId@12@@Z
  ??0StackTraceId@API@Runtime@protocol@v8_inspector@@QEAA@$$QEAV01234@@Z
  ??0StackTraceId@API@Runtime@protocol@v8_inspector@@QEAA@AEBV01234@@Z
  ??0StackTraceId@API@Runtime@protocol@v8_inspector@@QEAA@XZ
  ??0StackTraceIterator@debug@v8@@QEAA@XZ
  ??0StandaloneTestingHeap@testing@cppgc@@QEAA@AEAVHeapHandle@2@@Z
  ??0StartupSerializer@internal@v8@@QEAA@PEAVIsolate@12@V?$Flags@W4SerializerFlag@Snapshot@internal@v8@@H@base@2@PEAVReadOnlySerializer@12@PEAVSharedHeapSerializer@12@@Z
  ??0StateValuesAccess@compiler@internal@v8@@QEAA@PEAVNode@123@@Z
  ??0StateValuesCache@compiler@internal@v8@@QEAA@PEAVJSGraph@123@@Z
  ??0StatsCollector@internal@cppgc@@QEAA@PEAVPlatform@2@@Z
  ??0StatsScope@ZoneStats@compiler@internal@v8@@QEAA@PEAV1234@@Z
  ??0StreamedSource@ScriptCompiler@v8@@QEAA@V?$unique_ptr@VExternalSourceStream@ScriptCompiler@v8@@U?$default_delete@VExternalSourceStream@ScriptCompiler@v8@@@std@@@std@@W4Encoding@012@@Z
  ??0StreamingDecoder@wasm@internal@v8@@QEAA@AEBV0123@@Z
  ??0StreamingDecoder@wasm@internal@v8@@QEAA@XZ
  ??0StreamingProcessor@wasm@internal@v8@@QEAA@AEBV0123@@Z
  ??0StreamingProcessor@wasm@internal@v8@@QEAA@XZ
  ??0String16@v8_inspector@@QEAA@PEBD@Z
  ??0String16@v8_inspector@@QEAA@PEBG@Z
  ??0StringBuffer@v8_inspector@@QEAA@AEBV01@@Z
  ??0StringBuffer@v8_inspector@@QEAA@XZ
  ??0StringTable@internal@v8@@QEAA@PEAVIsolate@12@@Z
  ??0StringView@v8_inspector@@QEAA@PEBE_K@Z
  ??0StringView@v8_inspector@@QEAA@PEBG_K@Z
  ??0StringView@v8_inspector@@QEAA@XZ
  ??0StringsStorage@internal@v8@@QEAA@XZ
  ??0StubCache@internal@v8@@QEAA@PEAVIsolate@12@@Z
  ??0SuppressMicrotaskExecutionScope@Isolate@v8@@QEAA@PEAV12@PEAVMicrotaskQueue@2@@Z
  ??0Sweeper@internal@cppgc@@QEAA@AEAVHeapBase@12@@Z
  ??0SwissNameDictionary@internal@v8@@IEAA@_K@Z
  ??0SwissNameDictionary@internal@v8@@QEAA@XZ
  ??0SwitchBuilder@interpreter@internal@v8@@QEAA@PEAVBytecodeArrayBuilder@123@PEAVBlockCoverageBuilder@123@PEAVSwitchStatement@23@HPEAVBytecodeJumpTable@123@@Z
  ??0Symbolizer@internal@v8@@QEAA@PEAVCodeMap@12@@Z
  ??0SyncStreamingDecoder@wasm@internal@v8@@QEAA@$$QEAV0123@@Z
  ??0SyncStreamingDecoder@wasm@internal@v8@@QEAA@AEBV0123@@Z
  ??0SyncStreamingDecoder@wasm@internal@v8@@QEAA@PEAVIsolate@23@AEBVWasmFeatures@123@V?$Handle@VContext@internal@v8@@@23@PEBDV?$shared_ptr@VCompilationResultResolver@wasm@internal@v8@@@std@@@Z
  ??0Thread@base@v8@@QEAA@AEBVOptions@012@@Z
  ??0ThreadTicks@base@v8@@AEAA@_J@Z
  ??0ThreadTicks@base@v8@@QEAA@XZ
  ??0ThrowOnJavascriptExecution@internal@v8@@QEAA@PEAVIsolate@12@@Z
  ??0TickSample@internal@v8@@QEAA@XZ
  ??0Time@base@v8@@AEAA@_J@Z
  ??0Time@base@v8@@QEAA@XZ
  ??0TimeDelta@base@v8@@AEAA@_J@Z
  ??0TimeDelta@base@v8@@QEAA@XZ
  ??0TimeTicks@base@v8@@AEAA@_J@Z
  ??0TimeTicks@base@v8@@QEAA@XZ
  ??0TopLevelLiveRange@compiler@internal@v8@@QEAA@HW4MachineRepresentation@23@@Z
  ??0TracedGlobalHandleVisitor@EmbedderHeapTracer@v8@@QEAA@AEBV012@@Z
  ??0TracedGlobalHandleVisitor@EmbedderHeapTracer@v8@@QEAA@XZ
  ??0TracedValue@tracing@v8@@AEAA@XZ
  ??0TransitionsAccessor@internal@v8@@QEAA@PEAVIsolate@12@VMap@12@_N@Z
  ??0TryCatch@v8@@QEAA@PEAVIsolate@1@@Z
  ??0TryCatchBuilder@interpreter@internal@v8@@QEAA@PEAVBytecodeArrayBuilder@123@PEAVBlockCoverageBuilder@123@PEAVTryCatchStatement@23@W4CatchPrediction@HandlerTable@23@@Z
  ??0TryFinallyBuilder@interpreter@internal@v8@@QEAA@PEAVBytecodeArrayBuilder@123@PEAVBlockCoverageBuilder@123@PEAVTryFinallyStatement@23@W4CatchPrediction@HandlerTable@23@@Z
  ??0TurboAssembler@internal@v8@@QEAA@PEAVIsolate@12@AEBUAssemblerOptions@12@W4CodeObjectRequired@12@V?$unique_ptr@VAssemblerBuffer@internal@v8@@U?$default_delete@VAssemblerBuffer@internal@v8@@@std@@@std@@@Z
  ??0TurboAssembler@internal@v8@@QEAA@PEAVIsolate@12@W4CodeObjectRequired@12@V?$unique_ptr@VAssemblerBuffer@internal@v8@@U?$default_delete@VAssemblerBuffer@internal@v8@@@std@@@std@@@Z
  ??0TurboAssemblerBase@internal@v8@@QEAA@PEAVIsolate@12@AEBUAssemblerOptions@12@W4CodeObjectRequired@12@V?$unique_ptr@VAssemblerBuffer@internal@v8@@U?$default_delete@VAssemblerBuffer@internal@v8@@@std@@@std@@@Z
  ??0TurboAssemblerBase@internal@v8@@QEAA@PEAVIsolate@12@W4CodeObjectRequired@12@V?$unique_ptr@VAssemblerBuffer@internal@v8@@U?$default_delete@VAssemblerBuffer@internal@v8@@@std@@@std@@@Z
  ??0Type@compiler@internal@v8@@AEAA@PEAVTypeBase@123@@Z
  ??0Type@compiler@internal@v8@@AEAA@_K@Z
  ??0Type@compiler@internal@v8@@QEAA@XZ
  ??0TypeCache@compiler@internal@v8@@QEAA@XZ
  ??0TypeNarrowingReducer@compiler@internal@v8@@QEAA@PEAVEditor@AdvancedReducer@123@PEAVJSGraph@123@PEAVJSHeapBroker@123@@Z
  ??0TypeProfile@debug@v8@@AEAA@V?$shared_ptr@VTypeProfile@internal@v8@@@std@@@Z
  ??0TypeProfile@debug@v8@@QEAA@$$QEAV012@@Z
  ??0TypedOptimization@compiler@internal@v8@@QEAA@PEAVEditor@AdvancedReducer@123@PEAVCompilationDependencies@123@PEAVJSGraph@123@PEAVJSHeapBroker@123@@Z
  ??0TypedSlotSet@internal@v8@@QEAA@$$QEAV012@@Z
  ??0TypedSlotSet@internal@v8@@QEAA@AEBV012@@Z
  ??0TypedSlotSet@internal@v8@@QEAA@_K@Z
  ??0TypedSlots@internal@v8@@QEAA@AEBV012@@Z
  ??0TypedSlots@internal@v8@@QEAA@XZ
  ??0Typer@compiler@internal@v8@@QEAA@PEAVJSHeapBroker@123@V?$Flags@W4Flag@Typer@compiler@internal@v8@@H@base@3@PEAVGraph@123@PEAVTickCounter@23@@Z
  ??0UnicodeRangeSplitter@internal@v8@@QEAA@PEAV?$ZoneList@VCharacterRange@internal@v8@@@12@@Z
  ??0UnifiedHeapMarkingVerifier@internal@v8@@QEAA@AEAVHeapBase@1cppgc@@W4CollectionType@MarkingConfig@MarkerBase@14@@Z
  ??0UnifiedHeapMarkingVisitorBase@internal@v8@@QEAA@AEAVHeapBase@1cppgc@@AEAVBasicMarkingState@14@AEAVUnifiedHeapMarkingState@12@@Z
  ??0UnifiedHeapMarkingVisitorBase@internal@v8@@QEAA@AEBV012@@Z
  ??0Unlocker@v8@@QEAA@PEAVIsolate@1@@Z
  ??0UnoptimizedCompilationInfo@internal@v8@@QEAA@$$QEAV012@@Z
  ??0UnoptimizedCompilationInfo@internal@v8@@QEAA@AEBV012@@Z
  ??0UnoptimizedCompilationInfo@internal@v8@@QEAA@PEAVZone@12@PEAVParseInfo@12@PEAVFunctionLiteral@12@@Z
  ??0UnoptimizedCompileFlags@internal@v8@@AEAA@PEAVIsolate@12@H@Z
  ??0UnoptimizedCompileState@internal@v8@@QEAA@XZ
  ??0UsePosition@compiler@internal@v8@@QEAA@VLifetimePosition@123@PEAVInstructionOperand@123@PEAXW4UsePositionHintType@123@@Z
  ??0Uses@Node@compiler@internal@v8@@QEAA@PEAV1234@@Z
  ??0Utf8Decoder@internal@v8@@QEAA@AEBV?$Vector@$$CBE@base@2@@Z
  ??0Utf8Value@String@v8@@QEAA@PEAVIsolate@2@V?$Local@VValue@v8@@@2@@Z
  ??0V8ContextInfo@v8_inspector@@QEAA@V?$Local@VContext@v8@@@v8@@HVStringView@1@@Z
  ??0V8DebuggerId@v8_inspector@@AEAA@U?$pair@_J_J@std@@@Z
  ??0V8DebuggerId@v8_inspector@@QEAA@XZ
  ??0V8HeapExplorer@internal@v8@@QEAA@PEAVHeapSnapshot@12@PEAVSnapshottingProgressReportingInterface@12@PEAVObjectNameResolver@HeapProfiler@2@@Z
  ??0V8Inspector@v8_inspector@@QEAA@AEBV01@@Z
  ??0V8Inspector@v8_inspector@@QEAA@XZ
  ??0V8InspectorClient@v8_inspector@@QEAA@AEBV01@@Z
  ??0V8InspectorClient@v8_inspector@@QEAA@XZ
  ??0V8InspectorImpl@v8_inspector@@QEAA@PEAVIsolate@v8@@PEAVV8InspectorClient@1@@Z
  ??0V8InspectorSession@v8_inspector@@QEAA@AEBV01@@Z
  ??0V8InspectorSession@v8_inspector@@QEAA@XZ
  ??0V8StackTrace@v8_inspector@@QEAA@AEBV01@@Z
  ??0V8StackTrace@v8_inspector@@QEAA@XZ
  ??0V8StackTraceId@v8_inspector@@QEAA@VStringView@1@@Z
  ??0V8StackTraceId@v8_inspector@@QEAA@XZ
  ??0V8StackTraceId@v8_inspector@@QEAA@_KU?$pair@_J_J@std@@@Z
  ??0V8StackTraceId@v8_inspector@@QEAA@_KU?$pair@_J_J@std@@_N@Z
  ??0Value@String@v8@@QEAA@PEAVIsolate@2@V?$Local@VValue@v8@@@2@@Z
  ??0ValueDeserializer@v8@@QEAA@PEAVIsolate@1@PEBE_K@Z
  ??0ValueDeserializer@v8@@QEAA@PEAVIsolate@1@PEBE_KPEAVDelegate@01@@Z
  ??0ValueNumberingReducer@compiler@internal@v8@@QEAA@AEBV0123@@Z
  ??0ValueNumberingReducer@compiler@internal@v8@@QEAA@PEAVZone@23@0@Z
  ??0ValueSerializer@v8@@QEAA@PEAVIsolate@1@@Z
  ??0ValueSerializer@v8@@QEAA@PEAVIsolate@1@PEAVDelegate@01@@Z
  ??0VirtualAddressSpace@base@v8@@QEAA@AEBV012@@Z
  ??0VirtualAddressSpace@base@v8@@QEAA@XZ
  ??0VirtualAddressSubspace@base@v8@@AEAA@VAddressSpaceReservation@12@PEAVVirtualAddressSpaceBase@12@W4PagePermissions@2@@Z
  ??0VirtualMemory@internal@cppgc@@QEAA@$$QEAV012@@Z
  ??0VirtualMemory@internal@cppgc@@QEAA@PEAVPageAllocator@v8@@_K1PEAX@Z
  ??0VirtualMemory@internal@cppgc@@QEAA@XZ
  ??0VirtualMemory@internal@v8@@QEAA@PEAVPageAllocator@2@_KPEAX1W4JitPermission@012@@Z
  ??0VirtualMemory@internal@v8@@QEAA@XZ
  ??0Visitor@cppgc@@QEAA@AEBV01@@Z
  ??0Visitor@cppgc@@QEAA@VKey@01@@Z
  ??0VoidDescriptor@internal@v8@@IEAA@W4Key@CallDescriptors@12@@Z
  ??0VoidDescriptor@internal@v8@@QEAA@XZ
  ??0WasmCode@wasm@internal@v8@@AEAA@PEAVNativeModule@123@HV?$Vector@E@base@3@HIHHHHHV?$Vector@$$CBE@63@22W4Kind@0123@W4ExecutionTier@123@W4ForDebugging@123@@Z
  ??0WasmCodeManager@wasm@internal@v8@@QEAA@XZ
  ??0WasmCodeRefScope@wasm@internal@v8@@QEAA@XZ
  ??0WasmCompilationUnit@wasm@internal@v8@@QEAA@HW4ExecutionTier@123@W4ForDebugging@123@@Z
  ??0WasmDebugSymbols@wasm@internal@v8@@QEAA@XZ
  ??0WasmEngine@wasm@internal@v8@@QEAA@XZ
  ??0WasmError@wasm@internal@v8@@QEAA@$$QEAV0123@@Z
  ??0WasmError@wasm@internal@v8@@QEAA@AEBV0123@@Z
  ??0WasmError@wasm@internal@v8@@QEAA@IPEBDZZ
  ??0WasmError@wasm@internal@v8@@QEAA@IV?$basic_string@DU?$char_traits@D@std@@V?$allocator@D@2@@std@@@Z
  ??0WasmError@wasm@internal@v8@@QEAA@XZ
  ??0WasmExceptionPackage@internal@v8@@IEAA@_K@Z
  ??0WasmExceptionPackage@internal@v8@@QEAA@XZ
  ??0WasmFunctionBuilder@wasm@internal@v8@@AEAA@PEAVWasmModuleBuilder@123@@Z
  ??0WasmFunctionBuilder@wasm@internal@v8@@QEAA@$$QEAV0123@@Z
  ??0WasmFunctionBuilder@wasm@internal@v8@@QEAA@AEBV0123@@Z
  ??0WasmGraphBuilder@compiler@internal@v8@@IEAA@PEAUCompilationEnv@wasm@23@PEAVZone@23@PEAVMachineGraph@123@PEBV?$Signature@VValueType@wasm@internal@v8@@@23@PEAVSourcePositionTable@123@W4Parameter0Mode@0123@PEAVIsolate@23@@Z
  ??0WasmGraphBuilder@compiler@internal@v8@@QEAA@PEAUCompilationEnv@wasm@23@PEAVZone@23@PEAVMachineGraph@123@PEBV?$Signature@VValueType@wasm@internal@v8@@@23@PEAVSourcePositionTable@123@@Z
  ??0WasmInstanceObject@internal@v8@@IEAA@_K@Z
  ??0WasmInstanceObject@internal@v8@@QEAA@XZ
  ??0WasmModule@wasm@internal@v8@@QEAA@V?$unique_ptr@VZone@internal@v8@@U?$default_delete@VZone@internal@v8@@@std@@@std@@@Z
  ??0WasmModuleBuilder@wasm@internal@v8@@QEAA@PEAVZone@23@@Z
  ??0WasmModuleObjectBuilderStreaming@v8@@AEAA@$$QEAV01@@Z
  ??0WasmModuleObjectBuilderStreaming@v8@@QEAA@PEAVIsolate@1@@Z
  ??0WasmModuleSourceMap@wasm@internal@v8@@QEAA@$$QEAV0123@@Z
  ??0WasmModuleSourceMap@wasm@internal@v8@@QEAA@AEBV0123@@Z
  ??0WasmModuleSourceMap@wasm@internal@v8@@QEAA@PEAVIsolate@3@V?$Local@VString@v8@@@3@@Z
  ??0WasmSerializer@wasm@internal@v8@@QEAA@PEAVNativeModule@123@@Z
  ??0WasmStreaming@v8@@QEAA@V?$unique_ptr@VWasmStreamingImpl@WasmStreaming@v8@@U?$default_delete@VWasmStreamingImpl@WasmStreaming@v8@@@std@@@std@@@Z
  ??0WeakCodeRegistry@internal@v8@@QEAA@AEBV012@@Z
  ??0WeakCodeRegistry@internal@v8@@QEAA@PEAVIsolate@12@@Z
  ??0WebDriverValue@v8_inspector@@QEAA@VStringView@1@V?$MaybeLocal@VValue@v8@@@v8@@@Z
  ??0WebSnapshotDeserializer@internal@v8@@AEAA@PEAVIsolate@12@V?$Handle@VObject@internal@v8@@@12@V?$Vector@$$CBE@base@2@@Z
  ??0WebSnapshotDeserializer@internal@v8@@QEAA@PEAVIsolate@12@V?$Handle@VScript@internal@v8@@@12@@Z
  ??0WebSnapshotDeserializer@internal@v8@@QEAA@PEAVIsolate@2@PEBE_K@Z
  ??0WebSnapshotSerializer@internal@v8@@QEAA@PEAVIsolate@12@@Z
  ??0WebSnapshotSerializer@internal@v8@@QEAA@PEAVIsolate@2@@Z
  ??0Zone@internal@v8@@QEAA@PEAVAccountingAllocator@12@PEBD_N@Z
  ??0ZonePreparseData@internal@v8@@QEAA@PEAVZone@12@PEAV?$Vector@E@base@2@H@Z
  ??0ZoneStats@compiler@internal@v8@@QEAA@PEAVAccountingAllocator@23@@Z
  ??0iterator@JumpTableTargetOffsets@interpreter@internal@v8@@QEAA@HHHPEBVBytecodeArrayIterator@234@@Z
  ??0iterator@StateValuesAccess@compiler@internal@v8@@AEAA@PEAVNode@234@@Z
  ??0iterator@StateValuesAccess@compiler@internal@v8@@AEAA@XZ
  ??1?$CanonicalHandleScopeForOptimization@VOptimizedCompilationInfo@internal@v8@@@internal@v8@@QEAA@XZ
  ??1?$Deserializer@VIsolate@internal@v8@@@internal@v8@@UEAA@XZ
  ??1?$Deserializer@VLocalIsolate@internal@v8@@@internal@v8@@UEAA@XZ
  ??1?$ParserBase@VParser@internal@v8@@@internal@v8@@QEAA@XZ
  ??1?$PerThreadAssertScope@$00$00@internal@v8@@QEAA@XZ
  ??1?$PerThreadAssertScope@$00$0A@@internal@v8@@QEAA@XZ
  ??1?$PerThreadAssertScope@$01$00@internal@v8@@QEAA@XZ
  ??1?$PerThreadAssertScope@$01$0A@@internal@v8@@QEAA@XZ
  ??1?$PerThreadAssertScope@$02$00@internal@v8@@QEAA@XZ
  ??1?$PerThreadAssertScope@$02$0A@@internal@v8@@QEAA@XZ
  ??1?$PerThreadAssertScope@$03$00@internal@v8@@QEAA@XZ
  ??1?$PerThreadAssertScope@$03$0A@@internal@v8@@QEAA@XZ
  ??1?$PerThreadAssertScope@$04$00@internal@v8@@QEAA@XZ
  ??1?$PerThreadAssertScope@$04$0A@@internal@v8@@QEAA@XZ
  ??1?$PerThreadAssertScope@$05$0A@@internal@v8@@QEAA@XZ
  ??1?$PerThreadAssertScope@$0A@$00@internal@v8@@QEAA@XZ
  ??1?$PerThreadAssertScope@$0A@$0A@@internal@v8@@QEAA@XZ
  ??1?$SharedTurboAssemblerBase@VTurboAssembler@internal@v8@@@internal@v8@@UEAA@XZ
  ??1?$ZoneVector@PEAVMoveOperands@compiler@internal@v8@@@internal@v8@@QEAA@XZ
  ??1?$basic_ios@DU?$char_traits@D@std@@@std@@UEAA@XZ
  ??1?$basic_ostream@DU?$char_traits@D@std@@@std@@UEAA@XZ
  ??1?$basic_streambuf@DU?$char_traits@D@std@@@std@@UEAA@XZ
  ??1?$vector@PEAVMoveOperands@compiler@internal@v8@@V?$ZoneAllocator@PEAVMoveOperands@compiler@internal@v8@@@34@@std@@QEAA@XZ
  ??1?$vector@UCpuProfileDeoptFrame@v8@@V?$allocator@UCpuProfileDeoptFrame@v8@@@std@@@std@@QEAA@XZ
  ??1?$vector@UCpuProfileDeoptInfo@v8@@V?$allocator@UCpuProfileDeoptInfo@v8@@@std@@@std@@QEAA@XZ
  ??1AccountingAllocator@internal@v8@@UEAA@XZ
  ??1ActivityControl@v8@@UEAA@XZ
  ??1AddTypeAssertionsReducer@compiler@internal@v8@@UEAA@XZ
  ??1AddressToTraceMap@internal@v8@@QEAA@XZ
  ??1AlignedCachedData@internal@v8@@QEAA@XZ
  ??1AllocationProfile@v8@@UEAA@XZ
  ??1Allocator@ArrayBuffer@v8@@UEAA@XZ
  ??1AllowCompilation@internal@v8@@QEAA@XZ
  ??1AllowDeoptimization@internal@v8@@QEAA@XZ
  ??1AllowExceptions@internal@v8@@QEAA@XZ
  ??1AllowJavascriptExecution@internal@v8@@QEAA@XZ
  ??1AllowJavascriptExecutionScope@Isolate@v8@@QEAA@XZ
  ??1ArrayBufferAllocator@node@@UEAA@XZ
  ??1AsmCallableType@wasm@internal@v8@@MEAA@XZ
  ??1AsmFunctionType@wasm@internal@v8@@UEAA@XZ
  ??1AsmJsOffsetInformation@wasm@internal@v8@@QEAA@XZ
  ??1AsmJsScanner@internal@v8@@QEAA@XZ
  ??1AsmOverloadedFunctionType@wasm@internal@v8@@UEAA@XZ
  ??1Assembler@internal@v8@@UEAA@XZ
  ??1AssemblerBase@internal@v8@@UEAA@XZ
  ??1AsyncResource@node@@UEAA@XZ
  ??1AsyncStreamingDecoder@wasm@internal@v8@@UEAA@XZ
  ??1BackgroundCompileTask@internal@v8@@QEAA@XZ
  ??1BackgroundDeserializeTask@internal@v8@@QEAA@XZ
  ??1BackingStore@internal@v8@@QEAA@XZ
  ??1BackingStore@v8@@QEAA@XZ
  ??1BackupIncumbentScope@Context@v8@@QEAA@XZ
  ??1BaseSpace@internal@cppgc@@UEAA@XZ
  ??1BaseSpace@internal@v8@@MEAA@XZ
  ??1BasicBlock@compiler@internal@v8@@QEAA@XZ
  ??1Binary@protocol@v8_inspector@@QEAA@XZ
  ??1BlockBuilder@interpreter@internal@v8@@UEAA@XZ
  ??1BlockData@Coverage@debug@v8@@QEAA@XZ
  ??1BoundedPageAllocator@base@v8@@UEAA@XZ
  ??1BranchConditionDuplicator@compiler@internal@v8@@QEAA@XZ
  ??1BranchElimination@compiler@internal@v8@@UEAA@XZ
  ??1BranchHintMap@wasm@internal@v8@@QEAA@XZ
  ??1BreakableControlFlowBuilder@interpreter@internal@v8@@UEAA@XZ
  ??1BytecodeAnalysis@compiler@internal@v8@@QEAA@XZ
  ??1BytecodeArrayBuilder@interpreter@internal@v8@@QEAA@XZ
  ??1BytecodeArrayIterator@interpreter@internal@v8@@QEAA@XZ
  ??1BytecodeArrayRandomIterator@interpreter@internal@v8@@QEAA@XZ
  ??1BytecodeArrayWriter@interpreter@internal@v8@@QEAA@XZ
  ??1BytecodeIterator@wasm@internal@v8@@UEAA@XZ
  ??1BytecodeLabels@interpreter@internal@v8@@QEAA@XZ
  ??1BytecodeOffsetIterator@baseline@internal@v8@@QEAA@XZ
  ??1BytecodeRegisterOptimizer@interpreter@internal@v8@@UEAA@XZ
  ??1CachedData@ScriptCompiler@v8@@QEAA@XZ
  ??1CallbackScope@AsyncResource@node@@QEAA@XZ
  ??1CallbackScope@node@@QEAA@XZ
  ??1Cancelable@internal@v8@@UEAA@XZ
  ??1CancelableTask@internal@v8@@UEAA@XZ
  ??1CancelableTaskManager@internal@v8@@QEAA@XZ
  ??1CanonicalHandleScope@internal@v8@@QEAA@XZ
  ??1Channel@V8Inspector@v8_inspector@@UEAA@XZ
  ??1CheckpointElimination@compiler@internal@v8@@UEAA@XZ
  ??1ClassScope@internal@v8@@QEAA@XZ
  ??1CodeAssembler@compiler@internal@v8@@QEAA@XZ
  ??1CodeAssemblerLabel@compiler@internal@v8@@QEAA@XZ
  ??1CodeAssemblerState@compiler@internal@v8@@QEAA@XZ
  ??1CodeAssemblerVariable@compiler@internal@v8@@IEAA@XZ
  ??1CodeEntryStorage@internal@v8@@QEAA@XZ
  ??1CodeEventHandler@v8@@UEAA@XZ
  ??1CodeEventLogger@internal@v8@@UEAA@XZ
  ??1CodeGenerator@compiler@internal@v8@@UEAA@XZ
  ??1CodeMap@internal@v8@@QEAA@XZ
  ??1CodeObjectRegistry@internal@v8@@QEAA@XZ
  ??1CodeRange@internal@v8@@UEAA@XZ
  ??1CodeSpaceWriteScope@wasm@internal@v8@@QEAA@XZ
  ??1CombinedHeapObjectIterator@internal@v8@@QEAA@XZ
  ??1CommandLineAPIScope@V8InspectorSession@v8_inspector@@UEAA@XZ
  ??1CommonEnvironmentSetup@node@@QEAA@XZ
  ??1CommonOperatorReducer@compiler@internal@v8@@UEAA@XZ
  ??1CompactionSpace@internal@v8@@UEAA@XZ
  ??1Compactor@internal@cppgc@@QEAA@XZ
  ??1CompilationDependencies@compiler@internal@v8@@QEAA@XZ
  ??1CompilationEventCallback@wasm@internal@v8@@UEAA@XZ
  ??1CompilationHandleScope@internal@v8@@QEAA@XZ
  ??1CompilationJob@internal@v8@@UEAA@XZ
  ??1CompilationResultResolver@wasm@internal@v8@@UEAA@XZ
  ??1CompilationState@wasm@internal@v8@@QEAA@XZ
  ??1CompiledWasmModule@v8@@QEAA@XZ
  ??1ConcurrentMarker@internal@cppgc@@UEAA@XZ
  ??1ConcurrentMarkerBase@internal@cppgc@@UEAA@XZ
  ??1ConcurrentMarking@internal@v8@@QEAA@XZ
  ??1ConcurrentMarkingVisitor@internal@cppgc@@UEAA@XZ
  ??1ConcurrentUnifiedHeapMarkingVisitor@internal@v8@@UEAA@XZ
  ??1ConditionVariable@base@v8@@QEAA@XZ
  ??1ConditionalControlFlowBuilder@interpreter@internal@v8@@UEAA@XZ
  ??1ConstantArrayBuilder@interpreter@internal@v8@@QEAA@XZ
  ??1ConstantFoldingReducer@compiler@internal@v8@@UEAA@XZ
  ??1ConsumeCodeCacheTask@ScriptCompiler@v8@@QEAA@XZ
  ??1ContextDeserializer@internal@v8@@UEAA@XZ
  ??1ContextSerializer@internal@v8@@UEAA@XZ
  ??1ControlEquivalence@compiler@internal@v8@@QEAA@XZ
  ??1ControlFlowBuilder@interpreter@internal@v8@@UEAA@XZ
  ??1ControlFlowOptimizer@compiler@internal@v8@@QEAA@XZ
  ??1Coverage@debug@v8@@QEAA@XZ
  ??1CppHeap@internal@v8@@UEAA@XZ
  ??1CppHeap@v8@@UEAA@XZ
  ??1CppHeapCreateParams@v8@@QEAA@XZ
  ??1CpuFeatureScope@internal@v8@@QEAA@XZ
  ??1CpuProfileDeoptInfo@v8@@QEAA@XZ
  ??1CpuProfiler@internal@v8@@QEAA@XZ
  ??1CpuProfilesCollection@internal@v8@@QEAA@XZ
  ??1CpuProfilingOptions@v8@@QEAA@XZ
  ??1CreateParams@Isolate@v8@@QEAA@XZ
  ??1CrossThreadPersistentRegion@internal@cppgc@@QEAA@XZ
  ??1CsaLoadElimination@compiler@internal@v8@@UEAA@XZ
  ??1DateCache@internal@v8@@UEAA@XZ
  ??1DbgStreamBuf@internal@v8@@UEAA@XZ
  ??1DeadCodeElimination@compiler@internal@v8@@UEAA@XZ
  ??1Debug@internal@v8@@AEAA@XZ
  ??1DebugInfo@wasm@internal@v8@@QEAA@XZ
  ??1DeclarationScope@internal@v8@@QEAA@XZ
  ??1DecompressionOptimizer@compiler@internal@v8@@QEAA@XZ
  ??1DefaultEmbedderRootsHandler@internal@v8@@UEAA@XZ
  ??1Delegate@ValueDeserializer@v8@@UEAA@XZ
  ??1Delegate@ValueSerializer@v8@@UEAA@XZ
  ??1DisallowCompilation@internal@v8@@QEAA@XZ
  ??1DisallowDeoptimization@internal@v8@@QEAA@XZ
  ??1DisallowExceptions@internal@v8@@QEAA@XZ
  ??1DisallowGarbageCollectionScope@subtle@cppgc@@QEAA@XZ
  ??1DisallowJavascriptExecution@internal@v8@@QEAA@XZ
  ??1DisallowJavascriptExecutionScope@Isolate@v8@@QEAA@XZ
  ??1DiscardedSamplesDelegate@v8@@UEAA@XZ
  ??1DisjointAllocationPool@wasm@internal@v8@@QEAA@XZ
  ??1Domain@API@Schema@protocol@v8_inspector@@UEAA@XZ
  ??1DumpOnJavascriptExecution@internal@v8@@QEAA@XZ
  ??1EhFrameWriter@internal@v8@@QEAA@XZ
  ??1EmbedderGraph@v8@@UEAA@XZ
  ??1EmbedderHeapTracer@v8@@UEAA@XZ
  ??1EmbedderRootsHandler@v8@@UEAA@XZ
  ??1EmbedderStackStateScope@internal@v8@@QEAA@XZ
  ??1EmbedderState@internal@v8@@QEAA@XZ
  ??1EmbedderStateScope@v8@@QEAA@XZ
  ??1Entry@TypeProfile@debug@v8@@QEAA@XZ
  ??1ErrorThrower@wasm@internal@v8@@QEAA@XZ
  ??1EscapableHandleScope@v8@@QEAA@XZ
  ??1EscapeAnalysis@compiler@internal@v8@@QEAA@XZ
  ??1EscapeAnalysisReducer@compiler@internal@v8@@UEAA@XZ
  ??1Exported@protocol@v8_inspector@@UEAA@XZ
  ??1Extension@v8@@UEAA@XZ
  ??1ExternalMarkingWorklist@MarkingWorklists@internal@cppgc@@QEAA@XZ
  ??1ExternalOneByteStringResource@String@v8@@UEAA@XZ
  ??1ExternalResourceVisitor@v8@@UEAA@XZ
  ??1ExternalSourceStream@ScriptCompiler@v8@@UEAA@XZ
  ??1ExternalStringResource@String@v8@@UEAA@XZ
  ??1ExternalStringResourceBase@String@v8@@UEAA@XZ
  ??1FeedbackVectorSpec@internal@v8@@QEAA@XZ
  ??1FlatStringReader@internal@v8@@UEAA@XZ
  ??1FrameSummary@internal@v8@@QEAA@XZ
  ??1FreeListMany@internal@v8@@UEAA@XZ
  ??1FreeListManyCached@internal@v8@@UEAA@XZ
  ??1FreeListManyCachedFastPath@internal@v8@@UEAA@XZ
  ??1FreeListManyCachedOrigin@internal@v8@@UEAA@XZ
  ??1FunctionData@Coverage@debug@v8@@QEAA@XZ
  ??1GCInfoTable@internal@cppgc@@QEAA@XZ
  ??1GCInvoker@internal@cppgc@@QEAA@XZ
  ??1GCTracer@internal@v8@@QEAA@XZ
  ??1GlobalHandles@internal@v8@@QEAA@XZ
  ??1GlobalSafepointScope@internal@v8@@QEAA@XZ
  ??1Graph@compiler@internal@v8@@QEAA@XZ
  ??1GraphAssembler@compiler@internal@v8@@UEAA@XZ
  ??1GraphReducer@compiler@internal@v8@@UEAA@XZ
  ??1GraphTrimmer@compiler@internal@v8@@QEAA@XZ
  ??1HandleScope@v8@@QEAA@XZ
  ??1HandlerTableBuilder@interpreter@internal@v8@@QEAA@XZ
  ??1Heap@cppgc@@UEAA@XZ
  ??1Heap@internal@cppgc@@UEAA@XZ
  ??1HeapBase@internal@cppgc@@UEAA@XZ
  ??1HeapGrowing@internal@cppgc@@QEAA@XZ
  ??1HeapObjectIterator@internal@v8@@QEAA@XZ
  ??1IdentityMapBase@internal@v8@@MEAA@XZ
  ??1IncrementalMarking@internal@v8@@QEAA@XZ
  ??1IndexGenerator@internal@v8@@QEAA@XZ
  ??1InitializationResult@node@@UEAA@XZ
  ??1Inspectable@V8InspectorSession@v8_inspector@@UEAA@XZ
  ??1InstantiationResultResolver@wasm@internal@v8@@UEAA@XZ
  ??1InstructionBlock@compiler@internal@v8@@QEAA@XZ
  ??1InstructionSelector@compiler@internal@v8@@QEAA@XZ
  ??1InstructionSequence@compiler@internal@v8@@QEAA@XZ
  ??1Int64Lowering@compiler@internal@v8@@QEAA@XZ
  ??1Int64LoweringSpecialCase@compiler@internal@v8@@QEAA@XZ
  ??1InvalidatedSlotsCleanup@internal@v8@@QEAA@XZ
  ??1InvalidatedSlotsFilter@internal@v8@@QEAA@XZ
  ??1Isolate@internal@v8@@AEAA@XZ
  ??1IsolateAllocator@internal@v8@@QEAA@XZ
  ??1JSCallReducer@compiler@internal@v8@@UEAA@XZ
  ??1JSContextSpecialization@compiler@internal@v8@@UEAA@XZ
  ??1JSCreateLowering@compiler@internal@v8@@UEAA@XZ
  ??1JSGraph@compiler@internal@v8@@QEAA@XZ
  ??1JSGraphAssembler@compiler@internal@v8@@UEAA@XZ
  ??1JSHeapBroker@compiler@internal@v8@@QEAA@XZ
  ??1JSIntrinsicLowering@compiler@internal@v8@@UEAA@XZ
  ??1JSNativeContextSpecialization@compiler@internal@v8@@UEAA@XZ
  ??1JSToWasmWrapperCompilationUnit@wasm@internal@v8@@QEAA@XZ
  ??1JSTypedLowering@compiler@internal@v8@@UEAA@XZ
  ??1JumpTableAssembler@wasm@internal@v8@@UEAA@XZ
  ??1LargeObjectSpace@internal@v8@@UEAA@XZ
  ??1LargePage@internal@cppgc@@AEAA@XZ
  ??1LargePageMemoryRegion@internal@cppgc@@UEAA@XZ
  ??1LargePageSpace@internal@cppgc@@UEAA@XZ
  ??1LazilyGeneratedNames@wasm@internal@v8@@QEAA@XZ
  ??1LazyCompileDispatcher@internal@v8@@QEAA@XZ
  ??1LoadElimination@compiler@internal@v8@@UEAA@XZ
  ??1Local@MarkingWorklists@internal@v8@@QEAA@XZ
  ??1LocalDeclEncoder@wasm@internal@v8@@QEAA@XZ
  ??1LocalEmbedderHeapTracer@internal@v8@@QEAA@XZ
  ??1LocalHeap@internal@v8@@QEAA@XZ
  ??1LocalIsolate@internal@v8@@QEAA@XZ
  ??1Locker@v8@@QEAA@XZ
  ??1LoopBuilder@interpreter@internal@v8@@UEAA@XZ
  ??1LoopInfo@compiler@internal@v8@@QEAA@XZ
  ??1MachineGraph@compiler@internal@v8@@QEAA@XZ
  ??1MachineOperatorReducer@compiler@internal@v8@@UEAA@XZ
  ??1MacroAssembler@internal@v8@@UEAA@XZ
  ??1Marker@internal@cppgc@@UEAA@XZ
  ??1MarkerBase@internal@cppgc@@UEAA@XZ
  ??1MarkingVerifier@internal@cppgc@@UEAA@XZ
  ??1MarkingVerifierBase@internal@cppgc@@UEAA@XZ
  ??1MarkingVisitorBase@internal@cppgc@@UEAA@XZ
  ??1MarkingWorklists@internal@v8@@QEAA@XZ
  ??1MeasureMemoryDelegate@internal@v8@@UEAA@XZ
  ??1MeasureMemoryDelegate@v8@@UEAA@XZ
  ??1MemoryMappedFile@OS@base@v8@@UEAA@XZ
  ??1MemoryReducer@internal@v8@@QEAA@XZ
  ??1MicrotaskQueue@internal@v8@@UEAA@XZ
  ??1MicrotaskQueue@v8@@UEAA@XZ
  ??1MicrotasksScope@v8@@QEAA@XZ
  ??1MoveOptimizer@compiler@internal@v8@@QEAA@XZ
  ??1MultiIsolatePlatform@node@@UEAA@XZ
  ??1MutatorMarkingVisitor@internal@cppgc@@UEAA@XZ
  ??1MutatorMinorGCMarkingVisitor@internal@v8@@UEAA@XZ
  ??1MutatorUnifiedHeapMarkingVisitor@internal@v8@@UEAA@XZ
  ??1Mutex@base@v8@@QEAA@XZ
  ??1NameConverter@disasm@@UEAA@XZ
  ??1NameProvider@cppgc@@UEAA@XZ
  ??1NativeContextStats@internal@v8@@QEAA@XZ
  ??1NativeModule@wasm@internal@v8@@QEAA@XZ
  ??1NativeModuleDeserializer@wasm@internal@v8@@QEAA@XZ
  ??1NewSpace@internal@v8@@UEAA@XZ
  ??1NoDumpOnJavascriptExecution@internal@v8@@QEAA@XZ
  ??1NoGarbageCollectionScope@subtle@cppgc@@QEAA@XZ
  ??1NoThrowOnJavascriptExecution@internal@v8@@QEAA@XZ
  ??1NodeOriginTable@compiler@internal@v8@@QEAA@XZ
  ??1NormalPage@internal@cppgc@@AEAA@XZ
  ??1NormalPageMemoryPool@internal@cppgc@@QEAA@XZ
  ??1NormalPageMemoryRegion@internal@cppgc@@UEAA@XZ
  ??1NormalPageSpace@internal@cppgc@@UEAA@XZ
  ??1OFStream@internal@v8@@UEAA@XZ
  ??1OFStreamBase@internal@v8@@UEAA@XZ
  ??1ObjectIterator@internal@v8@@UEAA@XZ
  ??1OldToNewRememberedSet@internal@cppgc@@QEAA@XZ
  ??1OperationsBarrier@internal@v8@@QEAA@XZ
  ??1Operator@compiler@internal@v8@@UEAA@XZ
  ??1OptimizedCompilationInfo@internal@v8@@QEAA@XZ
  ??1OptimizingCompileDispatcher@internal@v8@@QEAA@XZ
  ??1OutputStream@v8@@UEAA@XZ
  ??1OverrideEmbedderStackStateScope@testing@cppgc@@QEAA@XZ
  ??1PageAllocator@base@v8@@UEAA@XZ
  ??1PageBackend@internal@cppgc@@QEAA@XZ
  ??1PageMemoryRegion@internal@cppgc@@UEAA@XZ
  ??1PageMemoryRegionTree@internal@cppgc@@QEAA@XZ
  ??1PagedSpace@internal@v8@@UEAA@XZ
  ??1PagedSpaceObjectIterator@internal@v8@@UEAA@XZ
  ??1ParallelMove@compiler@internal@v8@@QEAA@XZ
  ??1ParseInfo@internal@v8@@QEAA@XZ
  ??1Parser@internal@v8@@QEAA@XZ
  ??1PauseAllocationObserversScope@internal@v8@@QEAA@XZ
  ??1PersistentHandleVisitor@v8@@UEAA@XZ
  ??1PersistentHandles@internal@v8@@QEAA@XZ
  ??1PersistentHandlesScope@internal@v8@@QEAA@XZ
  ??1PersistentRegion@internal@cppgc@@QEAA@XZ
  ??1PersistentRegionBase@internal@cppgc@@QEAA@XZ
  ??1PersistentRegionLock@internal@cppgc@@QEAA@XZ
  ??1PhiInstruction@compiler@internal@v8@@QEAA@XZ
  ??1Platform@cppgc@@UEAA@XZ
  ??1PreparseDataBuilder@internal@v8@@QEAA@XZ
  ??1ProcessingScope@LocalEmbedderHeapTracer@internal@v8@@QEAA@XZ
  ??1ProfileNode@internal@v8@@QEAA@XZ
  ??1ProfileTree@internal@v8@@QEAA@XZ
  ??1ProfilerCodeObserver@internal@v8@@UEAA@XZ
  ??1ProfilerEventsProcessor@internal@v8@@UEAA@XZ
  ??1ProfilerListener@internal@v8@@UEAA@XZ
  ??1PropertyDescriptor@v8@@QEAA@XZ
  ??1PropertyIterator@debug@v8@@UEAA@XZ
  ??1RawHeap@internal@cppgc@@QEAA@XZ
  ??1RawMachineAssembler@compiler@internal@v8@@QEAA@XZ
  ??1RawMachineLabel@compiler@internal@v8@@QEAA@XZ
  ??1ReadOnlySerializer@internal@v8@@UEAA@XZ
  ??1ReadOnlySpace@internal@v8@@UEAA@XZ
  ??1Recorder@metrics@v8@@UEAA@XZ
  ??1RecursiveMutex@base@v8@@QEAA@XZ
  ??1Reducer@compiler@internal@v8@@UEAA@XZ
  ??1RedundancyElimination@compiler@internal@v8@@UEAA@XZ
  ??1RegExpBytecodeGenerator@internal@v8@@UEAA@XZ
  ??1RegExpMacroAssemblerX64@internal@v8@@UEAA@XZ
  ??1RegionAllocator@base@v8@@QEAA@XZ
  ??1RegisterConfiguration@internal@v8@@UEAA@XZ
  ??1RegisterState@v8@@QEAA@XZ
  ??1RemoteObject@API@Runtime@protocol@v8_inspector@@UEAA@XZ
  ??1ReusableUnoptimizedCompileState@internal@v8@@QEAA@XZ
  ??1SafeForTerminationScope@Isolate@v8@@QEAA@XZ
  ??1SafepointScope@internal@v8@@QEAA@XZ
  ??1Sampler@sampler@v8@@UEAA@XZ
  ??1SamplingEventsProcessor@internal@v8@@UEAA@XZ
  ??1SaveAndSwitchContext@internal@v8@@QEAA@XZ
  ??1SaveContext@internal@v8@@QEAA@XZ
  ??1Scanner@internal@v8@@QEAA@XZ
  ??1Schedule@compiler@internal@v8@@QEAA@XZ
  ??1ScheduledErrorThrower@wasm@internal@v8@@QEAA@XZ
  ??1Scheduler@compiler@internal@v8@@QEAA@XZ
  ??1Scope@GCTracer@internal@v8@@QEAA@XZ
  ??1Scope@Isolate@v8@@QEAA@XZ
  ??1Scope@internal@v8@@QEAA@XZ
  ??1ScopeIterator@debug@v8@@UEAA@XZ
  ??1ScopedExceptionHandler@compiler@internal@v8@@QEAA@XZ
  ??1ScriptData@Coverage@debug@v8@@QEAA@XZ
  ??1ScriptData@TypeProfile@debug@v8@@QEAA@XZ
  ??1SealHandleScope@v8@@QEAA@XZ
  ??1SearchMatch@API@Debugger@protocol@v8_inspector@@UEAA@XZ
  ??1Semaphore@base@v8@@QEAA@XZ
  ??1SetupIsolateDelegate@internal@v8@@UEAA@XZ
  ??1SharedHeapSerializer@internal@v8@@UEAA@XZ
  ??1SharedMutex@base@v8@@QEAA@XZ
  ??1SharedTurboAssembler@internal@v8@@UEAA@XZ
  ??1SignatureMap@wasm@internal@v8@@QEAA@XZ
  ??1SimplifiedOperatorReducer@compiler@internal@v8@@UEAA@XZ
  ??1SnapshotCreator@v8@@QEAA@XZ
  ??1SnapshotData@internal@v8@@UEAA@XZ
  ??1SourceIdAssigner@compiler@internal@v8@@QEAA@XZ
  ??1SourcePositionTable@compiler@internal@v8@@QEAA@XZ
  ??1SourcePositionTable@internal@v8@@QEAA@XZ
  ??1SourcePositionTableBuilder@internal@v8@@QEAA@XZ
  ??1Space@internal@v8@@UEAA@XZ
  ??1SpaceIterator@internal@v8@@UEAA@XZ
  ??1StackTrace@API@Runtime@protocol@v8_inspector@@UEAA@XZ
  ??1StackTrace@debug@base@v8@@QEAA@XZ
  ??1StackTraceFrameIterator@internal@v8@@QEAA@XZ
  ??1StackTraceId@API@Runtime@protocol@v8_inspector@@UEAA@XZ
  ??1StackTraceIterator@debug@v8@@UEAA@XZ
  ??1StartupSerializer@internal@v8@@UEAA@XZ
  ??1StateValuesCache@compiler@internal@v8@@QEAA@XZ
  ??1StatsCollector@internal@cppgc@@QEAA@XZ
  ??1StatsScope@ZoneStats@compiler@internal@v8@@QEAA@XZ
  ??1StreamedSource@ScriptCompiler@v8@@QEAA@XZ
  ??1StreamingDecoder@wasm@internal@v8@@UEAA@XZ
  ??1StreamingProcessor@wasm@internal@v8@@UEAA@XZ
  ??1StringBuffer@v8_inspector@@UEAA@XZ
  ??1StringTable@internal@v8@@QEAA@XZ
  ??1StringsStorage@internal@v8@@QEAA@XZ
  ??1SuppressMicrotaskExecutionScope@Isolate@v8@@QEAA@XZ
  ??1Sweeper@internal@cppgc@@QEAA@XZ
  ??1SwitchBuilder@interpreter@internal@v8@@UEAA@XZ
  ??1SyncStreamingDecoder@wasm@internal@v8@@UEAA@XZ
  ??1Thread@base@v8@@UEAA@XZ
  ??1ThrowOnJavascriptExecution@internal@v8@@QEAA@XZ
  ??1TracedGlobalHandleVisitor@EmbedderHeapTracer@v8@@UEAA@XZ
  ??1TracedValue@tracing@v8@@UEAA@XZ
  ??1TryCatch@v8@@QEAA@XZ
  ??1TryCatchBuilder@interpreter@internal@v8@@UEAA@XZ
  ??1TryFinallyBuilder@interpreter@internal@v8@@UEAA@XZ
  ??1TurboAssembler@internal@v8@@UEAA@XZ
  ??1TurboAssemblerBase@internal@v8@@UEAA@XZ
  ??1TypeCache@compiler@internal@v8@@QEAA@XZ
  ??1TypeNarrowingReducer@compiler@internal@v8@@UEAA@XZ
  ??1TypeProfile@debug@v8@@QEAA@XZ
  ??1TypedOptimization@compiler@internal@v8@@UEAA@XZ
  ??1TypedSlotSet@internal@v8@@UEAA@XZ
  ??1TypedSlots@internal@v8@@UEAA@XZ
  ??1Typer@compiler@internal@v8@@QEAA@XZ
  ??1UnifiedHeapMarkingVerifier@internal@v8@@UEAA@XZ
  ??1UnifiedHeapMarkingVisitorBase@internal@v8@@UEAA@XZ
  ??1Unlocker@v8@@QEAA@XZ
  ??1UnoptimizedCompilationInfo@internal@v8@@QEAA@XZ
  ??1UnoptimizedCompileState@internal@v8@@QEAA@XZ
  ??1Utf8Value@String@v8@@QEAA@XZ
  ??1V8HeapExplorer@internal@v8@@UEAA@XZ
  ??1V8Inspector@v8_inspector@@UEAA@XZ
  ??1V8InspectorClient@v8_inspector@@UEAA@XZ
  ??1V8InspectorSession@v8_inspector@@UEAA@XZ
  ??1V8StackTrace@v8_inspector@@UEAA@XZ
  ??1Value@String@v8@@QEAA@XZ
  ??1ValueDeserializer@v8@@QEAA@XZ
  ??1ValueNumberingReducer@compiler@internal@v8@@UEAA@XZ
  ??1ValueSerializer@v8@@QEAA@XZ
  ??1VirtualAddressSpace@base@v8@@UEAA@XZ
  ??1VirtualAddressSubspace@base@v8@@UEAA@XZ
  ??1VirtualMemory@internal@cppgc@@QEAA@XZ
  ??1VirtualMemory@internal@v8@@QEAA@XZ
  ??1Visitor@cppgc@@UEAA@XZ
  ??1WasmCode@wasm@internal@v8@@QEAA@XZ
  ??1WasmCodeManager@wasm@internal@v8@@QEAA@XZ
  ??1WasmCodeRefScope@wasm@internal@v8@@QEAA@XZ
  ??1WasmEngine@wasm@internal@v8@@QEAA@XZ
  ??1WasmError@wasm@internal@v8@@QEAA@XZ
  ??1WasmFunctionBuilder@wasm@internal@v8@@QEAA@XZ
  ??1WasmGraphBuilder@compiler@internal@v8@@QEAA@XZ
  ??1WasmModule@wasm@internal@v8@@QEAA@XZ
  ??1WasmModuleBuilder@wasm@internal@v8@@QEAA@XZ
  ??1WasmModuleObjectBuilderStreaming@v8@@QEAA@XZ
  ??1WasmModuleSourceMap@wasm@internal@v8@@QEAA@XZ
  ??1WasmSerializer@wasm@internal@v8@@QEAA@XZ
  ??1WasmStreaming@v8@@QEAA@XZ
  ??1WeakCodeRegistry@internal@v8@@QEAA@XZ
  ??1WebSnapshotDeserializer@internal@v8@@QEAA@XZ
  ??1WebSnapshotSerializer@internal@v8@@QEAA@XZ
  ??1Zone@internal@v8@@QEAA@XZ
  ??1ZoneStats@compiler@internal@v8@@QEAA@XZ
  ??2AlignedSlotAllocator@internal@v8@@CAPEAX_K@Z
  ??2ErrorThrower@wasm@internal@v8@@CAPEAX_K@Z
  ??2EscapableHandleScope@v8@@CAPEAX_K@Z
  ??2GlobalGCInfoTable@internal@cppgc@@CAPEAX_K@Z
  ??2HandleScope@v8@@CAPEAX_K@Z
  ??2Isolate@internal@v8@@CAPEAX_KPEAX@Z
  ??2Malloced@internal@v8@@SAPEAX_K@Z
  ??2Node@compiler@internal@v8@@CAPEAX_KPEAX@Z
  ??2Register@interpreter@internal@v8@@CAPEAX_K@Z
  ??2SamplingEventsProcessor@internal@v8@@SAPEAX_K@Z
  ??2SealHandleScope@v8@@CAPEAX_K@Z
  ??2TryCatch@v8@@CAPEAX_K@Z
  ??3AlignedSlotAllocator@internal@v8@@CAXPEAX_K@Z
  ??3BackingStore@v8@@SAXPEAX@Z
  ??3CompilationState@wasm@internal@v8@@SAXPEAX@Z
  ??3ErrorThrower@wasm@internal@v8@@CAXPEAX_K@Z
  ??3EscapableHandleScope@v8@@CAXPEAX_K@Z
  ??3GlobalGCInfoTable@internal@cppgc@@CAXPEAX_K@Z
  ??3HandleScope@v8@@CAXPEAX_K@Z
  ??3Malloced@internal@v8@@SAXPEAX@Z
  ??3Register@interpreter@internal@v8@@CAXPEAX_K@Z
  ??3SamplingEventsProcessor@internal@v8@@SAXPEAX@Z
  ??3SealHandleScope@v8@@CAXPEAX_K@Z
  ??3TryCatch@v8@@CAXPEAX_K@Z
  ??4?$BaseNameDictionary@VGlobalDictionary@internal@v8@@VGlobalDictionaryShape@23@@internal@v8@@QEAAAEAV012@$$QEAV012@@Z
  ??4?$BaseNameDictionary@VGlobalDictionary@internal@v8@@VGlobalDictionaryShape@23@@internal@v8@@QEAAAEAV012@AEBV012@@Z
  ??4?$BaseNameDictionary@VNameDictionary@internal@v8@@VNameDictionaryShape@23@@internal@v8@@QEAAAEAV012@$$QEAV012@@Z
  ??4?$BaseNameDictionary@VNameDictionary@internal@v8@@VNameDictionaryShape@23@@internal@v8@@QEAAAEAV012@AEBV012@@Z
  ??4?$BaseShape@I@internal@v8@@QEAAAEAV012@$$QEAV012@@Z
  ??4?$BaseShape@I@internal@v8@@QEAAAEAV012@AEBV012@@Z
  ??4?$BaseShape@PEAVHashTableKey@internal@v8@@@internal@v8@@QEAAAEAV012@$$QEAV012@@Z
  ??4?$BaseShape@PEAVHashTableKey@internal@v8@@@internal@v8@@QEAAAEAV012@AEBV012@@Z
  ??4?$BaseShape@V?$Handle@VName@internal@v8@@@internal@v8@@@internal@v8@@QEAAAEAV012@$$QEAV012@@Z
  ??4?$BaseShape@V?$Handle@VName@internal@v8@@@internal@v8@@@internal@v8@@QEAAAEAV012@AEBV012@@Z
  ??4?$BaseShape@V?$Handle@VObject@internal@v8@@@internal@v8@@@internal@v8@@QEAAAEAV012@$$QEAV012@@Z
  ??4?$BaseShape@V?$Handle@VObject@internal@v8@@@internal@v8@@@internal@v8@@QEAAAEAV012@AEBV012@@Z
  ??4?$BaseShape@V?$Handle@VString@internal@v8@@@internal@v8@@@internal@v8@@QEAAAEAV012@$$QEAV012@@Z
  ??4?$BaseShape@V?$Handle@VString@internal@v8@@@internal@v8@@@internal@v8@@QEAAAEAV012@AEBV012@@Z
  ??4?$BaseShape@VString@internal@v8@@@internal@v8@@QEAAAEAV012@$$QEAV012@@Z
  ??4?$BaseShape@VString@internal@v8@@@internal@v8@@QEAAAEAV012@AEBV012@@Z
  ??4?$CTypeInfoBuilder@H$S@v8@@QEAAAEAV01@$$QEAV01@@Z
  ??4?$CTypeInfoBuilder@H$S@v8@@QEAAAEAV01@AEBV01@@Z
  ??4?$CTypeInfoBuilder@I$S@v8@@QEAAAEAV01@$$QEAV01@@Z
  ??4?$CTypeInfoBuilder@I$S@v8@@QEAAAEAV01@AEBV01@@Z
  ??4?$CTypeInfoBuilder@M$S@v8@@QEAAAEAV01@$$QEAV01@@Z
  ??4?$CTypeInfoBuilder@M$S@v8@@QEAAAEAV01@AEBV01@@Z
  ??4?$CTypeInfoBuilder@N$S@v8@@QEAAAEAV01@$$QEAV01@@Z
  ??4?$CTypeInfoBuilder@N$S@v8@@QEAAAEAV01@AEBV01@@Z
  ??4?$CTypeInfoBuilder@V?$Local@VValue@v8@@@v8@@$S@v8@@QEAAAEAV01@$$QEAV01@@Z
  ??4?$CTypeInfoBuilder@V?$Local@VValue@v8@@@v8@@$S@v8@@QEAAAEAV01@AEBV01@@Z
  ??4?$CTypeInfoBuilder@X$S@v8@@QEAAAEAV01@$$QEAV01@@Z
  ??4?$CTypeInfoBuilder@X$S@v8@@QEAAAEAV01@AEBV01@@Z
  ??4?$Dictionary@VGlobalDictionary@internal@v8@@VGlobalDictionaryShape@23@@internal@v8@@QEAAAEAV012@$$QEAV012@@Z
  ??4?$Dictionary@VGlobalDictionary@internal@v8@@VGlobalDictionaryShape@23@@internal@v8@@QEAAAEAV012@AEBV012@@Z
  ??4?$Dictionary@VNameDictionary@internal@v8@@VNameDictionaryShape@23@@internal@v8@@QEAAAEAV012@$$QEAV012@@Z
  ??4?$Dictionary@VNameDictionary@internal@v8@@VNameDictionaryShape@23@@internal@v8@@QEAAAEAV012@AEBV012@@Z
  ??4?$Dictionary@VNumberDictionary@internal@v8@@VNumberDictionaryShape@23@@internal@v8@@QEAAAEAV012@$$QEAV012@@Z
  ??4?$Dictionary@VNumberDictionary@internal@v8@@VNumberDictionaryShape@23@@internal@v8@@QEAAAEAV012@AEBV012@@Z
  ??4?$Dictionary@VSimpleNumberDictionary@internal@v8@@VSimpleNumberDictionaryShape@23@@internal@v8@@QEAAAEAV012@$$QEAV012@@Z
  ??4?$Dictionary@VSimpleNumberDictionary@internal@v8@@VSimpleNumberDictionaryShape@23@@internal@v8@@QEAAAEAV012@AEBV012@@Z
  ??4?$FactoryBase@VFactory@internal@v8@@@internal@v8@@QEAAAEAV012@$$QEAV012@@Z
  ??4?$FactoryBase@VFactory@internal@v8@@@internal@v8@@QEAAAEAV012@AEBV012@@Z
  ??4?$FactoryBase@VLocalFactory@internal@v8@@@internal@v8@@QEAAAEAV012@$$QEAV012@@Z
  ??4?$FactoryBase@VLocalFactory@internal@v8@@@internal@v8@@QEAAAEAV012@AEBV012@@Z
  ??4?$HashTable@VCompilationCacheTable@internal@v8@@VCompilationCacheShape@23@@internal@v8@@QEAAAEAV012@$$QEAV012@@Z
  ??4?$HashTable@VCompilationCacheTable@internal@v8@@VCompilationCacheShape@23@@internal@v8@@QEAAAEAV012@AEBV012@@Z
  ??4?$HashTable@VEphemeronHashTable@internal@v8@@VObjectHashTableShape@23@@internal@v8@@QEAAAEAV012@$$QEAV012@@Z
  ??4?$HashTable@VEphemeronHashTable@internal@v8@@VObjectHashTableShape@23@@internal@v8@@QEAAAEAV012@AEBV012@@Z
  ??4?$HashTable@VGlobalDictionary@internal@v8@@VGlobalDictionaryShape@23@@internal@v8@@QEAAAEAV012@$$QEAV012@@Z
  ??4?$HashTable@VGlobalDictionary@internal@v8@@VGlobalDictionaryShape@23@@internal@v8@@QEAAAEAV012@AEBV012@@Z
  ??4?$HashTable@VNameDictionary@internal@v8@@VNameDictionaryShape@23@@internal@v8@@QEAAAEAV012@$$QEAV012@@Z
  ??4?$HashTable@VNameDictionary@internal@v8@@VNameDictionaryShape@23@@internal@v8@@QEAAAEAV012@AEBV012@@Z
  ??4?$HashTable@VNameToIndexHashTable@internal@v8@@VNameToIndexShape@23@@internal@v8@@QEAAAEAV012@$$QEAV012@@Z
  ??4?$HashTable@VNameToIndexHashTable@internal@v8@@VNameToIndexShape@23@@internal@v8@@QEAAAEAV012@AEBV012@@Z
  ??4?$HashTable@VNumberDictionary@internal@v8@@VNumberDictionaryShape@23@@internal@v8@@QEAAAEAV012@$$QEAV012@@Z
  ??4?$HashTable@VNumberDictionary@internal@v8@@VNumberDictionaryShape@23@@internal@v8@@QEAAAEAV012@AEBV012@@Z
  ??4?$HashTable@VObjectHashSet@internal@v8@@VObjectHashSetShape@23@@internal@v8@@QEAAAEAV012@$$QEAV012@@Z
  ??4?$HashTable@VObjectHashSet@internal@v8@@VObjectHashSetShape@23@@internal@v8@@QEAAAEAV012@AEBV012@@Z
  ??4?$HashTable@VObjectHashTable@internal@v8@@VObjectHashTableShape@23@@internal@v8@@QEAAAEAV012@$$QEAV012@@Z
  ??4?$HashTable@VObjectHashTable@internal@v8@@VObjectHashTableShape@23@@internal@v8@@QEAAAEAV012@AEBV012@@Z
  ??4?$HashTable@VRegisteredSymbolTable@internal@v8@@VRegisteredSymbolTableShape@23@@internal@v8@@QEAAAEAV012@$$QEAV012@@Z
  ??4?$HashTable@VRegisteredSymbolTable@internal@v8@@VRegisteredSymbolTableShape@23@@internal@v8@@QEAAAEAV012@AEBV012@@Z
  ??4?$HashTable@VSimpleNumberDictionary@internal@v8@@VSimpleNumberDictionaryShape@23@@internal@v8@@QEAAAEAV012@$$QEAV012@@Z
  ??4?$HashTable@VSimpleNumberDictionary@internal@v8@@VSimpleNumberDictionaryShape@23@@internal@v8@@QEAAAEAV012@AEBV012@@Z
  ??4?$HashTable@VStringSet@internal@v8@@VStringSetShape@23@@internal@v8@@QEAAAEAV012@$$QEAV012@@Z
  ??4?$HashTable@VStringSet@internal@v8@@VStringSetShape@23@@internal@v8@@QEAAAEAV012@AEBV012@@Z
  ??4?$HeapVisitor@VMarkingVerifierBase@internal@cppgc@@@internal@cppgc@@QEAAAEAV012@$$QEAV012@@Z
  ??4?$HeapVisitor@VMarkingVerifierBase@internal@cppgc@@@internal@cppgc@@QEAAAEAV012@AEBV012@@Z
  ??4?$MagicNumbersForDivision@I@base@v8@@QEAAAEAU012@$$QEAU012@@Z
  ??4?$MagicNumbersForDivision@I@base@v8@@QEAAAEAU012@AEBU012@@Z
  ??4?$MagicNumbersForDivision@_K@base@v8@@QEAAAEAU012@$$QEAU012@@Z
  ??4?$MagicNumbersForDivision@_K@base@v8@@QEAAAEAU012@AEBU012@@Z
  ??4?$MemoryController@UGlobalMemoryTrait@internal@v8@@@internal@v8@@QEAAAEAV012@$$QEAV012@@Z
  ??4?$MemoryController@UGlobalMemoryTrait@internal@v8@@@internal@v8@@QEAAAEAV012@AEBV012@@Z
  ??4?$MemoryController@UV8HeapTrait@internal@v8@@@internal@v8@@QEAAAEAV012@$$QEAV012@@Z
  ??4?$MemoryController@UV8HeapTrait@internal@v8@@@internal@v8@@QEAAAEAV012@AEBV012@@Z
  ??4?$MemorySpan@$$CBD@v8@@QEAAAEAV01@$$QEAV01@@Z
  ??4?$MemorySpan@$$CBD@v8@@QEAAAEAV01@AEBV01@@Z
  ??4?$MemorySpan@$$CBE@v8@@QEAAAEAV01@$$QEAV01@@Z
  ??4?$MemorySpan@$$CBE@v8@@QEAAAEAV01@AEBV01@@Z
  ??4?$MemorySpan@$$CBVCFunction@v8@@@v8@@QEAAAEAV01@$$QEAV01@@Z
  ??4?$MemorySpan@$$CBVCFunction@v8@@@v8@@QEAAAEAV01@AEBV01@@Z
  ??4?$ObjectHashTableBase@VEphemeronHashTable@internal@v8@@VObjectHashTableShape@23@@internal@v8@@QEAAAEAV012@$$QEAV012@@Z
  ??4?$ObjectHashTableBase@VEphemeronHashTable@internal@v8@@VObjectHashTableShape@23@@internal@v8@@QEAAAEAV012@AEBV012@@Z
  ??4?$ObjectHashTableBase@VObjectHashTable@internal@v8@@VObjectHashTableShape@23@@internal@v8@@QEAAAEAV012@$$QEAV012@@Z
  ??4?$ObjectHashTableBase@VObjectHashTable@internal@v8@@VObjectHashTableShape@23@@internal@v8@@QEAAAEAV012@AEBV012@@Z
  ??4?$OrderedHashTable@VOrderedHashMap@internal@v8@@$01@internal@v8@@QEAAAEAV012@$$QEAV012@@Z
  ??4?$OrderedHashTable@VOrderedHashMap@internal@v8@@$01@internal@v8@@QEAAAEAV012@AEBV012@@Z
  ??4?$OrderedHashTable@VOrderedHashSet@internal@v8@@$00@internal@v8@@QEAAAEAV012@$$QEAV012@@Z
  ??4?$OrderedHashTable@VOrderedHashSet@internal@v8@@$00@internal@v8@@QEAAAEAV012@AEBV012@@Z
  ??4?$OrderedHashTable@VOrderedNameDictionary@internal@v8@@$02@internal@v8@@QEAAAEAV012@$$QEAV012@@Z
  ??4?$OrderedHashTable@VOrderedNameDictionary@internal@v8@@$02@internal@v8@@QEAAAEAV012@AEBV012@@Z
  ??4?$OrderedHashTableHandler@VSmallOrderedHashMap@internal@v8@@VOrderedHashMap@23@@internal@v8@@QEAAAEAV012@$$QEAV012@@Z
  ??4?$OrderedHashTableHandler@VSmallOrderedHashMap@internal@v8@@VOrderedHashMap@23@@internal@v8@@QEAAAEAV012@AEBV012@@Z
  ??4?$OrderedHashTableHandler@VSmallOrderedHashSet@internal@v8@@VOrderedHashSet@23@@internal@v8@@QEAAAEAV012@$$QEAV012@@Z
  ??4?$OrderedHashTableHandler@VSmallOrderedHashSet@internal@v8@@VOrderedHashSet@23@@internal@v8@@QEAAAEAV012@AEBV012@@Z
  ??4?$OrderedHashTableHandler@VSmallOrderedNameDictionary@internal@v8@@VOrderedNameDictionary@23@@internal@v8@@QEAAAEAV012@$$QEAV012@@Z
  ??4?$OrderedHashTableHandler@VSmallOrderedNameDictionary@internal@v8@@VOrderedNameDictionary@23@@internal@v8@@QEAAAEAV012@AEBV012@@Z
  ??4?$StaticCallInterfaceDescriptor@VBigIntToI32PairDescriptor@internal@v8@@@internal@v8@@QEAAAEAV012@$$QEAV012@@Z
  ??4?$StaticCallInterfaceDescriptor@VBigIntToI32PairDescriptor@internal@v8@@@internal@v8@@QEAAAEAV012@AEBV012@@Z
  ??4?$StaticCallInterfaceDescriptor@VBigIntToI64Descriptor@internal@v8@@@internal@v8@@QEAAAEAV012@$$QEAV012@@Z
  ??4?$StaticCallInterfaceDescriptor@VBigIntToI64Descriptor@internal@v8@@@internal@v8@@QEAAAEAV012@AEBV012@@Z
  ??4?$StaticCallInterfaceDescriptor@VI32PairToBigIntDescriptor@internal@v8@@@internal@v8@@QEAAAEAV012@$$QEAV012@@Z
  ??4?$StaticCallInterfaceDescriptor@VI32PairToBigIntDescriptor@internal@v8@@@internal@v8@@QEAAAEAV012@AEBV012@@Z
  ??4?$StaticCallInterfaceDescriptor@VI64ToBigIntDescriptor@internal@v8@@@internal@v8@@QEAAAEAV012@$$QEAV012@@Z
  ??4?$StaticCallInterfaceDescriptor@VI64ToBigIntDescriptor@internal@v8@@@internal@v8@@QEAAAEAV012@AEBV012@@Z
  ??4?$StaticCallInterfaceDescriptor@VInterpreterDispatchDescriptor@internal@v8@@@internal@v8@@QEAAAEAV012@$$QEAV012@@Z
  ??4?$StaticCallInterfaceDescriptor@VInterpreterDispatchDescriptor@internal@v8@@@internal@v8@@QEAAAEAV012@AEBV012@@Z
  ??4?$StaticCallInterfaceDescriptor@VVoidDescriptor@internal@v8@@@internal@v8@@QEAAAEAV012@$$QEAV012@@Z
  ??4?$StaticCallInterfaceDescriptor@VVoidDescriptor@internal@v8@@@internal@v8@@QEAAAEAV012@AEBV012@@Z
  ??4?$TimeBase@VThreadTicks@base@v8@@@time_internal@base@v8@@QEAAAEAV0123@$$QEAV0123@@Z
  ??4?$TimeBase@VThreadTicks@base@v8@@@time_internal@base@v8@@QEAAAEAV0123@AEBV0123@@Z
  ??4?$TimeBase@VThreadTicks@base@v8@@@time_internal@base@v8@@QEAAAEAVThreadTicks@23@V423@@Z
  ??4?$TimeBase@VTime@base@v8@@@time_internal@base@v8@@QEAAAEAV0123@$$QEAV0123@@Z
  ??4?$TimeBase@VTime@base@v8@@@time_internal@base@v8@@QEAAAEAV0123@AEBV0123@@Z
  ??4?$TimeBase@VTime@base@v8@@@time_internal@base@v8@@QEAAAEAVTime@23@V423@@Z
  ??4?$TimeBase@VTimeTicks@base@v8@@@time_internal@base@v8@@QEAAAEAV0123@$$QEAV0123@@Z
  ??4?$TimeBase@VTimeTicks@base@v8@@@time_internal@base@v8@@QEAAAEAV0123@AEBV0123@@Z
  ??4?$TimeBase@VTimeTicks@base@v8@@@time_internal@base@v8@@QEAAAEAVTimeTicks@23@V423@@Z
  ??4?$TorqueGeneratedFactory@VFactory@internal@v8@@@internal@v8@@QEAAAEAV012@$$QEAV012@@Z
  ??4?$TorqueGeneratedFactory@VFactory@internal@v8@@@internal@v8@@QEAAAEAV012@AEBV012@@Z
  ??4?$TorqueGeneratedFactory@VLocalFactory@internal@v8@@@internal@v8@@QEAAAEAV012@$$QEAV012@@Z
  ??4?$TorqueGeneratedFactory@VLocalFactory@internal@v8@@@internal@v8@@QEAAAEAV012@AEBV012@@Z
  ??4?$ZoneVector@PEAVMoveOperands@compiler@internal@v8@@@internal@v8@@QEAAAEAV012@$$QEAV012@@Z
  ??4?$ZoneVector@PEAVMoveOperands@compiler@internal@v8@@@internal@v8@@QEAAAEAV012@AEBV012@@Z
  ??4?$basic_ostream@DU?$char_traits@D@std@@@std@@IEAAAEAV01@$$QEAV01@@Z
  ??4?$basic_streambuf@DU?$char_traits@D@std@@@std@@IEAAAEAV01@AEBV01@@Z
  ??4?$vector@PEAVMoveOperands@compiler@internal@v8@@V?$ZoneAllocator@PEAVMoveOperands@compiler@internal@v8@@@34@@std@@QEAAAEAV01@$$QEAV01@@Z
  ??4?$vector@PEAVMoveOperands@compiler@internal@v8@@V?$ZoneAllocator@PEAVMoveOperands@compiler@internal@v8@@@34@@std@@QEAAAEAV01@AEBV01@@Z
  ??4?$vector@PEAVMoveOperands@compiler@internal@v8@@V?$ZoneAllocator@PEAVMoveOperands@compiler@internal@v8@@@34@@std@@QEAAAEAV01@V?$initializer_list@PEAVMoveOperands@compiler@internal@v8@@@1@@Z
  ??4?$vector@UCpuProfileDeoptFrame@v8@@V?$allocator@UCpuProfileDeoptFrame@v8@@@std@@@std@@QEAAAEAV01@$$QEAV01@@Z
  ??4?$vector@UCpuProfileDeoptFrame@v8@@V?$allocator@UCpuProfileDeoptFrame@v8@@@std@@@std@@QEAAAEAV01@AEBV01@@Z
  ??4?$vector@UCpuProfileDeoptFrame@v8@@V?$allocator@UCpuProfileDeoptFrame@v8@@@std@@@std@@QEAAAEAV01@V?$initializer_list@UCpuProfileDeoptFrame@v8@@@1@@Z
  ??4?$vector@UCpuProfileDeoptInfo@v8@@V?$allocator@UCpuProfileDeoptInfo@v8@@@std@@@std@@QEAAAEAV01@$$QEAV01@@Z
  ??4?$vector@UCpuProfileDeoptInfo@v8@@V?$allocator@UCpuProfileDeoptInfo@v8@@@std@@@std@@QEAAAEAV01@AEBV01@@Z
  ??4?$vector@UCpuProfileDeoptInfo@v8@@V?$allocator@UCpuProfileDeoptInfo@v8@@@std@@@std@@QEAAAEAV01@V?$initializer_list@UCpuProfileDeoptInfo@v8@@@1@@Z
  ??4AccessorPair@debug@v8@@QEAAAEAV012@$$QEAV012@@Z
  ??4AccessorPair@debug@v8@@QEAAAEAV012@AEBV012@@Z
  ??4AccessorSignature@v8@@QEAAAEAV01@$$QEAV01@@Z
  ??4AccessorSignature@v8@@QEAAAEAV01@AEBV01@@Z
  ??4ActivityControl@v8@@QEAAAEAV01@AEBV01@@Z
  ??4AddressSpaceReservation@base@v8@@QEAAAEAV012@$$QEAV012@@Z
  ??4AddressSpaceReservation@base@v8@@QEAAAEAV012@AEBV012@@Z
  ??4AddressToTraceMap@internal@v8@@QEAAAEAV012@$$QEAV012@@Z
  ??4AddressToTraceMap@internal@v8@@QEAAAEAV012@AEBV012@@Z
  ??4AlignedSlotAllocator@internal@v8@@QEAAAEAV012@$$QEAV012@@Z
  ??4AlignedSlotAllocator@internal@v8@@QEAAAEAV012@AEBV012@@Z
  ??4AllocationHandle@cppgc@@QEAAAEAV01@$$QEAV01@@Z
  ??4AllocationHandle@cppgc@@QEAAAEAV01@AEBV01@@Z
  ??4AllocationProfile@v8@@QEAAAEAV01@AEBV01@@Z
  ??4Allocator@ArrayBuffer@v8@@QEAAAEAV012@AEBV012@@Z
  ??4Array@v8@@QEAAAEAV01@$$QEAV01@@Z
  ??4Array@v8@@QEAAAEAV01@AEBV01@@Z
  ??4ArrayBuffer@v8@@QEAAAEAV01@$$QEAV01@@Z
  ??4ArrayBuffer@v8@@QEAAAEAV01@AEBV01@@Z
  ??4ArrayBufferAllocator@node@@QEAAAEAV01@$$QEAV01@@Z
  ??4ArrayBufferAllocator@node@@QEAAAEAV01@AEBV01@@Z
  ??4ArrayBufferView@v8@@QEAAAEAV01@$$QEAV01@@Z
  ??4ArrayBufferView@v8@@QEAAAEAV01@AEBV01@@Z
  ??4AsmJsScanner@internal@v8@@QEAAAEAV012@$$QEAV012@@Z
  ??4AsmJsScanner@internal@v8@@QEAAAEAV012@AEBV012@@Z
  ??4AsmType@wasm@internal@v8@@QEAAAEAV0123@$$QEAV0123@@Z
  ??4AsmType@wasm@internal@v8@@QEAAAEAV0123@AEBV0123@@Z
  ??4AssemblerOptions@internal@v8@@QEAAAEAU012@$$QEAU012@@Z
  ??4AssemblerOptions@internal@v8@@QEAAAEAU012@AEBU012@@Z
  ??4AstRawStringComparer@SourceTextModuleDescriptor@internal@v8@@QEAAAEAU0123@$$QEAU0123@@Z
  ??4AstRawStringComparer@SourceTextModuleDescriptor@internal@v8@@QEAAAEAU0123@AEBU0123@@Z
  ??4AtomicsWaitWakeHandle@Isolate@v8@@QEAAAEAV012@$$QEAV012@@Z
  ??4AtomicsWaitWakeHandle@Isolate@v8@@QEAAAEAV012@AEBV012@@Z
  ??4BackingStore@v8@@QEAAAEAV01@AEBV01@@Z
  ??4BackupIncumbentScope@Context@v8@@QEAAAEAV012@AEBV012@@Z
  ??4BaseObjectSizeTrait@internal@cppgc@@QEAAAEAU012@$$QEAU012@@Z
  ??4BaseObjectSizeTrait@internal@cppgc@@QEAAAEAU012@AEBU012@@Z
  ??4BigInt64Array@v8@@QEAAAEAV01@$$QEAV01@@Z
  ??4BigInt64Array@v8@@QEAAAEAV01@AEBV01@@Z
  ??4BigInt@v8@@QEAAAEAV01@$$QEAV01@@Z
  ??4BigInt@v8@@QEAAAEAV01@AEBV01@@Z
  ??4BigIntObject@v8@@QEAAAEAV01@$$QEAV01@@Z
  ??4BigIntObject@v8@@QEAAAEAV01@AEBV01@@Z
  ??4BigIntToI32PairDescriptor@internal@v8@@QEAAAEAV012@$$QEAV012@@Z
  ??4BigIntToI32PairDescriptor@internal@v8@@QEAAAEAV012@AEBV012@@Z
  ??4BigIntToI64Descriptor@internal@v8@@QEAAAEAV012@$$QEAV012@@Z
  ??4BigIntToI64Descriptor@internal@v8@@QEAAAEAV012@AEBV012@@Z
  ??4BigUint64Array@v8@@QEAAAEAV01@$$QEAV01@@Z
  ??4BigUint64Array@v8@@QEAAAEAV01@AEBV01@@Z
  ??4Binary@protocol@v8_inspector@@QEAAAEAV012@$$QEAV012@@Z
  ??4Binary@protocol@v8_inspector@@QEAAAEAV012@AEBV012@@Z
  ??4BitVector@internal@v8@@QEAAAEAV012@$$QEAV012@@Z
  ??4Bitmap@internal@v8@@QEAAAEAV012@$$QEAV012@@Z
  ??4Bitmap@internal@v8@@QEAAAEAV012@AEBV012@@Z
  ??4BitsetType@compiler@internal@v8@@QEAAAEAV0123@$$QEAV0123@@Z
  ??4BitsetType@compiler@internal@v8@@QEAAAEAV0123@AEBV0123@@Z
  ??4BlockData@Coverage@debug@v8@@QEAAAEAV0123@$$QEAV0123@@Z
  ??4BodyDescriptor@SwissNameDictionary@internal@v8@@QEAAAEAV0123@$$QEAV0123@@Z
  ??4BodyDescriptor@SwissNameDictionary@internal@v8@@QEAAAEAV0123@AEBV0123@@Z
  ??4Boolean@v8@@QEAAAEAV01@$$QEAV01@@Z
  ??4Boolean@v8@@QEAAAEAV01@AEBV01@@Z
  ??4BooleanObject@v8@@QEAAAEAV01@$$QEAV01@@Z
  ??4BooleanObject@v8@@QEAAAEAV01@AEBV01@@Z
  ??4BranchHintMap@wasm@internal@v8@@QEAAAEAV0123@$$QEAV0123@@Z
  ??4BranchHintMap@wasm@internal@v8@@QEAAAEAV0123@AEBV0123@@Z
  ??4BranchMatcher@compiler@internal@v8@@QEAAAEAU0123@$$QEAU0123@@Z
  ??4BranchMatcher@compiler@internal@v8@@QEAAAEAU0123@AEBU0123@@Z
  ??4BreakLocation@debug@v8@@QEAAAEAV012@$$QEAV012@@Z
  ??4BreakLocation@debug@v8@@QEAAAEAV012@AEBV012@@Z
  ??4ByteData@PreparseDataBuilder@internal@v8@@QEAAAEAV0123@$$QEAV0123@@Z
  ??4ByteData@PreparseDataBuilder@internal@v8@@QEAAAEAV0123@AEBV0123@@Z
  ??4BytecodeDecoder@interpreter@internal@v8@@QEAAAEAV0123@$$QEAV0123@@Z
  ??4BytecodeDecoder@interpreter@internal@v8@@QEAAAEAV0123@AEBV0123@@Z
  ??4BytecodeIterator@wasm@internal@v8@@QEAAAEAV0123@$$QEAV0123@@Z
  ??4BytecodeIterator@wasm@internal@v8@@QEAAAEAV0123@AEBV0123@@Z
  ??4BytecodeJumpTable@interpreter@internal@v8@@QEAAAEAV0123@$$QEAV0123@@Z
  ??4BytecodeJumpTable@interpreter@internal@v8@@QEAAAEAV0123@AEBV0123@@Z
  ??4BytecodeLabel@interpreter@internal@v8@@QEAAAEAV0123@$$QEAV0123@@Z
  ??4BytecodeLabel@interpreter@internal@v8@@QEAAAEAV0123@AEBV0123@@Z
  ??4BytecodeLivenessMap@compiler@internal@v8@@QEAAAEAV0123@$$QEAV0123@@Z
  ??4BytecodeLivenessMap@compiler@internal@v8@@QEAAAEAV0123@AEBV0123@@Z
  ??4BytecodeLoopHeader@interpreter@internal@v8@@QEAAAEAV0123@$$QEAV0123@@Z
  ??4BytecodeLoopHeader@interpreter@internal@v8@@QEAAAEAV0123@AEBV0123@@Z
  ??4BytecodeNode@interpreter@internal@v8@@QEAAAEAV0123@$$QEAV0123@@Z
  ??4BytecodeNode@interpreter@internal@v8@@QEAAAEAV0123@AEBV0123@@Z
  ??4Bytecodes@interpreter@internal@v8@@QEAAAEAV0123@$$QEAV0123@@Z
  ??4Bytecodes@interpreter@internal@v8@@QEAAAEAV0123@AEBV0123@@Z
  ??4CFunction@v8@@QEAAAEAV01@$$QEAV01@@Z
  ??4CFunction@v8@@QEAAAEAV01@AEBV01@@Z
  ??4CPU@base@v8@@QEAAAEAV012@$$QEAV012@@Z
  ??4CPU@base@v8@@QEAAAEAV012@AEBV012@@Z
  ??4CallDescriptors@internal@v8@@QEAAAEAV012@$$QEAV012@@Z
  ??4CallDescriptors@internal@v8@@QEAAAEAV012@AEBV012@@Z
  ??4CallInterfaceDescriptor@internal@v8@@QEAAAEAV012@AEBV012@@Z
  ??4Channel@V8Inspector@v8_inspector@@QEAAAEAV012@AEBV012@@Z
  ??4CodeCommentsIterator@internal@v8@@QEAAAEAV012@$$QEAV012@@Z
  ??4CodeCommentsIterator@internal@v8@@QEAAAEAV012@AEBV012@@Z
  ??4CodeEvent@v8@@QEAAAEAV01@$$QEAV01@@Z
  ??4CodeEvent@v8@@QEAAAEAV01@AEBV01@@Z
  ??4CodeFactory@internal@v8@@QEAAAEAV012@$$QEAV012@@Z
  ??4CodeFactory@internal@v8@@QEAAAEAV012@AEBV012@@Z
  ??4CommandLineAPIScope@V8InspectorSession@v8_inspector@@QEAAAEAV012@AEBV012@@Z
  ??4CompilationEventCallback@wasm@internal@v8@@QEAAAEAV0123@AEBV0123@@Z
  ??4CompilationJob@internal@v8@@QEAAAEAV012@AEBV012@@Z
  ??4CompilationResultResolver@wasm@internal@v8@@QEAAAEAV0123@AEBV0123@@Z
  ??4CompilationState@wasm@internal@v8@@QEAAAEAV0123@AEBV0123@@Z
  ??4Compiler@internal@v8@@QEAAAEAV012@$$QEAV012@@Z
  ??4Compiler@internal@v8@@QEAAAEAV012@AEBV012@@Z
  ??4Constant@compiler@internal@v8@@QEAAAEAV0123@$$QEAV0123@@Z
  ??4Constant@compiler@internal@v8@@QEAAAEAV0123@AEBV0123@@Z
  ??4ConstantArrayBuilder@interpreter@internal@v8@@QEAAAEAV0123@$$QEAV0123@@Z
  ??4Context@v8@@QEAAAEAV01@$$QEAV01@@Z
  ??4Context@v8@@QEAAAEAV01@AEBV01@@Z
  ??4Coverage@debug@v8@@QEAAAEAV012@$$QEAV012@@Z
  ??4CppGraphBuilder@internal@v8@@QEAAAEAV012@$$QEAV012@@Z
  ??4CppGraphBuilder@internal@v8@@QEAAAEAV012@AEBV012@@Z
  ??4CppHeap@v8@@QEAAAEAV01@AEBV01@@Z
  ??4CpuFeatureScope@internal@v8@@QEAAAEAV012@AEBV012@@Z
  ??4CpuProfile@v8@@QEAAAEAV01@$$QEAV01@@Z
  ??4CpuProfile@v8@@QEAAAEAV01@AEBV01@@Z
  ??4CpuProfileDeoptInfo@v8@@QEAAAEAU01@$$QEAU01@@Z
  ??4CpuProfileDeoptInfo@v8@@QEAAAEAU01@AEBU01@@Z
  ??4CpuProfileNode@v8@@QEAAAEAV01@$$QEAV01@@Z
  ??4CpuProfileNode@v8@@QEAAAEAV01@AEBV01@@Z
  ??4CpuProfilingOptions@v8@@QEAAAEAV01@$$QEAV01@@Z
  ??4CpuProfilingOptions@v8@@QEAAAEAV01@AEBV01@@Z
  ??4CreateParams@Isolate@v8@@QEAAAEAU012@AEBU012@@Z
  ??4Data@v8@@QEAAAEAV01@$$QEAV01@@Z
  ??4Data@v8@@QEAAAEAV01@AEBV01@@Z
  ??4DataView@v8@@QEAAAEAV01@$$QEAV01@@Z
  ??4DataView@v8@@QEAAAEAV01@AEBV01@@Z
  ??4Date@v8@@QEAAAEAV01@$$QEAV01@@Z
  ??4Date@v8@@QEAAAEAV01@AEBV01@@Z
  ??4DateCache@internal@v8@@QEAAAEAV012@AEBV012@@Z
  ??4DbgStreamBuf@internal@v8@@QEAAAEAV012@AEBV012@@Z
  ??4DefaultEmbedderRootsHandler@internal@v8@@QEAAAEAV012@$$QEAV012@@Z
  ??4DefaultEmbedderRootsHandler@internal@v8@@QEAAAEAV012@AEBV012@@Z
  ??4Delegate@ValueDeserializer@v8@@QEAAAEAV012@AEBV012@@Z
  ??4Delegate@ValueSerializer@v8@@QEAAAEAV012@AEBV012@@Z
  ??4DeleteACHHandle@node@@QEAAAEAU01@$$QEAU01@@Z
  ??4DeleteACHHandle@node@@QEAAAEAU01@AEBU01@@Z
  ??4Descriptor@internal@v8@@QEAAAEAV012@$$QEAV012@@Z
  ??4Descriptor@internal@v8@@QEAAAEAV012@AEBV012@@Z
  ??4DetachableVectorBase@internal@v8@@QEAAAEAV012@$$QEAV012@@Z
  ??4DetachableVectorBase@internal@v8@@QEAAAEAV012@AEBV012@@Z
  ??4DiamondMatcher@compiler@internal@v8@@QEAAAEAU0123@$$QEAU0123@@Z
  ??4DiamondMatcher@compiler@internal@v8@@QEAAAEAU0123@AEBU0123@@Z
  ??4DiscardedSamplesDelegate@v8@@QEAAAEAV01@AEBV01@@Z
  ??4DisjointAllocationPool@wasm@internal@v8@@QEAAAEAV0123@$$QEAV0123@@Z
  ??4Domain@API@Schema@protocol@v8_inspector@@QEAAAEAV01234@$$QEAV01234@@Z
  ??4Domain@API@Schema@protocol@v8_inspector@@QEAAAEAV01234@AEBV01234@@Z
  ??4EhFrameConstants@internal@v8@@QEAAAEAV012@$$QEAV012@@Z
  ??4EhFrameConstants@internal@v8@@QEAAAEAV012@AEBV012@@Z
  ??4EhFrameIterator@internal@v8@@QEAAAEAV012@$$QEAV012@@Z
  ??4EhFrameIterator@internal@v8@@QEAAAEAV012@AEBV012@@Z
  ??4EmbedderGraph@v8@@QEAAAEAV01@AEBV01@@Z
  ??4EmbedderHeapTracer@v8@@QEAAAEAV01@AEBV01@@Z
  ??4EmbedderRootsHandler@v8@@QEAAAEAV01@AEBV01@@Z
  ??4EmbedderState@internal@v8@@QEAAAEAV012@AEBV012@@Z
  ??4EnsureGCInfoIndexTrait@internal@cppgc@@QEAAAEAU012@$$QEAU012@@Z
  ??4EnsureGCInfoIndexTrait@internal@cppgc@@QEAAAEAU012@AEBU012@@Z
  ??4Entry@TypeProfile@debug@v8@@QEAAAEAV0123@$$QEAV0123@@Z
  ??4EphemeronHashTable@internal@v8@@QEAAAEAV012@$$QEAV012@@Z
  ??4EphemeronHashTable@internal@v8@@QEAAAEAV012@AEBV012@@Z
  ??4Exception@v8@@QEAAAEAV01@$$QEAV01@@Z
  ??4Exception@v8@@QEAAAEAV01@AEBV01@@Z
  ??4Exported@protocol@v8_inspector@@QEAAAEAV012@AEBV012@@Z
  ??4External@v8@@QEAAAEAV01@$$QEAV01@@Z
  ??4External@v8@@QEAAAEAV01@AEBV01@@Z
  ??4ExternalResourceVisitor@v8@@QEAAAEAV01@AEBV01@@Z
  ??4ExternalSourceStream@ScriptCompiler@v8@@QEAAAEAV012@AEBV012@@Z
  ??4Factory@internal@v8@@QEAAAEAV012@$$QEAV012@@Z
  ??4Factory@internal@v8@@QEAAAEAV012@AEBV012@@Z
  ??4FeedbackIterator@internal@v8@@QEAAAEAV012@$$QEAV012@@Z
  ??4FeedbackIterator@internal@v8@@QEAAAEAV012@AEBV012@@Z
  ??4FeedbackVectorSpec@internal@v8@@QEAAAEAV012@$$QEAV012@@Z
  ??4FeedbackVectorSpec@internal@v8@@QEAAAEAV012@AEBV012@@Z
  ??4FixedArray@v8@@QEAAAEAV01@$$QEAV01@@Z
  ??4FixedArray@v8@@QEAAAEAV01@AEBV01@@Z
  ??4FlagList@internal@v8@@QEAAAEAV012@$$QEAV012@@Z
  ??4FlagList@internal@v8@@QEAAAEAV012@AEBV012@@Z
  ??4Float32Array@v8@@QEAAAEAV01@$$QEAV01@@Z
  ??4Float32Array@v8@@QEAAAEAV01@AEBV01@@Z
  ??4Float64Array@v8@@QEAAAEAV01@$$QEAV01@@Z
  ??4Float64Array@v8@@QEAAAEAV01@AEBV01@@Z
  ??4FreeList@internal@cppgc@@QEAAAEAV012@$$QEAV012@@Z
  ??4Function@v8@@QEAAAEAV01@$$QEAV01@@Z
  ??4Function@v8@@QEAAAEAV01@AEBV01@@Z
  ??4FunctionData@Coverage@debug@v8@@QEAAAEAV0123@$$QEAV0123@@Z
  ??4FunctionTargetAndRef@internal@v8@@QEAAAEAV012@$$QEAV012@@Z
  ??4FunctionTargetAndRef@internal@v8@@QEAAAEAV012@AEBV012@@Z
  ??4FunctionTemplate@v8@@QEAAAEAV01@$$QEAV01@@Z
  ??4FunctionTemplate@v8@@QEAAAEAV01@AEBV01@@Z
  ??4GlobalDictionary@internal@v8@@QEAAAEAV012@$$QEAV012@@Z
  ??4GlobalDictionary@internal@v8@@QEAAAEAV012@AEBV012@@Z
  ??4GlobalDictionaryShape@internal@v8@@QEAAAEAV012@$$QEAV012@@Z
  ??4GlobalDictionaryShape@internal@v8@@QEAAAEAV012@AEBV012@@Z
  ??4HashTableBase@internal@v8@@QEAAAEAV012@$$QEAV012@@Z
  ??4HashTableBase@internal@v8@@QEAAAEAV012@AEBV012@@Z
  ??4Heap@cppgc@@QEAAAEAV01@AEBV01@@Z
  ??4HeapCodeStatistics@v8@@QEAAAEAV01@$$QEAV01@@Z
  ??4HeapCodeStatistics@v8@@QEAAAEAV01@AEBV01@@Z
  ??4HeapConstantType@compiler@internal@v8@@QEAAAEAV0123@$$QEAV0123@@Z
  ??4HeapConstantType@compiler@internal@v8@@QEAAAEAV0123@AEBV0123@@Z
  ??4HeapGraphEdge@v8@@QEAAAEAV01@$$QEAV01@@Z
  ??4HeapGraphEdge@v8@@QEAAAEAV01@AEBV01@@Z
  ??4HeapGraphNode@v8@@QEAAAEAV01@$$QEAV01@@Z
  ??4HeapGraphNode@v8@@QEAAAEAV01@AEBV01@@Z
  ??4HeapHandle@cppgc@@QEAAAEAV01@$$QEAV01@@Z
  ??4HeapHandle@cppgc@@QEAAAEAV01@AEBV01@@Z
  ??4HeapObjectStatistics@v8@@QEAAAEAV01@$$QEAV01@@Z
  ??4HeapObjectStatistics@v8@@QEAAAEAV01@AEBV01@@Z
  ??4HeapRegistry@internal@cppgc@@QEAAAEAV012@$$QEAV012@@Z
  ??4HeapRegistry@internal@cppgc@@QEAAAEAV012@AEBV012@@Z
  ??4HeapSnapshot@v8@@QEAAAEAV01@$$QEAV01@@Z
  ??4HeapSnapshot@v8@@QEAAAEAV01@AEBV01@@Z
  ??4HeapSpaceStatistics@v8@@QEAAAEAV01@$$QEAV01@@Z
  ??4HeapSpaceStatistics@v8@@QEAAAEAV01@AEBV01@@Z
  ??4HeapState@subtle@cppgc@@QEAAAEAV012@$$QEAV012@@Z
  ??4HeapState@subtle@cppgc@@QEAAAEAV012@AEBV012@@Z
  ??4HeapStatistics@v8@@QEAAAEAV01@$$QEAV01@@Z
  ??4HeapStatistics@v8@@QEAAAEAV01@AEBV01@@Z
  ??4HiddenFactory@internal@v8@@QEAAAEAV012@$$QEAV012@@Z
  ??4HiddenFactory@internal@v8@@QEAAAEAV012@AEBV012@@Z
  ??4HiddenLocalFactory@internal@v8@@QEAAAEAV012@$$QEAV012@@Z
  ??4HiddenLocalFactory@internal@v8@@QEAAAEAV012@AEBV012@@Z
  ??4I32PairToBigIntDescriptor@internal@v8@@QEAAAEAV012@$$QEAV012@@Z
  ??4I32PairToBigIntDescriptor@internal@v8@@QEAAAEAV012@AEBV012@@Z
  ??4I64ToBigIntDescriptor@internal@v8@@QEAAAEAV012@$$QEAV012@@Z
  ??4I64ToBigIntDescriptor@internal@v8@@QEAAAEAV012@AEBV012@@Z
  ??4ImportAssertionsKeyComparer@internal@v8@@QEAAAEAU012@$$QEAU012@@Z
  ??4ImportAssertionsKeyComparer@internal@v8@@QEAAAEAU012@AEBU012@@Z
  ??4InitializationResult@node@@QEAAAEAV01@AEBV01@@Z
  ??4Inputs@Node@compiler@internal@v8@@QEAAAEAV01234@$$QEAV01234@@Z
  ??4Inputs@Node@compiler@internal@v8@@QEAAAEAV01234@AEBV01234@@Z
  ??4Inspectable@V8InspectorSession@v8_inspector@@QEAAAEAV012@AEBV012@@Z
  ??4InstantiationResultResolver@wasm@internal@v8@@QEAAAEAV0123@AEBV0123@@Z
  ??4InstructionOperand@compiler@internal@v8@@QEAAAEAV0123@$$QEAV0123@@Z
  ??4InstructionOperand@compiler@internal@v8@@QEAAAEAV0123@AEBV0123@@Z
  ??4Int16Array@v8@@QEAAAEAV01@$$QEAV01@@Z
  ??4Int16Array@v8@@QEAAAEAV01@AEBV01@@Z
  ??4Int32@v8@@QEAAAEAV01@$$QEAV01@@Z
  ??4Int32@v8@@QEAAAEAV01@AEBV01@@Z
  ??4Int32Array@v8@@QEAAAEAV01@$$QEAV01@@Z
  ??4Int32Array@v8@@QEAAAEAV01@AEBV01@@Z
  ??4Int64LoweringSpecialCase@compiler@internal@v8@@QEAAAEAU0123@$$QEAU0123@@Z
  ??4Int64LoweringSpecialCase@compiler@internal@v8@@QEAAAEAU0123@AEBU0123@@Z
  ??4Int8Array@v8@@QEAAAEAV01@$$QEAV01@@Z
  ??4Int8Array@v8@@QEAAAEAV01@AEBV01@@Z
  ??4Integer@v8@@QEAAAEAV01@$$QEAV01@@Z
  ??4Integer@v8@@QEAAAEAV01@AEBV01@@Z
  ??4InterpreterDispatchDescriptor@internal@v8@@QEAAAEAV012@$$QEAV012@@Z
  ??4InterpreterDispatchDescriptor@internal@v8@@QEAAAEAV012@AEBV012@@Z
  ??4InvalidatedSlotsCleanup@internal@v8@@QEAAAEAV012@$$QEAV012@@Z
  ??4InvalidatedSlotsCleanup@internal@v8@@QEAAAEAV012@AEBV012@@Z
  ??4InvalidatedSlotsFilter@internal@v8@@QEAAAEAV012@$$QEAV012@@Z
  ??4InvalidatedSlotsFilter@internal@v8@@QEAAAEAV012@AEBV012@@Z
  ??4IrOpcode@compiler@internal@v8@@QEAAAEAV0123@$$QEAV0123@@Z
  ??4IrOpcode@compiler@internal@v8@@QEAAAEAV0123@AEBV0123@@Z
  ??4IrregexpInterpreter@internal@v8@@QEAAAEAV012@$$QEAV012@@Z
  ??4IrregexpInterpreter@internal@v8@@QEAAAEAV012@AEBV012@@Z
  ??4IsolatePlatformDelegate@node@@QEAAAEAV01@$$QEAV01@@Z
  ??4IsolatePlatformDelegate@node@@QEAAAEAV01@AEBV01@@Z
  ??4JSFunctionRef@compiler@internal@v8@@QEAAAEAV0123@$$QEAV0123@@Z
  ??4JSFunctionRef@compiler@internal@v8@@QEAAAEAV0123@AEBV0123@@Z
  ??4JSON@v8@@QEAAAEAV01@$$QEAV01@@Z
  ??4JSON@v8@@QEAAAEAV01@AEBV01@@Z
  ??4JumpTableTargetOffset@interpreter@internal@v8@@QEAAAEAU0123@$$QEAU0123@@Z
  ??4JumpTableTargetOffset@interpreter@internal@v8@@QEAAAEAU0123@AEBU0123@@Z
  ??4JumpTableTargetOffsets@interpreter@internal@v8@@QEAAAEAV0123@$$QEAV0123@@Z
  ??4JumpTableTargetOffsets@interpreter@internal@v8@@QEAAAEAV0123@AEBV0123@@Z
  ??4JumpThreading@compiler@internal@v8@@QEAAAEAV0123@$$QEAV0123@@Z
  ??4JumpThreading@compiler@internal@v8@@QEAAAEAV0123@AEBV0123@@Z
  ??4LiveEdit@internal@v8@@QEAAAEAV012@$$QEAV012@@Z
  ??4LiveEdit@internal@v8@@QEAAAEAV012@AEBV012@@Z
  ??4LivenessBroker@cppgc@@QEAAAEAV01@$$QEAV01@@Z
  ??4LivenessBroker@cppgc@@QEAAAEAV01@AEBV01@@Z
  ??4LivenessBrokerFactory@internal@cppgc@@QEAAAEAV012@$$QEAV012@@Z
  ??4LivenessBrokerFactory@internal@cppgc@@QEAAAEAV012@AEBV012@@Z
  ??4LocalAllocationBuffer@internal@v8@@QEAAAEAV012@$$QEAV012@@Z
  ??4LocalDeclEncoder@wasm@internal@v8@@QEAAAEAV0123@$$QEAV0123@@Z
  ??4LocalDeclEncoder@wasm@internal@v8@@QEAAAEAV0123@AEBV0123@@Z
  ??4LocalFactory@internal@v8@@QEAAAEAV012@$$QEAV012@@Z
  ??4LocalFactory@internal@v8@@QEAAAEAV012@AEBV012@@Z
  ??4Location@debug@v8@@QEAAAEAV012@$$QEAV012@@Z
  ??4Location@debug@v8@@QEAAAEAV012@AEBV012@@Z
  ??4Location@v8@@QEAAAEAV01@$$QEAV01@@Z
  ??4Location@v8@@QEAAAEAV01@AEBV01@@Z
  ??4LongTaskStats@metrics@v8@@QEAAAEAU012@$$QEAU012@@Z
  ??4LongTaskStats@metrics@v8@@QEAAAEAU012@AEBU012@@Z
  ??4LoopFinder@compiler@internal@v8@@QEAAAEAV0123@$$QEAV0123@@Z
  ??4LoopFinder@compiler@internal@v8@@QEAAAEAV0123@AEBV0123@@Z
  ??4MakeGarbageCollectedTraitInternal@internal@cppgc@@QEAAAEAV012@$$QEAV012@@Z
  ??4MakeGarbageCollectedTraitInternal@internal@cppgc@@QEAAAEAV012@AEBV012@@Z
  ??4Malloced@internal@v8@@QEAAAEAV012@$$QEAV012@@Z
  ??4Malloced@internal@v8@@QEAAAEAV012@AEBV012@@Z
  ??4Map@v8@@QEAAAEAV01@$$QEAV01@@Z
  ??4Map@v8@@QEAAAEAV01@AEBV01@@Z
  ??4MapRef@compiler@internal@v8@@QEAAAEAV0123@$$QEAV0123@@Z
  ??4MapRef@compiler@internal@v8@@QEAAAEAV0123@AEBV0123@@Z
  ??4MapUpdater@internal@v8@@QEAAAEAV012@$$QEAV012@@Z
  ??4MapUpdater@internal@v8@@QEAAAEAV012@AEBV012@@Z
  ??4MeasureMemoryDelegate@internal@v8@@QEAAAEAV012@AEBV012@@Z
  ??4MeasureMemoryDelegate@v8@@QEAAAEAV01@AEBV01@@Z
  ??4MemoryChunkLayout@internal@v8@@QEAAAEAV012@$$QEAV012@@Z
  ??4MemoryChunkLayout@internal@v8@@QEAAAEAV012@AEBV012@@Z
  ??4MemoryMappedFile@OS@base@v8@@QEAAAEAV0123@AEBV0123@@Z
  ??4MemoryRegion@internal@cppgc@@QEAAAEAV012@$$QEAV012@@Z
  ??4MemoryRegion@internal@cppgc@@QEAAAEAV012@AEBV012@@Z
  ??4Message@v8@@QEAAAEAV01@$$QEAV01@@Z
  ??4Message@v8@@QEAAAEAV01@AEBV01@@Z
  ??4MessageLocation@internal@v8@@QEAAAEAV012@$$QEAV012@@Z
  ??4MessageLocation@internal@v8@@QEAAAEAV012@AEBV012@@Z
  ??4Module@v8@@QEAAAEAV01@$$QEAV01@@Z
  ??4Module@v8@@QEAAAEAV01@AEBV01@@Z
  ??4ModuleRequest@v8@@QEAAAEAV01@$$QEAV01@@Z
  ??4ModuleRequest@v8@@QEAAAEAV01@AEBV01@@Z
  ??4ModuleRequestComparer@SourceTextModuleDescriptor@internal@v8@@QEAAAEAU0123@$$QEAU0123@@Z
  ??4ModuleRequestComparer@SourceTextModuleDescriptor@internal@v8@@QEAAAEAU0123@AEBU0123@@Z
  ??4ModuleWireBytes@wasm@internal@v8@@QEAAAEAU0123@$$QEAU0123@@Z
  ??4ModuleWireBytes@wasm@internal@v8@@QEAAAEAU0123@AEBU0123@@Z
  ??4MultiIsolatePlatform@node@@QEAAAEAV01@AEBV01@@Z
  ??4Name@v8@@QEAAAEAV01@$$QEAV01@@Z
  ??4Name@v8@@QEAAAEAV01@AEBV01@@Z
  ??4NameDictionary@internal@v8@@QEAAAEAV012@$$QEAV012@@Z
  ??4NameDictionary@internal@v8@@QEAAAEAV012@AEBV012@@Z
  ??4NameProvider@cppgc@@QEAAAEAV01@AEBV01@@Z
  ??4NameToIndexHashTable@internal@v8@@QEAAAEAV012@$$QEAV012@@Z
  ??4NameToIndexHashTable@internal@v8@@QEAAAEAV012@AEBV012@@Z
  ??4NameTraitBase@internal@cppgc@@QEAAAEAV012@$$QEAV012@@Z
  ??4NameTraitBase@internal@cppgc@@QEAAAEAV012@AEBV012@@Z
  ??4NativeContextInferrer@internal@v8@@QEAAAEAV012@$$QEAV012@@Z
  ??4NativeContextInferrer@internal@v8@@QEAAAEAV012@AEBV012@@Z
  ??4NativeContextStats@internal@v8@@QEAAAEAV012@$$QEAV012@@Z
  ??4NativeContextStats@internal@v8@@QEAAAEAV012@AEBV012@@Z
  ??4NodeProperties@compiler@internal@v8@@QEAAAEAV0123@$$QEAV0123@@Z
  ??4NodeProperties@compiler@internal@v8@@QEAAAEAV0123@AEBV0123@@Z
  ??4NormalPageMemoryPool@internal@cppgc@@QEAAAEAV012@AEBV012@@Z
  ??4Number@v8@@QEAAAEAV01@$$QEAV01@@Z
  ??4Number@v8@@QEAAAEAV01@AEBV01@@Z
  ??4NumberObject@v8@@QEAAAEAV01@$$QEAV01@@Z
  ??4NumberObject@v8@@QEAAAEAV01@AEBV01@@Z
  ??4OSROptimizedCodeCache@internal@v8@@QEAAAEAV012@$$QEAV012@@Z
  ??4OSROptimizedCodeCache@internal@v8@@QEAAAEAV012@AEBV012@@Z
  ??4Object@v8@@QEAAAEAV01@$$QEAV01@@Z
  ??4Object@v8@@QEAAAEAV01@AEBV01@@Z
  ??4ObjectHashSet@internal@v8@@QEAAAEAV012@$$QEAV012@@Z
  ??4ObjectHashSet@internal@v8@@QEAAAEAV012@AEBV012@@Z
  ??4ObjectHashTable@internal@v8@@QEAAAEAV012@$$QEAV012@@Z
  ??4ObjectHashTable@internal@v8@@QEAAAEAV012@AEBV012@@Z
  ??4ObjectIterator@internal@v8@@QEAAAEAV012@AEBV012@@Z
  ??4ObjectRef@compiler@internal@v8@@QEAAAEAV0123@$$QEAV0123@@Z
  ??4ObjectRef@compiler@internal@v8@@QEAAAEAV0123@AEBV0123@@Z
  ??4ObjectTemplate@v8@@QEAAAEAV01@$$QEAV01@@Z
  ??4ObjectTemplate@v8@@QEAAAEAV01@AEBV01@@Z
  ??4Operand@internal@v8@@QEAAAEAV012@AEBV012@@Z
  ??4OrderedHashMap@internal@v8@@QEAAAEAV012@$$QEAV012@@Z
  ??4OrderedHashMap@internal@v8@@QEAAAEAV012@AEBV012@@Z
  ??4OrderedHashMapHandler@internal@v8@@QEAAAEAV012@$$QEAV012@@Z
  ??4OrderedHashMapHandler@internal@v8@@QEAAAEAV012@AEBV012@@Z
  ??4OrderedHashSet@internal@v8@@QEAAAEAV012@$$QEAV012@@Z
  ??4OrderedHashSet@internal@v8@@QEAAAEAV012@AEBV012@@Z
  ??4OrderedHashSetHandler@internal@v8@@QEAAAEAV012@$$QEAV012@@Z
  ??4OrderedHashSetHandler@internal@v8@@QEAAAEAV012@AEBV012@@Z
  ??4OrderedNameDictionary@internal@v8@@QEAAAEAV012@$$QEAV012@@Z
  ??4OrderedNameDictionary@internal@v8@@QEAAAEAV012@AEBV012@@Z
  ??4OrderedNameDictionaryHandler@internal@v8@@QEAAAEAV012@$$QEAV012@@Z
  ??4OrderedNameDictionaryHandler@internal@v8@@QEAAAEAV012@AEBV012@@Z
  ??4OutputStream@v8@@QEAAAEAV01@AEBV01@@Z
  ??4PageMemory@internal@cppgc@@QEAAAEAV012@$$QEAV012@@Z
  ??4PageMemory@internal@cppgc@@QEAAAEAV012@AEBV012@@Z
  ??4PageMemoryRegionTree@internal@cppgc@@QEAAAEAV012@AEBV012@@Z
  ??4PagedSpaceIterator@internal@v8@@QEAAAEAV012@$$QEAV012@@Z
  ??4PagedSpaceIterator@internal@v8@@QEAAAEAV012@AEBV012@@Z
  ??4PeeledIteration@compiler@internal@v8@@QEAAAEAV0123@$$QEAV0123@@Z
  ??4PeeledIteration@compiler@internal@v8@@QEAAAEAV0123@AEBV0123@@Z
  ??4PersistentHandleVisitor@v8@@QEAAAEAV01@AEBV01@@Z
  ??4PersistentRegionLock@internal@cppgc@@QEAAAEAV012@AEBV012@@Z
  ??4Platform@cppgc@@QEAAAEAV01@AEBV01@@Z
  ??4PrefinalizerRegistration@internal@cppgc@@QEAAAEAV012@$$QEAV012@@Z
  ??4PrefinalizerRegistration@internal@cppgc@@QEAAAEAV012@AEBV012@@Z
  ??4Primitive@v8@@QEAAAEAV01@$$QEAV01@@Z
  ??4Primitive@v8@@QEAAAEAV01@AEBV01@@Z
  ??4PrimitiveArray@v8@@QEAAAEAV01@$$QEAV01@@Z
  ??4PrimitiveArray@v8@@QEAAAEAV01@AEBV01@@Z
  ??4Private@v8@@QEAAAEAV01@$$QEAV01@@Z
  ??4Private@v8@@QEAAAEAV01@AEBV01@@Z
  ??4ProcessHeapStatistics@cppgc@@QEAAAEAV01@$$QEAV01@@Z
  ??4ProcessHeapStatistics@cppgc@@QEAAAEAV01@AEBV01@@Z
  ??4Promise@v8@@QEAAAEAV01@$$QEAV01@@Z
  ??4Promise@v8@@QEAAAEAV01@AEBV01@@Z
  ??4PropertyIterator@debug@v8@@QEAAAEAV012@AEBV012@@Z
  ??4Proxy@v8@@QEAAAEAV01@$$QEAV01@@Z
  ??4Proxy@v8@@QEAAAEAV01@AEBV01@@Z
  ??4RandomNumberGenerator@base@v8@@QEAAAEAV012@$$QEAV012@@Z
  ??4RandomNumberGenerator@base@v8@@QEAAAEAV012@AEBV012@@Z
  ??4Recorder@metrics@v8@@QEAAAEAV012@AEBV012@@Z
  ??4Reducer@compiler@internal@v8@@QEAAAEAV0123@AEBV0123@@Z
  ??4RegExp@v8@@QEAAAEAV01@$$QEAV01@@Z
  ??4RegExp@v8@@QEAAAEAV01@AEBV01@@Z
  ??4RegExpParser@internal@v8@@QEAAAEAV012@$$QEAV012@@Z
  ??4RegExpParser@internal@v8@@QEAAAEAV012@AEBV012@@Z
  ??4Register@interpreter@internal@v8@@QEAAAEAV0123@$$QEAV0123@@Z
  ??4Register@interpreter@internal@v8@@QEAAAEAV0123@AEBV0123@@Z
  ??4RegisterState@v8@@QEAAAEAU01@AEBU01@@Z
  ??4RemoteObject@API@Runtime@protocol@v8_inspector@@QEAAAEAV01234@$$QEAV01234@@Z
  ??4RemoteObject@API@Runtime@protocol@v8_inspector@@QEAAAEAV01234@AEBV01234@@Z
  ??4RepresentationChanger@compiler@internal@v8@@QEAAAEAV0123@$$QEAV0123@@Z
  ??4RepresentationChanger@compiler@internal@v8@@QEAAAEAV0123@AEBV0123@@Z
  ??4Resolver@Promise@v8@@QEAAAEAV012@$$QEAV012@@Z
  ??4Resolver@Promise@v8@@QEAAAEAV012@AEBV012@@Z
  ??4ResourceConstraints@v8@@QEAAAEAV01@$$QEAV01@@Z
  ??4ResourceConstraints@v8@@QEAAAEAV01@AEBV01@@Z
  ??4ResumeJumpTarget@compiler@internal@v8@@QEAAAEAV0123@$$QEAV0123@@Z
  ??4ResumeJumpTarget@compiler@internal@v8@@QEAAAEAV0123@AEBV0123@@Z
  ??4SameThreadEnabledCheckingPolicyBase@internal@cppgc@@QEAAAEAV012@$$QEAV012@@Z
  ??4SameThreadEnabledCheckingPolicyBase@internal@cppgc@@QEAAAEAV012@AEBV012@@Z
  ??4ScannerStream@internal@v8@@QEAAAEAV012@$$QEAV012@@Z
  ??4ScannerStream@internal@v8@@QEAAAEAV012@AEBV012@@Z
  ??4ScheduleVerifier@compiler@internal@v8@@QEAAAEAV0123@$$QEAV0123@@Z
  ??4ScheduleVerifier@compiler@internal@v8@@QEAAAEAV0123@AEBV0123@@Z
  ??4Script@debug@v8@@QEAAAEAV012@$$QEAV012@@Z
  ??4Script@debug@v8@@QEAAAEAV012@AEBV012@@Z
  ??4Script@v8@@QEAAAEAV01@$$QEAV01@@Z
  ??4Script@v8@@QEAAAEAV01@AEBV01@@Z
  ??4ScriptCompiler@v8@@QEAAAEAV01@$$QEAV01@@Z
  ??4ScriptCompiler@v8@@QEAAAEAV01@AEBV01@@Z
  ??4ScriptData@Coverage@debug@v8@@QEAAAEAV0123@$$QEAV0123@@Z
  ??4ScriptData@TypeProfile@debug@v8@@QEAAAEAV0123@$$QEAV0123@@Z
  ??4ScriptOrModule@v8@@QEAAAEAV01@$$QEAV01@@Z
  ??4ScriptOrModule@v8@@QEAAAEAV01@AEBV01@@Z
  ??4ScriptSource@debug@v8@@QEAAAEAV012@$$QEAV012@@Z
  ??4ScriptSource@debug@v8@@QEAAAEAV012@AEBV012@@Z
  ??4ScriptStreamingTask@ScriptCompiler@v8@@QEAAAEAV012@$$QEAV012@@Z
  ??4ScriptStreamingTask@ScriptCompiler@v8@@QEAAAEAV012@AEBV012@@Z
  ??4SearchMatch@API@Debugger@protocol@v8_inspector@@QEAAAEAV01234@$$QEAV01234@@Z
  ??4SearchMatch@API@Debugger@protocol@v8_inspector@@QEAAAEAV01234@AEBV01234@@Z
  ??4Set@v8@@QEAAAEAV01@$$QEAV01@@Z
  ??4Set@v8@@QEAAAEAV01@AEBV01@@Z
  ??4SharedArrayBuffer@v8@@QEAAAEAV01@$$QEAV01@@Z
  ??4SharedArrayBuffer@v8@@QEAAAEAV01@AEBV01@@Z
  ??4SharedFunctionInfoRef@compiler@internal@v8@@QEAAAEAV0123@$$QEAV0123@@Z
  ??4SharedFunctionInfoRef@compiler@internal@v8@@QEAAAEAV0123@AEBV0123@@Z
  ??4SharedMemoryStatistics@v8@@QEAAAEAV01@$$QEAV01@@Z
  ??4SharedMemoryStatistics@v8@@QEAAAEAV01@AEBV01@@Z
  ??4Signature@v8@@QEAAAEAV01@$$QEAV01@@Z
  ??4Signature@v8@@QEAAAEAV01@AEBV01@@Z
  ??4SignatureMap@wasm@internal@v8@@QEAAAEAV0123@$$QEAV0123@@Z
  ??4SimdShuffle@wasm@internal@v8@@QEAAAEAV0123@$$QEAV0123@@Z
  ??4SimdShuffle@wasm@internal@v8@@QEAAAEAV0123@AEBV0123@@Z
  ??4SimdSwizzle@wasm@internal@v8@@QEAAAEAV0123@$$QEAV0123@@Z
  ??4SimdSwizzle@wasm@internal@v8@@QEAAAEAV0123@AEBV0123@@Z
  ??4SourceIdAssigner@compiler@internal@v8@@QEAAAEAV0123@$$QEAV0123@@Z
  ??4SourceIdAssigner@compiler@internal@v8@@QEAAAEAV0123@AEBV0123@@Z
  ??4SourceLocation@cppgc@@QEAAAEAV01@$$QEAV01@@Z
  ??4SourceLocation@cppgc@@QEAAAEAV01@AEBV01@@Z
  ??4SourcePositionTableBuilder@internal@v8@@QEAAAEAV012@$$QEAV012@@Z
  ??4SourcePositionTableBuilder@internal@v8@@QEAAAEAV012@AEBV012@@Z
  ??4SourcePositionTableIterator@internal@v8@@QEAAAEAV012@$$QEAV012@@Z
  ??4SourcePositionTableIterator@internal@v8@@QEAAAEAV012@AEBV012@@Z
  ??4SpaceIterator@internal@v8@@QEAAAEAV012@AEBV012@@Z
  ??4Stack@base@heap@@QEAAAEAV012@$$QEAV012@@Z
  ??4Stack@base@heap@@QEAAAEAV012@AEBV012@@Z
  ??4Stack@base@v8@@QEAAAEAV012@$$QEAV012@@Z
  ??4Stack@base@v8@@QEAAAEAV012@AEBV012@@Z
  ??4StackFrame@v8@@QEAAAEAV01@$$QEAV01@@Z
  ??4StackFrame@v8@@QEAAAEAV01@AEBV01@@Z
  ??4StackTrace@API@Runtime@protocol@v8_inspector@@QEAAAEAV01234@$$QEAV01234@@Z
  ??4StackTrace@API@Runtime@protocol@v8_inspector@@QEAAAEAV01234@AEBV01234@@Z
  ??4StackTrace@debug@base@v8@@QEAAAEAV0123@AEBV0123@@Z
  ??4StackTrace@v8@@QEAAAEAV01@$$QEAV01@@Z
  ??4StackTrace@v8@@QEAAAEAV01@AEBV01@@Z
  ??4StackTraceId@API@Runtime@protocol@v8_inspector@@QEAAAEAV01234@$$QEAV01234@@Z
  ??4StackTraceId@API@Runtime@protocol@v8_inspector@@QEAAAEAV01234@AEBV01234@@Z
  ??4StartupData@v8@@QEAAAEAV01@$$QEAV01@@Z
  ??4StartupData@v8@@QEAAAEAV01@AEBV01@@Z
  ??4StateValuesAccess@compiler@internal@v8@@QEAAAEAV0123@$$QEAV0123@@Z
  ??4StateValuesAccess@compiler@internal@v8@@QEAAAEAV0123@AEBV0123@@Z
  ??4StreamingDecoder@wasm@internal@v8@@QEAAAEAV0123@AEBV0123@@Z
  ??4StreamingProcessor@wasm@internal@v8@@QEAAAEAV0123@AEBV0123@@Z
  ??4String@v8@@QEAAAEAV01@$$QEAV01@@Z
  ??4String@v8@@QEAAAEAV01@AEBV01@@Z
  ??4StringBuffer@v8_inspector@@QEAAAEAV01@AEBV01@@Z
  ??4StringHasher@internal@v8@@QEAAAEAV012@$$QEAV012@@Z
  ??4StringHasher@internal@v8@@QEAAAEAV012@AEBV012@@Z
  ??4StringObject@v8@@QEAAAEAV01@$$QEAV01@@Z
  ??4StringObject@v8@@QEAAAEAV01@AEBV01@@Z
  ??4StringView@v8_inspector@@QEAAAEAV01@$$QEAV01@@Z
  ??4StringView@v8_inspector@@QEAAAEAV01@AEBV01@@Z
  ??4SwissNameDictionary@internal@v8@@QEAAAEAV012@$$QEAV012@@Z
  ??4SwissNameDictionary@internal@v8@@QEAAAEAV012@AEBV012@@Z
  ??4Symbol@v8@@QEAAAEAV01@$$QEAV01@@Z
  ??4Symbol@v8@@QEAAAEAV01@AEBV01@@Z
  ??4SymbolObject@v8@@QEAAAEAV01@$$QEAV01@@Z
  ??4SymbolObject@v8@@QEAAAEAV01@AEBV01@@Z
  ??4SysInfo@base@v8@@QEAAAEAV012@$$QEAV012@@Z
  ??4SysInfo@base@v8@@QEAAAEAV012@AEBV012@@Z
  ??4Template@v8@@QEAAAEAV01@$$QEAV01@@Z
  ??4Template@v8@@QEAAAEAV01@AEBV01@@Z
  ??4TemporalParser@internal@v8@@QEAAAEAV012@$$QEAV012@@Z
  ??4TemporalParser@internal@v8@@QEAAAEAV012@AEBV012@@Z
  ??4ThreadTicks@base@v8@@QEAAAEAV012@$$QEAV012@@Z
  ??4ThreadTicks@base@v8@@QEAAAEAV012@AEBV012@@Z
  ??4TickSample@internal@v8@@QEAAAEAU012@$$QEAU012@@Z
  ??4TickSample@internal@v8@@QEAAAEAU012@AEBU012@@Z
  ??4Time@base@v8@@QEAAAEAV012@$$QEAV012@@Z
  ??4Time@base@v8@@QEAAAEAV012@AEBV012@@Z
  ??4TimeDelta@base@v8@@QEAAAEAV012@$$QEAV012@@Z
  ??4TimeDelta@base@v8@@QEAAAEAV012@AEBV012@@Z
  ??4TimeTicks@base@v8@@QEAAAEAV012@$$QEAV012@@Z
  ??4TimeTicks@base@v8@@QEAAAEAV012@AEBV012@@Z
  ??4Token@internal@v8@@QEAAAEAV012@$$QEAV012@@Z
  ??4Token@internal@v8@@QEAAAEAV012@AEBV012@@Z
  ??4TraceTraitFromInnerAddressImpl@internal@cppgc@@QEAAAEAU012@$$QEAU012@@Z
  ??4TraceTraitFromInnerAddressImpl@internal@cppgc@@QEAAAEAU012@AEBU012@@Z
  ??4TracedGlobalHandleVisitor@EmbedderHeapTracer@v8@@QEAAAEAV012@AEBV012@@Z
  ??4Type@compiler@internal@v8@@QEAAAEAV0123@$$QEAV0123@@Z
  ??4Type@compiler@internal@v8@@QEAAAEAV0123@AEBV0123@@Z
  ??4TypeProfile@debug@v8@@QEAAAEAV012@$$QEAV012@@Z
  ??4TypedArray@v8@@QEAAAEAV01@$$QEAV01@@Z
  ??4TypedArray@v8@@QEAAAEAV01@AEBV01@@Z
  ??4TypedSlotSet@internal@v8@@QEAAAEAV012@$$QEAV012@@Z
  ??4TypedSlotSet@internal@v8@@QEAAAEAV012@AEBV012@@Z
  ??4TypedSlots@internal@v8@@QEAAAEAV012@AEBV012@@Z
  ??4Uint16Array@v8@@QEAAAEAV01@$$QEAV01@@Z
  ??4Uint16Array@v8@@QEAAAEAV01@AEBV01@@Z
  ??4Uint32@v8@@QEAAAEAV01@$$QEAV01@@Z
  ??4Uint32@v8@@QEAAAEAV01@AEBV01@@Z
  ??4Uint32Array@v8@@QEAAAEAV01@$$QEAV01@@Z
  ??4Uint32Array@v8@@QEAAAEAV01@AEBV01@@Z
  ??4Uint8Array@v8@@QEAAAEAV01@$$QEAV01@@Z
  ??4Uint8Array@v8@@QEAAAEAV01@AEBV01@@Z
  ??4Uint8ClampedArray@v8@@QEAAAEAV01@$$QEAV01@@Z
  ??4Uint8ClampedArray@v8@@QEAAAEAV01@AEBV01@@Z
  ??4UnboundModuleScript@v8@@QEAAAEAV01@$$QEAV01@@Z
  ??4UnboundModuleScript@v8@@QEAAAEAV01@AEBV01@@Z
  ??4UnboundScript@v8@@QEAAAEAV01@$$QEAV01@@Z
  ??4UnboundScript@v8@@QEAAAEAV01@AEBV01@@Z
  ??4Unlocker@v8@@QEAAAEAV01@AEBV01@@Z
  ??4UnoptimizedCompileFlags@internal@v8@@QEAAAEAV012@$$QEAV012@@Z
  ??4UnoptimizedCompileFlags@internal@v8@@QEAAAEAV012@AEBV012@@Z
  ??4Unwinder@v8@@QEAAAEAV01@$$QEAV01@@Z
  ??4Unwinder@v8@@QEAAAEAV01@AEBV01@@Z
  ??4Uses@Node@compiler@internal@v8@@QEAAAEAV01234@$$QEAV01234@@Z
  ??4Uses@Node@compiler@internal@v8@@QEAAAEAV01234@AEBV01234@@Z
  ??4Utf8@unibrow@@QEAAAEAV01@$$QEAV01@@Z
  ??4Utf8@unibrow@@QEAAAEAV01@AEBV01@@Z
  ??4Utf8Decoder@internal@v8@@QEAAAEAV012@$$QEAV012@@Z
  ??4Utf8Decoder@internal@v8@@QEAAAEAV012@AEBV012@@Z
  ??4V8@v8@@QEAAAEAV01@$$QEAV01@@Z
  ??4V8@v8@@QEAAAEAV01@AEBV01@@Z
  ??4V8DebuggerId@v8_inspector@@QEAAAEAV01@AEBV01@@Z
  ??4V8Inspector@v8_inspector@@QEAAAEAV01@AEBV01@@Z
  ??4V8InspectorClient@v8_inspector@@QEAAAEAV01@AEBV01@@Z
  ??4V8InspectorSession@v8_inspector@@QEAAAEAV01@AEBV01@@Z
  ??4V8StackTrace@v8_inspector@@QEAAAEAV01@AEBV01@@Z
  ??4V8StackTraceId@v8_inspector@@QEAAAEAU01@$$QEAU01@@Z
  ??4V8StackTraceId@v8_inspector@@QEAAAEAU01@AEBU01@@Z
  ??4Value@v8@@QEAAAEAV01@$$QEAV01@@Z
  ??4Value@v8@@QEAAAEAV01@AEBV01@@Z
  ??4ValueNumberingReducer@compiler@internal@v8@@QEAAAEAV0123@AEBV0123@@Z
  ??4Version@internal@v8@@QEAAAEAV012@$$QEAV012@@Z
  ??4Version@internal@v8@@QEAAAEAV012@AEBV012@@Z
  ??4VirtualMemory@internal@cppgc@@QEAAAEAV012@$$QEAV012@@Z
  ??4Visitor@cppgc@@QEAAAEAV01@AEBV01@@Z
  ??4VoidDescriptor@internal@v8@@QEAAAEAV012@$$QEAV012@@Z
  ??4VoidDescriptor@internal@v8@@QEAAAEAV012@AEBV012@@Z
  ??4WasmCompilationUnit@wasm@internal@v8@@QEAAAEAV0123@$$QEAV0123@@Z
  ??4WasmCompilationUnit@wasm@internal@v8@@QEAAAEAV0123@AEBV0123@@Z
  ??4WasmDebugSymbols@wasm@internal@v8@@QEAAAEAU0123@$$QEAU0123@@Z
  ??4WasmDebugSymbols@wasm@internal@v8@@QEAAAEAU0123@AEBU0123@@Z
  ??4WasmError@wasm@internal@v8@@QEAAAEAV0123@$$QEAV0123@@Z
  ??4WasmError@wasm@internal@v8@@QEAAAEAV0123@AEBV0123@@Z
  ??4WasmExceptionPackage@internal@v8@@QEAAAEAV012@$$QEAV012@@Z
  ??4WasmExceptionPackage@internal@v8@@QEAAAEAV012@AEBV012@@Z
  ??4WasmFunctionBuilder@wasm@internal@v8@@QEAAAEAV0123@$$QEAV0123@@Z
  ??4WasmFunctionBuilder@wasm@internal@v8@@QEAAAEAV0123@AEBV0123@@Z
  ??4WasmInstanceObject@internal@v8@@QEAAAEAV012@$$QEAV012@@Z
  ??4WasmInstanceObject@internal@v8@@QEAAAEAV012@AEBV012@@Z
  ??4WasmMemoryObject@v8@@QEAAAEAV01@$$QEAV01@@Z
  ??4WasmMemoryObject@v8@@QEAAAEAV01@AEBV01@@Z
  ??4WasmModuleObject@v8@@QEAAAEAV01@$$QEAV01@@Z
  ??4WasmModuleObject@v8@@QEAAAEAV01@AEBV01@@Z
  ??4WasmModuleObjectBuilderStreaming@v8@@AEAAAEAV01@$$QEAV01@@Z
  ??4WasmModuleSourceMap@wasm@internal@v8@@QEAAAEAV0123@$$QEAV0123@@Z
  ??4WasmModuleSourceMap@wasm@internal@v8@@QEAAAEAV0123@AEBV0123@@Z
  ??4WasmOpcodes@wasm@internal@v8@@QEAAAEAV0123@$$QEAV0123@@Z
  ??4WasmOpcodes@wasm@internal@v8@@QEAAAEAV0123@AEBV0123@@Z
  ??4WasmValueObject@debug@v8@@QEAAAEAV012@$$QEAV012@@Z
  ??4WasmValueObject@debug@v8@@QEAAAEAV012@AEBV012@@Z
  ??4WebDriverValue@v8_inspector@@QEAAAEAV01@$$QEAV01@@Z
  ??4WebDriverValue@v8_inspector@@QEAAAEAV01@AEBV01@@Z
  ??4WriteBarrier@internal@cppgc@@QEAAAEAV012@$$QEAV012@@Z
  ??4WriteBarrier@internal@cppgc@@QEAAAEAV012@AEBV012@@Z
  ??4WriteBarrier@internal@v8@@QEAAAEAV012@$$QEAV012@@Z
  ??4WriteBarrier@internal@v8@@QEAAAEAV012@AEBV012@@Z
  ??4WriteBarrierTypeForNonCagedHeapPolicy@internal@cppgc@@QEAAAEAV012@$$QEAV012@@Z
  ??4WriteBarrierTypeForNonCagedHeapPolicy@internal@cppgc@@QEAAAEAV012@AEBV012@@Z
  ??4iterator@JumpTableTargetOffsets@interpreter@internal@v8@@QEAAAEAV01234@$$QEAV01234@@Z
  ??4iterator@JumpTableTargetOffsets@interpreter@internal@v8@@QEAAAEAV01234@AEBV01234@@Z
  ??4iterator@StateValuesAccess@compiler@internal@v8@@QEAAAEAV01234@$$QEAV01234@@Z
  ??4iterator@StateValuesAccess@compiler@internal@v8@@QEAAAEAV01234@AEBV01234@@Z
  ??6?$basic_ostream@DU?$char_traits@D@std@@@std@@QEAAAEAV01@F@Z
  ??6?$basic_ostream@DU?$char_traits@D@std@@@std@@QEAAAEAV01@G@Z
  ??6?$basic_ostream@DU?$char_traits@D@std@@@std@@QEAAAEAV01@H@Z
  ??6?$basic_ostream@DU?$char_traits@D@std@@@std@@QEAAAEAV01@I@Z
  ??6?$basic_ostream@DU?$char_traits@D@std@@@std@@QEAAAEAV01@J@Z
  ??6?$basic_ostream@DU?$char_traits@D@std@@@std@@QEAAAEAV01@K@Z
  ??6?$basic_ostream@DU?$char_traits@D@std@@@std@@QEAAAEAV01@M@Z
  ??6?$basic_ostream@DU?$char_traits@D@std@@@std@@QEAAAEAV01@N@Z
  ??6?$basic_ostream@DU?$char_traits@D@std@@@std@@QEAAAEAV01@O@Z
  ??6?$basic_ostream@DU?$char_traits@D@std@@@std@@QEAAAEAV01@P6AAEAV01@AEAV01@@Z@Z
  ??6?$basic_ostream@DU?$char_traits@D@std@@@std@@QEAAAEAV01@P6AAEAV?$basic_ios@DU?$char_traits@D@std@@@1@AEAV21@@Z@Z
  ??6?$basic_ostream@DU?$char_traits@D@std@@@std@@QEAAAEAV01@P6AAEAVios_base@1@AEAV21@@Z@Z
  ??6?$basic_ostream@DU?$char_traits@D@std@@@std@@QEAAAEAV01@PEAV?$basic_streambuf@DU?$char_traits@D@std@@@1@@Z
  ??6?$basic_ostream@DU?$char_traits@D@std@@@std@@QEAAAEAV01@PEBX@Z
  ??6?$basic_ostream@DU?$char_traits@D@std@@@std@@QEAAAEAV01@_J@Z
  ??6?$basic_ostream@DU?$char_traits@D@std@@@std@@QEAAAEAV01@_K@Z
  ??6?$basic_ostream@DU?$char_traits@D@std@@@std@@QEAAAEAV01@_N@Z
  ??6base@v8@@YAAEAV?$basic_ostream@DU?$char_traits@D@std@@@std@@AEAV23@AEBVTime@01@@Z
  ??6compiler@internal@v8@@YAAEAV?$basic_ostream@DU?$char_traits@D@std@@@std@@AEAV34@AEBUAsRPO@012@@Z
  ??6compiler@internal@v8@@YAAEAV?$basic_ostream@DU?$char_traits@D@std@@@std@@AEAV34@AEBUConstFieldInfo@012@@Z
  ??6compiler@internal@v8@@YAAEAV?$basic_ostream@DU?$char_traits@D@std@@@std@@AEAV34@AEBUElementAccess@012@@Z
  ??6compiler@internal@v8@@YAAEAV?$basic_ostream@DU?$char_traits@D@std@@@std@@AEAV34@AEBUFeedbackSource@012@@Z
  ??6compiler@internal@v8@@YAAEAV?$basic_ostream@DU?$char_traits@D@std@@@std@@AEAV34@AEBUFieldAccess@012@@Z
  ??6compiler@internal@v8@@YAAEAV?$basic_ostream@DU?$char_traits@D@std@@@std@@AEAV34@AEBUGraphAsJSON@012@@Z
  ??6compiler@internal@v8@@YAAEAV?$basic_ostream@DU?$char_traits@D@std@@@std@@AEAV34@AEBUObjectAccess@012@@Z
  ??6compiler@internal@v8@@YAAEAV?$basic_ostream@DU?$char_traits@D@std@@@std@@AEAV34@AEBV?$TinyRef@VScopeInfo@internal@v8@@@012@@Z
  ??6compiler@internal@v8@@YAAEAV?$basic_ostream@DU?$char_traits@D@std@@@std@@AEAV34@AEBVCheckMinusZeroParameters@012@@Z
  ??6compiler@internal@v8@@YAAEAV?$basic_ostream@DU?$char_traits@D@std@@@std@@AEAV34@AEBVContextAccess@012@@Z
  ??6compiler@internal@v8@@YAAEAV?$basic_ostream@DU?$char_traits@D@std@@@std@@AEAV34@AEBVFastApiCallParameters@012@@Z
  ??6compiler@internal@v8@@YAAEAV?$basic_ostream@DU?$char_traits@D@std@@@std@@AEAV34@AEBVIfValueParameters@012@@Z
  ??6compiler@internal@v8@@YAAEAV?$basic_ostream@DU?$char_traits@D@std@@@std@@AEAV34@AEBVInstructionSequence@012@@Z
  ??6compiler@internal@v8@@YAAEAV?$basic_ostream@DU?$char_traits@D@std@@@std@@AEAV34@AEBVJSWasmCallParameters@012@@Z
  ??6compiler@internal@v8@@YAAEAV?$basic_ostream@DU?$char_traits@D@std@@@std@@AEAV34@AEBVMoveOperands@012@@Z
  ??6compiler@internal@v8@@YAAEAV?$basic_ostream@DU?$char_traits@D@std@@@std@@AEAV34@AEBVNumberOperationParameters@012@@Z
  ??6compiler@internal@v8@@YAAEAV?$basic_ostream@DU?$char_traits@D@std@@@std@@AEAV34@AEBVOperator@012@@Z
  ??6compiler@internal@v8@@YAAEAV?$basic_ostream@DU?$char_traits@D@std@@@std@@AEAV34@AEBVPropertyAccess@012@@Z
  ??6compiler@internal@v8@@YAAEAV?$basic_ostream@DU?$char_traits@D@std@@@std@@AEAV34@AEBVRpoNumber@012@@Z
  ??6compiler@internal@v8@@YAAEAV?$basic_ostream@DU?$char_traits@D@std@@@std@@AEAV34@AEBVS128ImmediateParameter@012@@Z
  ??6compiler@internal@v8@@YAAEAV?$basic_ostream@DU?$char_traits@D@std@@@std@@AEAV34@AEBVSLVerifierHintParameters@012@@Z
  ??6compiler@internal@v8@@YAAEAV?$basic_ostream@DU?$char_traits@D@std@@@std@@AEAV34@AEBVSchedule@012@@Z
  ??6compiler@internal@v8@@YAAEAV?$basic_ostream@DU?$char_traits@D@std@@@std@@AEAV34@AEBVSpeculativeBigIntAsNParameters@012@@Z
  ??6compiler@internal@v8@@YAAEAV?$basic_ostream@DU?$char_traits@D@std@@@std@@AEAV34@AEBW4AddressingMode@012@@Z
  ??6compiler@internal@v8@@YAAEAV?$basic_ostream@DU?$char_traits@D@std@@@std@@AEAV34@AEBW4ArchOpcode@012@@Z
  ??6compiler@internal@v8@@YAAEAV?$basic_ostream@DU?$char_traits@D@std@@@std@@AEAV34@AEBW4FlagsCondition@012@@Z
  ??6compiler@internal@v8@@YAAEAV?$basic_ostream@DU?$char_traits@D@std@@@std@@AEAV34@AEBW4FlagsMode@012@@Z
  ??6compiler@internal@v8@@YAAEAV?$basic_ostream@DU?$char_traits@D@std@@@std@@AEAV34@AEBW4Kind@CallDescriptor@012@@Z
  ??6compiler@internal@v8@@YAAEAV?$basic_ostream@DU?$char_traits@D@std@@@std@@AEAV34@ULoadLaneParameters@012@@Z
  ??6compiler@internal@v8@@YAAEAV?$basic_ostream@DU?$char_traits@D@std@@@std@@AEAV34@ULoadTransformParameters@012@@Z
  ??6compiler@internal@v8@@YAAEAV?$basic_ostream@DU?$char_traits@D@std@@@std@@AEAV34@UStoreLaneParameters@012@@Z
  ??6compiler@internal@v8@@YAAEAV?$basic_ostream@DU?$char_traits@D@std@@@std@@AEAV34@VAllocateParameters@012@@Z
  ??6compiler@internal@v8@@YAAEAV?$basic_ostream@DU?$char_traits@D@std@@@std@@AEAV34@VAtomicLoadParameters@012@@Z
  ??6compiler@internal@v8@@YAAEAV?$basic_ostream@DU?$char_traits@D@std@@@std@@AEAV34@VAtomicStoreParameters@012@@Z
  ??6compiler@internal@v8@@YAAEAV?$basic_ostream@DU?$char_traits@D@std@@@std@@AEAV34@VStackSlotRepresentation@012@@Z
  ??6compiler@internal@v8@@YAAEAV?$basic_ostream@DU?$char_traits@D@std@@@std@@AEAV34@VStoreRepresentation@012@@Z
  ??6compiler@internal@v8@@YAAEAV?$basic_ostream@DU?$char_traits@D@std@@@std@@AEAV34@VType@012@@Z
  ??6compiler@internal@v8@@YAAEAV?$basic_ostream@DU?$char_traits@D@std@@@std@@AEAV34@W4BigIntOperationHint@012@@Z
  ??6compiler@internal@v8@@YAAEAV?$basic_ostream@DU?$char_traits@D@std@@@std@@AEAV34@W4BranchHint@012@@Z
  ??6compiler@internal@v8@@YAAEAV?$basic_ostream@DU?$char_traits@D@std@@@std@@AEAV34@W4CheckForMinusZeroMode@012@@Z
  ??6compiler@internal@v8@@YAAEAV?$basic_ostream@DU?$char_traits@D@std@@@std@@AEAV34@W4CheckTaggedInputMode@012@@Z
  ??6compiler@internal@v8@@YAAEAV?$basic_ostream@DU?$char_traits@D@std@@@std@@AEAV34@W4LoadTransformation@012@@Z
  ??6compiler@internal@v8@@YAAEAV?$basic_ostream@DU?$char_traits@D@std@@@std@@AEAV34@W4MemoryAccessKind@012@@Z
  ??6compiler@internal@v8@@YAAEAV?$basic_ostream@DU?$char_traits@D@std@@@std@@AEAV34@W4NumberOperationHint@012@@Z
  ??6compiler@internal@v8@@YAAEAV?$basic_ostream@DU?$char_traits@D@std@@@std@@AEAV34@W4ShiftKind@012@@Z
  ??6compiler@internal@v8@@YAAEAV?$basic_ostream@DU?$char_traits@D@std@@@std@@AEAV34@W4Value@IrOpcode@012@@Z
  ??6internal@v8@@YAAEAV?$basic_ostream@DU?$char_traits@D@std@@@std@@AEAV23@AEBUAsEscapedUC16ForJSON@01@@Z
  ??6internal@v8@@YAAEAV?$basic_ostream@DU?$char_traits@D@std@@@std@@AEAV23@AEBUAsHex@01@@Z
  ??6internal@v8@@YAAEAV?$basic_ostream@DU?$char_traits@D@std@@@std@@AEAV23@AEBUAsHexBytes@01@@Z
  ??6internal@v8@@YAAEAV?$basic_ostream@DU?$char_traits@D@std@@@std@@AEAV23@AEBUBrief@01@@Z
  ??6internal@v8@@YAAEAV?$basic_ostream@DU?$char_traits@D@std@@@std@@AEAV23@AEBVObject@01@@Z
  ??6internal@v8@@YAAEAV?$basic_ostream@DU?$char_traits@D@std@@@std@@AEAV23@AEBVRepresentation@01@@Z
  ??6internal@v8@@YAAEAV?$basic_ostream@DU?$char_traits@D@std@@@std@@AEAV23@AEBW4PropertyAttributes@01@@Z
  ??6internal@v8@@YAAEAV?$basic_ostream@DU?$char_traits@D@std@@@std@@AEAV23@VBytecodeOffset@01@@Z
  ??6internal@v8@@YAAEAV?$basic_ostream@DU?$char_traits@D@std@@@std@@AEAV23@VExternalReference@01@@Z
  ??6internal@v8@@YAAEAV?$basic_ostream@DU?$char_traits@D@std@@@std@@AEAV23@VFeedbackSlot@01@@Z
  ??6internal@v8@@YAAEAV?$basic_ostream@DU?$char_traits@D@std@@@std@@AEAV23@VMachineType@01@@Z
  ??6internal@v8@@YAAEAV?$basic_ostream@DU?$char_traits@D@std@@@std@@AEAV23@W4DeoptimizeReason@01@@Z
  ??6internal@v8@@YAAEAV?$basic_ostream@DU?$char_traits@D@std@@@std@@AEAV23@W4FeedbackSlotKind@01@@Z
  ??6internal@v8@@YAAEAV?$basic_ostream@DU?$char_traits@D@std@@@std@@AEAV23@W4FunctionId@Runtime@01@@Z
  ??6internal@v8@@YAAEAV?$basic_ostream@DU?$char_traits@D@std@@@std@@AEAV23@W4InstanceType@01@@Z
  ??6internal@v8@@YAAEAV?$basic_ostream@DU?$char_traits@D@std@@@std@@AEAV23@W4MachineRepresentation@01@@Z
  ??6internal@v8@@YAAEAV?$basic_ostream@DU?$char_traits@D@std@@@std@@AEAV23@W4PropertyCellType@01@@Z
  ??6internal@v8@@YAAEAV?$basic_ostream@DU?$char_traits@D@std@@@std@@AEAV23@W4PropertyConstness@01@@Z
  ??6interpreter@internal@v8@@YAAEAV?$basic_ostream@DU?$char_traits@D@std@@@std@@AEAV34@AEBVBytecodeNode@012@@Z
  ??6interpreter@internal@v8@@YAAEAV?$basic_ostream@DU?$char_traits@D@std@@@std@@AEAV34@AEBVBytecodeSourceInfo@012@@Z
  ??6interpreter@internal@v8@@YAAEAV?$basic_ostream@DU?$char_traits@D@std@@@std@@AEAV34@AEBW4Bytecode@012@@Z
  ??6interpreter@internal@v8@@YAAEAV?$basic_ostream@DU?$char_traits@D@std@@@std@@AEAV34@AEBW4ImplicitRegisterUse@012@@Z
  ??6interpreter@internal@v8@@YAAEAV?$basic_ostream@DU?$char_traits@D@std@@@std@@AEAV34@AEBW4OperandScale@012@@Z
  ??6interpreter@internal@v8@@YAAEAV?$basic_ostream@DU?$char_traits@D@std@@@std@@AEAV34@AEBW4OperandSize@012@@Z
  ??6interpreter@internal@v8@@YAAEAV?$basic_ostream@DU?$char_traits@D@std@@@std@@AEAV34@AEBW4OperandType@012@@Z
  ??6interpreter@internal@v8@@YAAEAV?$basic_ostream@DU?$char_traits@D@std@@@std@@AEAV34@AEBW4ToBooleanMode@BytecodeArrayBuilder@012@@Z
  ??8?$MagicNumbersForDivision@I@base@v8@@QEBA_NAEBU012@@Z
  ??8?$MagicNumbersForDivision@_K@base@v8@@QEBA_NAEBU012@@Z
  ??8?$TimeBase@VThreadTicks@base@v8@@@time_internal@base@v8@@QEBA_NVThreadTicks@23@@Z
  ??8?$TimeBase@VTime@base@v8@@@time_internal@base@v8@@QEBA_NVTime@23@@Z
  ??8?$TimeBase@VTimeTicks@base@v8@@@time_internal@base@v8@@QEBA_NVTimeTicks@23@@Z
  ??8BytecodeNode@interpreter@internal@v8@@QEBA_NAEBV0123@@Z
  ??8CallInterfaceDescriptor@internal@v8@@QEBA_NAEBV012@@Z
  ??8InstructionOperand@compiler@internal@v8@@QEBA_NAEAV0123@@Z
  ??8Register@interpreter@internal@v8@@QEBA_NAEBV0123@@Z
  ??8TimeDelta@base@v8@@QEBA_NAEBV012@@Z
  ??8Type@compiler@internal@v8@@QEBA_NV0123@@Z
  ??8compiler@internal@v8@@YA_NAEBUConstFieldInfo@012@0@Z
  ??8compiler@internal@v8@@YA_NAEBUElementAccess@012@0@Z
  ??8compiler@internal@v8@@YA_NAEBUFieldAccess@012@0@Z
  ??8compiler@internal@v8@@YA_NAEBUObjectAccess@012@0@Z
  ??8compiler@internal@v8@@YA_NAEBVIfValueParameters@012@0@Z
  ??8compiler@internal@v8@@YA_NAEBVS128ImmediateParameter@012@0@Z
  ??8compiler@internal@v8@@YA_NAEBVSLVerifierHintParameters@012@0@Z
  ??8compiler@internal@v8@@YA_NULoadTransformParameters@012@0@Z
  ??8compiler@internal@v8@@YA_NVAtomicLoadParameters@012@0@Z
  ??8compiler@internal@v8@@YA_NVAtomicStoreParameters@012@0@Z
  ??8compiler@internal@v8@@YA_NVStackSlotRepresentation@012@0@Z
  ??8compiler@internal@v8@@YA_NVStoreRepresentation@012@0@Z
  ??8internal@v8@@YA_NVExternalReference@01@0@Z
  ??9?$TimeBase@VThreadTicks@base@v8@@@time_internal@base@v8@@QEBA_NVThreadTicks@23@@Z
  ??9?$TimeBase@VTime@base@v8@@@time_internal@base@v8@@QEBA_NVTime@23@@Z
  ??9?$TimeBase@VTimeTicks@base@v8@@@time_internal@base@v8@@QEBA_NVTimeTicks@23@@Z
  ??9BytecodeNode@interpreter@internal@v8@@QEBA_NAEBV0123@@Z
  ??9InstructionOperand@compiler@internal@v8@@QEBA_NAEAV0123@@Z
  ??9Register@interpreter@internal@v8@@QEBA_NAEBV0123@@Z
  ??9TimeDelta@base@v8@@QEBA_NAEBV012@@Z
  ??9Type@compiler@internal@v8@@QEBA_NV0123@@Z
  ??9iterator@JumpTableTargetOffsets@interpreter@internal@v8@@QEAA_NAEBV01234@@Z
  ??9iterator@StateValuesAccess@compiler@internal@v8@@QEBA_NAEBV01234@@Z
  ??A?$vector@PEAVMoveOperands@compiler@internal@v8@@V?$ZoneAllocator@PEAVMoveOperands@compiler@internal@v8@@@34@@std@@QEAAAEAPEAVMoveOperands@compiler@internal@v8@@_K@Z
  ??A?$vector@PEAVMoveOperands@compiler@internal@v8@@V?$ZoneAllocator@PEAVMoveOperands@compiler@internal@v8@@@34@@std@@QEBAAEBQEAVMoveOperands@compiler@internal@v8@@_K@Z
  ??A?$vector@UCpuProfileDeoptFrame@v8@@V?$allocator@UCpuProfileDeoptFrame@v8@@@std@@@std@@QEAAAEAUCpuProfileDeoptFrame@v8@@_K@Z
  ??A?$vector@UCpuProfileDeoptFrame@v8@@V?$allocator@UCpuProfileDeoptFrame@v8@@@std@@@std@@QEBAAEBUCpuProfileDeoptFrame@v8@@_K@Z
  ??A?$vector@UCpuProfileDeoptInfo@v8@@V?$allocator@UCpuProfileDeoptInfo@v8@@@std@@@std@@QEAAAEAUCpuProfileDeoptInfo@v8@@_K@Z
  ??A?$vector@UCpuProfileDeoptInfo@v8@@V?$allocator@UCpuProfileDeoptInfo@v8@@@std@@@std@@QEBAAEBUCpuProfileDeoptInfo@v8@@_K@Z
  ??AInputs@Node@compiler@internal@v8@@QEBAPEAV1234@H@Z
  ??AModificationScope@WasmImportWrapperCache@wasm@internal@v8@@QEAAAEAPEAVWasmCode@234@AEBUCacheKey@1234@@Z
  ??AWasmImportWrapperCache@wasm@internal@v8@@QEAAAEAPEAVWasmCode@123@AEBUCacheKey@0123@@Z
  ??DTimeDelta@base@v8@@QEBA?AV012@_J@Z
  ??DUtf8Value@String@v8@@QEAAPEADXZ
  ??DUtf8Value@String@v8@@QEBAPEBDXZ
  ??DValue@String@v8@@QEAAPEAGXZ
  ??DValue@String@v8@@QEBAPEBGXZ
  ??Diterator@JumpTableTargetOffsets@interpreter@internal@v8@@QEAA?AUJumpTableTargetOffset@234@XZ
  ??Diterator@StateValuesAccess@compiler@internal@v8@@QEAA?AUTypedNode@1234@XZ
  ??EBytecodeArrayRandomIterator@interpreter@internal@v8@@QEAAAEAV0123@XZ
  ??EIterator@BitVector@internal@v8@@QEAAXXZ
  ??Eiterator@JumpTableTargetOffsets@interpreter@internal@v8@@QEAAAEAV01234@XZ
  ??Eiterator@StateValuesAccess@compiler@internal@v8@@QEAAAEAV01234@XZ
  ??FBytecodeArrayRandomIterator@interpreter@internal@v8@@QEAAAEAV0123@XZ
  ??G?$TimeBase@VThreadTicks@base@v8@@@time_internal@base@v8@@QEBA?AVThreadTicks@23@VTimeDelta@23@@Z
  ??G?$TimeBase@VThreadTicks@base@v8@@@time_internal@base@v8@@QEBA?AVTimeDelta@23@VThreadTicks@23@@Z
  ??G?$TimeBase@VTime@base@v8@@@time_internal@base@v8@@QEBA?AVTime@23@VTimeDelta@23@@Z
  ??G?$TimeBase@VTime@base@v8@@@time_internal@base@v8@@QEBA?AVTimeDelta@23@VTime@23@@Z
  ??G?$TimeBase@VTimeTicks@base@v8@@@time_internal@base@v8@@QEBA?AVTimeDelta@23@VTimeTicks@23@@Z
  ??G?$TimeBase@VTimeTicks@base@v8@@@time_internal@base@v8@@QEBA?AVTimeTicks@23@VTimeDelta@23@@Z
  ??GTimeDelta@base@v8@@QEBA?AV012@AEBV012@@Z
  ??GTimeDelta@base@v8@@QEBA?AV012@XZ
  ??H?$TimeBase@VThreadTicks@base@v8@@@time_internal@base@v8@@QEBA?AVThreadTicks@23@VTimeDelta@23@@Z
  ??H?$TimeBase@VTime@base@v8@@@time_internal@base@v8@@QEBA?AVTime@23@VTimeDelta@23@@Z
  ??H?$TimeBase@VTimeTicks@base@v8@@@time_internal@base@v8@@QEBA?AVTimeTicks@23@VTimeDelta@23@@Z
  ??HTimeDelta@base@v8@@QEBA?AV012@AEBV012@@Z
  ??KTimeDelta@base@v8@@QEBA?AV012@_J@Z
  ??KTimeDelta@base@v8@@QEBA_JAEBV012@@Z
  ??M?$TimeBase@VThreadTicks@base@v8@@@time_internal@base@v8@@QEBA_NVThreadTicks@23@@Z
  ??M?$TimeBase@VTime@base@v8@@@time_internal@base@v8@@QEBA_NVTime@23@@Z
  ??M?$TimeBase@VTimeTicks@base@v8@@@time_internal@base@v8@@QEBA_NVTimeTicks@23@@Z
  ??MRegister@interpreter@internal@v8@@QEBA_NAEBV0123@@Z
  ??MTimeDelta@base@v8@@QEBA_NAEBV012@@Z
  ??N?$TimeBase@VThreadTicks@base@v8@@@time_internal@base@v8@@QEBA_NVThreadTicks@23@@Z
  ??N?$TimeBase@VTime@base@v8@@@time_internal@base@v8@@QEBA_NVTime@23@@Z
  ??N?$TimeBase@VTimeTicks@base@v8@@@time_internal@base@v8@@QEBA_NVTimeTicks@23@@Z
  ??NRegister@interpreter@internal@v8@@QEBA_NAEBV0123@@Z
  ??NTimeDelta@base@v8@@QEBA_NAEBV012@@Z
  ??O?$TimeBase@VThreadTicks@base@v8@@@time_internal@base@v8@@QEBA_NVThreadTicks@23@@Z
  ??O?$TimeBase@VTime@base@v8@@@time_internal@base@v8@@QEBA_NVTime@23@@Z
  ??O?$TimeBase@VTimeTicks@base@v8@@@time_internal@base@v8@@QEBA_NVTimeTicks@23@@Z
  ??ORegister@interpreter@internal@v8@@QEBA_NAEBV0123@@Z
  ??OTimeDelta@base@v8@@QEBA_NAEBV012@@Z
  ??P?$TimeBase@VThreadTicks@base@v8@@@time_internal@base@v8@@QEBA_NVThreadTicks@23@@Z
  ??P?$TimeBase@VTime@base@v8@@@time_internal@base@v8@@QEBA_NVTime@23@@Z
  ??P?$TimeBase@VTimeTicks@base@v8@@@time_internal@base@v8@@QEBA_NVTimeTicks@23@@Z
  ??PRegister@interpreter@internal@v8@@QEBA_NAEBV0123@@Z
  ??PTimeDelta@base@v8@@QEBA_NAEBV012@@Z
  ??RAstRawStringComparer@SourceTextModuleDescriptor@internal@v8@@QEBA_NPEBVAstRawString@23@0@Z
  ??RDeleteACHHandle@node@@QEBAXPEAUACHHandle@1@@Z
  ??RFatalOutOfMemoryHandler@internal@cppgc@@QEBAXAEBV?$basic_string@DU?$char_traits@D@std@@V?$allocator@D@2@@std@@AEBVSourceLocation@2@@Z
  ??RImportAssertionsKeyComparer@internal@v8@@QEBA_NPEBVAstRawString@12@0@Z
  ??RModuleRequestComparer@SourceTextModuleDescriptor@internal@v8@@QEBA_NPEBVAstModuleRequest@123@0@Z
  ??XTimeDelta@base@v8@@QEAAAEAV012@_J@Z
  ??Y?$TimeBase@VThreadTicks@base@v8@@@time_internal@base@v8@@QEAAAEAVThreadTicks@23@VTimeDelta@23@@Z
  ??Y?$TimeBase@VTime@base@v8@@@time_internal@base@v8@@QEAAAEAVTime@23@VTimeDelta@23@@Z
  ??Y?$TimeBase@VTimeTicks@base@v8@@@time_internal@base@v8@@QEAAAEAVTimeTicks@23@VTimeDelta@23@@Z
  ??YBytecodeArrayRandomIterator@interpreter@internal@v8@@QEAAAEAV0123@H@Z
  ??YTimeDelta@base@v8@@QEAAAEAV012@AEBV012@@Z
  ??Z?$TimeBase@VThreadTicks@base@v8@@@time_internal@base@v8@@QEAAAEAVThreadTicks@23@VTimeDelta@23@@Z
  ??Z?$TimeBase@VTime@base@v8@@@time_internal@base@v8@@QEAAAEAVTime@23@VTimeDelta@23@@Z
  ??Z?$TimeBase@VTimeTicks@base@v8@@@time_internal@base@v8@@QEAAAEAVTimeTicks@23@VTimeDelta@23@@Z
  ??ZBytecodeArrayRandomIterator@interpreter@internal@v8@@QEAAAEAV0123@H@Z
  ??ZTimeDelta@base@v8@@QEAAAEAV012@AEBV012@@Z
  ??_0TimeDelta@base@v8@@QEAAAEAV012@_J@Z
  ??_7?$Deserializer@VIsolate@internal@v8@@@internal@v8@@6B@
  ??_7?$Deserializer@VLocalIsolate@internal@v8@@@internal@v8@@6B@
  ??_7?$SharedTurboAssemblerBase@VTurboAssembler@internal@v8@@@internal@v8@@6B@
  ??_7?$basic_ios@DU?$char_traits@D@std@@@std@@6B@
  ??_7?$basic_ostream@DU?$char_traits@D@std@@@std@@6B@
  ??_7?$basic_streambuf@DU?$char_traits@D@std@@@std@@6B@
  ??_7AccountingAllocator@internal@v8@@6B@
  ??_7ActivityControl@v8@@6B@
  ??_7AddTypeAssertionsReducer@compiler@internal@v8@@6B@
  ??_7AllocationProfile@v8@@6B@
  ??_7Allocator@ArrayBuffer@v8@@6B@
  ??_7ArrayBufferAllocator@node@@6B@
  ??_7AsmCallableType@wasm@internal@v8@@6B@
  ??_7AsmFunctionType@wasm@internal@v8@@6B@
  ??_7AsmOverloadedFunctionType@wasm@internal@v8@@6B@
  ??_7Assembler@internal@v8@@6B@
  ??_7AssemblerBase@internal@v8@@6B@
  ??_7AsyncResource@node@@6B@
  ??_7AsyncStreamingDecoder@wasm@internal@v8@@6B@
  ??_7BaseSpace@internal@cppgc@@6B@
  ??_7BaseSpace@internal@v8@@6B@
  ??_7BlockBuilder@interpreter@internal@v8@@6B@
  ??_7BoundedPageAllocator@base@v8@@6B@
  ??_7BranchElimination@compiler@internal@v8@@6B@
  ??_7BreakableControlFlowBuilder@interpreter@internal@v8@@6B@
  ??_7BytecodeIterator@wasm@internal@v8@@6B@
  ??_7BytecodeRegisterOptimizer@interpreter@internal@v8@@6B@
  ??_7Cancelable@internal@v8@@6B@
  ??_7CancelableTask@internal@v8@@6BCancelable@12@@
  ??_7CancelableTask@internal@v8@@6BTask@2@@
  ??_7Channel@V8Inspector@v8_inspector@@6B@
  ??_7CheckpointElimination@compiler@internal@v8@@6B@
  ??_7CodeEventHandler@v8@@6B@
  ??_7CodeEventLogger@internal@v8@@6B@
  ??_7CodeGenerator@compiler@internal@v8@@6B@
  ??_7CommandLineAPIScope@V8InspectorSession@v8_inspector@@6B@
  ??_7CommonOperatorReducer@compiler@internal@v8@@6B@
  ??_7CompactionSpace@internal@v8@@6B@
  ??_7CompilationEventCallback@wasm@internal@v8@@6B@
  ??_7CompilationJob@internal@v8@@6B@
  ??_7CompilationResultResolver@wasm@internal@v8@@6B@
  ??_7ConcurrentMarker@internal@cppgc@@6B@
  ??_7ConcurrentMarkerBase@internal@cppgc@@6B@
  ??_7ConcurrentMarkingVisitor@internal@cppgc@@6B@
  ??_7ConcurrentUnifiedHeapMarkingVisitor@internal@v8@@6B@
  ??_7ConditionalControlFlowBuilder@interpreter@internal@v8@@6B@
  ??_7ConstantFoldingReducer@compiler@internal@v8@@6B@
  ??_7ContextDeserializer@internal@v8@@6B@
  ??_7ContextSerializer@internal@v8@@6B@
  ??_7ControlFlowBuilder@interpreter@internal@v8@@6B@
  ??_7CppHeap@internal@v8@@6B02@@
  ??_7CppHeap@internal@v8@@6BAllocationObserver@StatsCollector@1cppgc@@@
  ??_7CppHeap@internal@v8@@6BHeapBase@1cppgc@@@
  ??_7CppHeap@v8@@6B@
  ??_7CsaLoadElimination@compiler@internal@v8@@6B@
  ??_7DateCache@internal@v8@@6B@
  ??_7DbgStreamBuf@internal@v8@@6B@
  ??_7DeadCodeElimination@compiler@internal@v8@@6B@
  ??_7DefaultEmbedderRootsHandler@internal@v8@@6B@
  ??_7Delegate@ValueDeserializer@v8@@6B@
  ??_7Delegate@ValueSerializer@v8@@6B@
  ??_7DiscardedSamplesDelegate@v8@@6B@
  ??_7Domain@API@Schema@protocol@v8_inspector@@6B@
  ??_7EmbedderGraph@v8@@6B@
  ??_7EmbedderHeapTracer@v8@@6B@
  ??_7EmbedderRootsHandler@v8@@6B@
  ??_7EscapeAnalysisReducer@compiler@internal@v8@@6B@
  ??_7Exported@protocol@v8_inspector@@6B@
  ??_7Extension@v8@@6B@
  ??_7ExternalOneByteStringResource@String@v8@@6B@
  ??_7ExternalResourceVisitor@v8@@6B@
  ??_7ExternalSourceStream@ScriptCompiler@v8@@6B@
  ??_7ExternalStringResource@String@v8@@6B@
  ??_7ExternalStringResourceBase@String@v8@@6B@
  ??_7FlatStringReader@internal@v8@@6B@
  ??_7FreeListMany@internal@v8@@6B@
  ??_7FreeListManyCached@internal@v8@@6B@
  ??_7FreeListManyCachedFastPath@internal@v8@@6B@
  ??_7FreeListManyCachedOrigin@internal@v8@@6B@
  ??_7GCInvoker@internal@cppgc@@6B@
  ??_7GraphAssembler@compiler@internal@v8@@6B@
  ??_7GraphReducer@compiler@internal@v8@@6B@
  ??_7Heap@cppgc@@6B@
  ??_7Heap@internal@cppgc@@6B02@@
  ??_7Heap@internal@cppgc@@6BGarbageCollector@12@@
  ??_7Heap@internal@cppgc@@6BHeapBase@12@@
  ??_7HeapBase@internal@cppgc@@6B@
  ??_7IdentityMapBase@internal@v8@@6B@
  ??_7InitializationResult@node@@6B@
  ??_7Inspectable@V8InspectorSession@v8_inspector@@6B@
  ??_7InstantiationResultResolver@wasm@internal@v8@@6B@
  ??_7IsolatePlatformDelegate@node@@6B@
  ??_7JSCallReducer@compiler@internal@v8@@6B@
  ??_7JSContextSpecialization@compiler@internal@v8@@6B@
  ??_7JSCreateLowering@compiler@internal@v8@@6B@
  ??_7JSGraphAssembler@compiler@internal@v8@@6B@
  ??_7JSIntrinsicLowering@compiler@internal@v8@@6B@
  ??_7JSNativeContextSpecialization@compiler@internal@v8@@6B@
  ??_7JSTypedLowering@compiler@internal@v8@@6B@
  ??_7JumpTableAssembler@wasm@internal@v8@@6B@
  ??_7LargeObjectSpace@internal@v8@@6B@
  ??_7LargePageMemoryRegion@internal@cppgc@@6B@
  ??_7LargePageSpace@internal@cppgc@@6B@
  ??_7LoadElimination@compiler@internal@v8@@6B@
  ??_7LoopBuilder@interpreter@internal@v8@@6B@
  ??_7MachineOperatorReducer@compiler@internal@v8@@6B@
  ??_7MacroAssembler@internal@v8@@6B@
  ??_7Marker@internal@cppgc@@6B@
  ??_7MarkerBase@internal@cppgc@@6B@
  ??_7MarkingVerifier@internal@cppgc@@6BConservativeTracingVisitor@12@@
  ??_7MarkingVerifier@internal@cppgc@@6BStackVisitor@base@heap@@@
  ??_7MarkingVerifierBase@internal@cppgc@@6BConservativeTracingVisitor@12@@
  ??_7MarkingVerifierBase@internal@cppgc@@6BStackVisitor@base@heap@@@
  ??_7MarkingVisitorBase@internal@cppgc@@6B@
  ??_7MeasureMemoryDelegate@internal@v8@@6B@
  ??_7MeasureMemoryDelegate@v8@@6B@
  ??_7MemoryMappedFile@OS@base@v8@@6B@
  ??_7MicrotaskQueue@internal@v8@@6B@
  ??_7MicrotaskQueue@v8@@6B@
  ??_7MultiIsolatePlatform@node@@6B@
  ??_7MutatorMarkingVisitor@internal@cppgc@@6B@
  ??_7MutatorMinorGCMarkingVisitor@internal@v8@@6B@
  ??_7MutatorUnifiedHeapMarkingVisitor@internal@v8@@6B@
  ??_7NameConverter@disasm@@6B@
  ??_7NameProvider@cppgc@@6B@
  ??_7NewSpace@internal@v8@@6B@
  ??_7NormalPageMemoryRegion@internal@cppgc@@6B@
  ??_7NormalPageSpace@internal@cppgc@@6B@
  ??_7OFStream@internal@v8@@6B@
  ??_7OFStreamBase@internal@v8@@6B@
  ??_7ObjectIterator@internal@v8@@6B@
  ??_7Operator@compiler@internal@v8@@6B@
  ??_7OutputStream@v8@@6B@
  ??_7PageAllocator@base@v8@@6B@
  ??_7PageMemoryRegion@internal@cppgc@@6B@
  ??_7PagedSpace@internal@v8@@6B@
  ??_7PagedSpaceObjectIterator@internal@v8@@6B@
  ??_7PersistentHandleVisitor@v8@@6B@
  ??_7Platform@cppgc@@6B@
  ??_7ProfilerCodeObserver@internal@v8@@6B@
  ??_7ProfilerEventsProcessor@internal@v8@@6BCodeEventObserver@12@@
  ??_7ProfilerEventsProcessor@internal@v8@@6BThread@base@2@@
  ??_7ProfilerListener@internal@v8@@6BCodeEventListener@12@@
  ??_7ProfilerListener@internal@v8@@6BListener@WeakCodeRegistry@12@@
  ??_7PropertyIterator@debug@v8@@6B@
  ??_7ReadOnlySerializer@internal@v8@@6B@
  ??_7Recorder@metrics@v8@@6B@
  ??_7Reducer@compiler@internal@v8@@6B@
  ??_7RedundancyElimination@compiler@internal@v8@@6B@
  ??_7RegExpBytecodeGenerator@internal@v8@@6B@
  ??_7RegExpMacroAssemblerX64@internal@v8@@6B@
  ??_7RegisterConfiguration@internal@v8@@6B@
  ??_7RemoteObject@API@Runtime@protocol@v8_inspector@@6B@
  ??_7Sampler@sampler@v8@@6B@
  ??_7SamplingEventsProcessor@internal@v8@@6BCodeEventObserver@12@@
  ??_7SamplingEventsProcessor@internal@v8@@6BThread@base@2@@
  ??_7ScopeIterator@debug@v8@@6B@
  ??_7SearchMatch@API@Debugger@protocol@v8_inspector@@6B@
  ??_7SetupIsolateDelegate@internal@v8@@6B@
  ??_7SharedHeapSerializer@internal@v8@@6B@
  ??_7SharedTurboAssembler@internal@v8@@6B@
  ??_7SimplifiedOperatorReducer@compiler@internal@v8@@6B@
  ??_7SnapshotData@internal@v8@@6B@
  ??_7Space@internal@v8@@6B@
  ??_7SpaceIterator@internal@v8@@6B@
  ??_7StackTrace@API@Runtime@protocol@v8_inspector@@6B@
  ??_7StackTraceId@API@Runtime@protocol@v8_inspector@@6B@
  ??_7StackTraceIterator@debug@v8@@6B@
  ??_7StartupSerializer@internal@v8@@6B@
  ??_7StreamingDecoder@wasm@internal@v8@@6B@
  ??_7StreamingProcessor@wasm@internal@v8@@6B@
  ??_7StringBuffer@v8_inspector@@6B@
  ??_7SwitchBuilder@interpreter@internal@v8@@6B@
  ??_7SyncStreamingDecoder@wasm@internal@v8@@6B@
  ??_7Thread@base@v8@@6B@
  ??_7TracedGlobalHandleVisitor@EmbedderHeapTracer@v8@@6B@
  ??_7TracedValue@tracing@v8@@6B@
  ??_7TryCatchBuilder@interpreter@internal@v8@@6B@
  ??_7TryFinallyBuilder@interpreter@internal@v8@@6B@
  ??_7TurboAssembler@internal@v8@@6B@
  ??_7TurboAssemblerBase@internal@v8@@6B@
  ??_7TypeNarrowingReducer@compiler@internal@v8@@6B@
  ??_7TypedOptimization@compiler@internal@v8@@6B@
  ??_7TypedSlotSet@internal@v8@@6B@
  ??_7TypedSlots@internal@v8@@6B@
  ??_7UnifiedHeapMarkingVerifier@internal@v8@@6BConservativeTracingVisitor@1cppgc@@@
  ??_7UnifiedHeapMarkingVerifier@internal@v8@@6BStackVisitor@base@heap@@@
  ??_7UnifiedHeapMarkingVisitorBase@internal@v8@@6B@
  ??_7V8HeapExplorer@internal@v8@@6B@
  ??_7V8Inspector@v8_inspector@@6B@
  ??_7V8InspectorClient@v8_inspector@@6B@
  ??_7V8InspectorSession@v8_inspector@@6B@
  ??_7V8StackTrace@v8_inspector@@6B@
  ??_7ValueNumberingReducer@compiler@internal@v8@@6B@
  ??_7VirtualAddressSpace@base@v8@@6B@
  ??_7VirtualAddressSubspace@base@v8@@6B@
  ??_7Visitor@cppgc@@6B@
  ??_8?$basic_ostream@DU?$char_traits@D@std@@@std@@7B@
  ??_8OFStream@internal@v8@@7B@
  ??_D?$basic_ostream@DU?$char_traits@D@std@@@std@@QEAAXXZ
  ??_DOFStream@internal@v8@@QEAAXXZ
  ??_FCpuProfilingOptions@v8@@QEAAXXZ
  ??_FRawMachineLabel@compiler@internal@v8@@QEAAXXZ
  ??_FRegister@interpreter@internal@v8@@QEAAXXZ
  ??_FSnapshotCreator@v8@@QEAAXXZ
  ??_FStack@base@heap@@QEAAXXZ
  ??_FWasmModule@wasm@internal@v8@@QEAAXXZ
  ??_UAlignedSlotAllocator@internal@v8@@CAPEAX_K@Z
  ??_UErrorThrower@wasm@internal@v8@@CAPEAX_K@Z
  ??_UEscapableHandleScope@v8@@CAPEAX_K@Z
  ??_UGlobalGCInfoTable@internal@cppgc@@CAPEAX_K@Z
  ??_UHandleScope@v8@@CAPEAX_K@Z
  ??_URegister@interpreter@internal@v8@@CAPEAX_K@Z
  ??_USealHandleScope@v8@@CAPEAX_K@Z
  ??_UTryCatch@v8@@CAPEAX_K@Z
  ??_VAlignedSlotAllocator@internal@v8@@CAXPEAX_K@Z
  ??_VErrorThrower@wasm@internal@v8@@CAXPEAX_K@Z
  ??_VEscapableHandleScope@v8@@CAXPEAX_K@Z
  ??_VGlobalGCInfoTable@internal@cppgc@@CAXPEAX_K@Z
  ??_VHandleScope@v8@@CAXPEAX_K@Z
  ??_VRegister@interpreter@internal@v8@@CAXPEAX_K@Z
  ??_VSealHandleScope@v8@@CAXPEAX_K@Z
  ??_VTryCatch@v8@@CAXPEAX_K@Z
  ?Abort@AsyncStreamingDecoder@wasm@internal@v8@@UEAAXXZ
  ?Abort@BytecodeArrayBuilder@interpreter@internal@v8@@QEAAAEAV1234@W4AbortReason@34@@Z
  ?Abort@OS@base@v8@@SAXXZ
  ?Abort@SyncStreamingDecoder@wasm@internal@v8@@UEAAXXZ
  ?Abort@TurboAssembler@internal@v8@@QEAAXW4AbortReason@23@@Z
  ?Abort@WasmModuleObjectBuilderStreaming@v8@@QEAAXV?$MaybeLocal@VValue@v8@@@2@@Z
  ?Abort@WasmStreaming@v8@@QEAAXV?$MaybeLocal@VValue@v8@@@2@@Z
  ?AbortAll@LazyCompileDispatcher@internal@v8@@QEAAXXZ
  ?AbortCSADcheck@CodeAssembler@compiler@internal@v8@@QEAAXPEAVNode@234@@Z
  ?AbortCSADcheck@MachineOperatorBuilder@compiler@internal@v8@@QEAAPEBVOperator@234@XZ
  ?AbortCSADcheck@RawMachineAssembler@compiler@internal@v8@@QEAAXPEAVNode@234@@Z
  ?AbortConcurrentOptimization@Isolate@internal@v8@@QEAAXW4BlockingBehavior@23@@Z
  ?AbortFunction@BackgroundCompileTask@internal@v8@@QEAAXXZ
  ?AbortJob@LazyCompileDispatcher@internal@v8@@QEAAXV?$Handle@VSharedFunctionInfo@internal@v8@@@23@@Z
  ?AbortOptimization@OptimizedCompilationInfo@internal@v8@@QEAAXW4BailoutReason@23@@Z
  ?AbortedCodeGeneration@AssemblerBase@internal@v8@@UEAAXXZ
  ?Abspd@?$SharedTurboAssemblerBase@VTurboAssembler@internal@v8@@@internal@v8@@QEAAXVXMMRegister@23@0VRegister@23@@Z
  ?Absps@?$SharedTurboAssemblerBase@VTurboAssembler@internal@v8@@@internal@v8@@QEAAXVXMMRegister@23@0VRegister@23@@Z
  ?AccessorConstant@Descriptor@internal@v8@@SA?AV123@V?$Handle@VName@internal@v8@@@23@V?$Handle@VObject@internal@v8@@@23@W4PropertyAttributes@23@@Z
  ?AccountCommitted@BaseSpace@internal@v8@@QEAAX_K@Z
  ?AccountUncommitted@BaseSpace@internal@v8@@QEAAX_K@Z
  ?AccountedFree@PagedSpace@internal@v8@@QEAA_K_K0@Z
  ?AcquireDataOwnership@AlignedCachedData@internal@v8@@QEAAXXZ
  ?ActivationFrameAlignment@OS@base@v8@@SAHXZ
  ?ActiveTierIsIgnition@JSFunction@internal@v8@@QEBA_NXZ
  ?Add@?$BaseNameDictionary@VGlobalDictionary@internal@v8@@VGlobalDictionaryShape@23@@internal@v8@@SA?AV?$Handle@VGlobalDictionary@internal@v8@@@23@PEAVIsolate@23@V423@V?$Handle@VName@internal@v8@@@23@V?$Handle@VObject@internal@v8@@@23@VPropertyDetails@23@PEAVInternalIndex@23@@Z
  ?Add@?$BaseNameDictionary@VNameDictionary@internal@v8@@VNameDictionaryShape@23@@internal@v8@@SA?AV?$Handle@VNameDictionary@internal@v8@@@23@PEAVIsolate@23@V423@V?$Handle@VName@internal@v8@@@23@V?$Handle@VObject@internal@v8@@@23@VPropertyDetails@23@PEAVInternalIndex@23@@Z
  ?Add@ActiveSystemPages@base@heap@@QEAA_K_K00@Z
  ?Add@ArrayList@internal@v8@@SA?AV?$Handle@VArrayList@internal@v8@@@23@PEAVIsolate@23@V423@V?$Handle@VObject@internal@v8@@@23@2@Z
  ?Add@ArrayList@internal@v8@@SA?AV?$Handle@VArrayList@internal@v8@@@23@PEAVIsolate@23@V423@V?$Handle@VObject@internal@v8@@@23@@Z
  ?Add@ArrayList@internal@v8@@SA?AV?$Handle@VArrayList@internal@v8@@@23@PEAVIsolate@23@V423@V?$Handle@VObject@internal@v8@@@23@VSmi@23@33@Z
  ?Add@BitVector@internal@v8@@QEAAXH@Z
  ?Add@ByteData@PreparseDataBuilder@internal@v8@@QEAAXE@Z
  ?Add@BytecodeLoopAssignments@compiler@internal@v8@@QEAAXVRegister@interpreter@34@@Z
  ?Add@CodeCommentsWriter@internal@v8@@QEAAXIV?$basic_string@DU?$char_traits@D@std@@V?$allocator@D@2@@std@@@Z
  ?Add@FreeList@internal@cppgc@@QEAAXUBlock@123@@Z
  ?Add@JSOperatorBuilder@compiler@internal@v8@@QEAAPEBVOperator@234@AEBUFeedbackSource@234@@Z
  ?Add@NormalPageMemoryPool@internal@cppgc@@QEAAX_KPEAVNormalPageMemoryRegion@23@PEAE@Z
  ?Add@ObjectHashSet@internal@v8@@SA?AV?$Handle@VObjectHashSet@internal@v8@@@23@PEAVIsolate@23@V423@V?$Handle@VObject@internal@v8@@@23@@Z
  ?Add@OrderedHashMap@internal@v8@@SA?AV?$MaybeHandle@VOrderedHashMap@internal@v8@@@23@PEAVIsolate@23@V?$Handle@VOrderedHashMap@internal@v8@@@23@V?$Handle@VObject@internal@v8@@@23@2@Z
  ?Add@OrderedHashMapHandler@internal@v8@@SA?AV?$MaybeHandle@VHeapObject@internal@v8@@@23@PEAVIsolate@23@V?$Handle@VHeapObject@internal@v8@@@23@V?$Handle@VObject@internal@v8@@@23@2@Z
  ?Add@OrderedHashSet@internal@v8@@SA?AV?$MaybeHandle@VOrderedHashSet@internal@v8@@@23@PEAVIsolate@23@V?$Handle@VOrderedHashSet@internal@v8@@@23@V?$Handle@VObject@internal@v8@@@23@@Z
  ?Add@OrderedHashSetHandler@internal@v8@@SA?AV?$MaybeHandle@VHeapObject@internal@v8@@@23@PEAVIsolate@23@V?$Handle@VHeapObject@internal@v8@@@23@V?$Handle@VObject@internal@v8@@@23@@Z
  ?Add@OrderedNameDictionaryHandler@internal@v8@@SA?AV?$MaybeHandle@VHeapObject@internal@v8@@@23@PEAVIsolate@23@V?$Handle@VHeapObject@internal@v8@@@23@V?$Handle@VName@internal@v8@@@23@V?$Handle@VObject@internal@v8@@@23@VPropertyDetails@23@@Z
  ?Add@PageMemoryRegionTree@internal@cppgc@@QEAAXPEAVPageMemoryRegion@23@@Z
  ?Add@PrototypeUsers@internal@v8@@SA?AV?$Handle@VWeakArrayList@internal@v8@@@23@PEAVIsolate@23@V423@V?$Handle@VMap@internal@v8@@@23@PEAH@Z
  ?Add@Set@v8@@QEAA?AV?$MaybeLocal@VSet@v8@@@2@V?$Local@VContext@v8@@@2@V?$Local@VValue@v8@@@2@@Z
  ?Add@SharedTurboAssembler@internal@v8@@QEAAXVRegister@23@VImmediate@23@@Z
  ?Add@SmallOrderedHashMap@internal@v8@@SA?AV?$MaybeHandle@VSmallOrderedHashMap@internal@v8@@@23@PEAVIsolate@23@V?$Handle@VSmallOrderedHashMap@internal@v8@@@23@V?$Handle@VObject@internal@v8@@@23@2@Z
  ?Add@SmallOrderedHashSet@internal@v8@@SA?AV?$MaybeHandle@VSmallOrderedHashSet@internal@v8@@@23@PEAVIsolate@23@V?$Handle@VSmallOrderedHashSet@internal@v8@@@23@V?$Handle@VObject@internal@v8@@@23@@Z
  ?Add@SmallOrderedNameDictionary@internal@v8@@SA?AV?$MaybeHandle@VSmallOrderedNameDictionary@internal@v8@@@23@PEAVIsolate@23@V?$Handle@VSmallOrderedNameDictionary@internal@v8@@@23@V?$Handle@VName@internal@v8@@@23@V?$Handle@VObject@internal@v8@@@23@VPropertyDetails@23@@Z
  ?Add@StringSet@internal@v8@@SA?AV?$Handle@VStringSet@internal@v8@@@23@PEAVIsolate@23@V423@V?$Handle@VString@internal@v8@@@23@@Z
  ?AddAll@BitVector@internal@v8@@QEAAXXZ
  ?AddAllocation@GCTracer@internal@v8@@QEAAXN@Z
  ?AddAllocationObserver@AllocationCounter@internal@v8@@QEAAXPEAVAllocationObserver@23@@Z
  ?AddAllocationObserver@Space@internal@v8@@UEAAXPEAVAllocationObserver@23@@Z
  ?AddAllocationObserver@SpaceWithLinearArea@internal@v8@@UEAAXPEAVAllocationObserver@23@@Z
  ?AddArgument@AsmFunctionType@wasm@internal@v8@@QEAAXPEAVAsmType@234@@Z
  ?AddArrayType@WasmModuleBuilder@wasm@internal@v8@@QEAAIPEAVArrayType@234@I@Z
  ?AddArrowFunctionFormalParameters@Parser@internal@v8@@AEAAXPEAUParserFormalParameters@23@PEAVExpression@23@H@Z
  ?AddAsmWasmOffset@WasmFunctionBuilder@wasm@internal@v8@@QEAAX_K0@Z
  ?AddAttachedObject@?$Deserializer@VIsolate@internal@v8@@@internal@v8@@IEAAXV?$Handle@VHeapObject@internal@v8@@@23@@Z
  ?AddAttachedObject@?$Deserializer@VLocalIsolate@internal@v8@@@internal@v8@@IEAAXV?$Handle@VHeapObject@internal@v8@@@23@@Z
  ?AddBeforeCallEnteredCallback@Isolate@internal@v8@@QEAAXP6AXPEAV13@@Z@Z
  ?AddBeforeCallEnteredCallback@Isolate@v8@@QEAAXP6AXPEAV12@@Z@Z
  ?AddBignum@Bignum@base@v8@@QEAAXAEBV123@@Z
  ?AddBinaryOpICSlot@FeedbackVectorSpec@internal@v8@@QEAA?AVFeedbackSlot@23@XZ
  ?AddBlock@LocalHandles@internal@v8@@AEAAPEA_KXZ
  ?AddBlockRequiringSpillOperand@TopLevelLiveRange@compiler@internal@v8@@QEAAXVRpoNumber@234@PEBVTopTierRegisterAllocationData@234@@Z
  ?AddBranch@Schedule@compiler@internal@v8@@QEAAXPEAVBasicBlock@234@PEAVNode@234@00@Z
  ?AddBuildEmbedderGraphCallback@HeapProfiler@v8@@QEAAXP6AXPEAVIsolate@2@PEAVEmbedderGraph@2@PEAX@Z2@Z
  ?AddCall@Schedule@compiler@internal@v8@@QEAAXPEAVBasicBlock@234@PEAVNode@234@00@Z
  ?AddCallCompletedCallback@Isolate@internal@v8@@QEAAXP6AXPEAV13@@Z@Z
  ?AddCallCompletedCallback@Isolate@v8@@QEAAXP6AXPEAV12@@Z@Z
  ?AddCallICSlot@FeedbackVectorSpec@internal@v8@@QEAA?AVFeedbackSlot@23@XZ
  ?AddCallback@CompilationState@wasm@internal@v8@@QEAAXV?$unique_ptr@VCompilationEventCallback@wasm@internal@v8@@U?$default_delete@VCompilationEventCallback@wasm@internal@v8@@@std@@@std@@@Z
  ?AddCaseEquivalents@CharacterRange@internal@v8@@SAXPEAVIsolate@23@PEAVZone@23@PEAV?$ZoneList@VCharacterRange@internal@v8@@@23@_N@Z
  ?AddCategory@FreeListManyCached@internal@v8@@UEAA_NPEAVFreeListCategory@23@@Z
  ?AddCharacterCore@StringHasher@internal@v8@@SAIIG@Z
  ?AddChild@PreparseDataBuilder@internal@v8@@AEAAXPEAV123@@Z
  ?AddClassEscape@CharacterRange@internal@v8@@SAXW4StandardCharacterSet@23@PEAV?$ZoneList@VCharacterRange@internal@v8@@@23@_NPEAVZone@23@@Z
  ?AddClassStaticBlock@Parser@internal@v8@@AEAAXPEAVBlock@23@PEAUClassInfo@?$ParserBase@VParser@internal@v8@@@23@@Z
  ?AddCloneObjectSlot@FeedbackVectorSpec@internal@v8@@QEAA?AVFeedbackSlot@23@XZ
  ?AddClonedNode@GraphAssembler@compiler@internal@v8@@IEAAPEAVNode@234@PEAV5234@@Z
  ?AddCode@CodeMap@internal@v8@@QEAAX_KPEAVCodeEntry@23@I@Z
  ?AddCode@NativeModule@wasm@internal@v8@@QEAA?AV?$unique_ptr@VWasmCode@wasm@internal@v8@@U?$default_delete@VWasmCode@wasm@internal@v8@@@std@@@std@@HAEBVCodeDesc@34@HIV?$Vector@$$CBE@base@4@1W4Kind@WasmCode@234@W4ExecutionTier@234@W4ForDebugging@234@@Z
  ?AddCodeEventListener@Logger@internal@v8@@QEAAXPEAVCodeEventListener@23@@Z
  ?AddCodeForTesting@NativeModule@wasm@internal@v8@@QEAAPEAVWasmCode@234@V?$Handle@VCode@internal@v8@@@34@@Z
  ?AddCodeMemoryChunk@Isolate@internal@v8@@QEAAXPEAVMemoryChunk@23@@Z
  ?AddCodeMemoryRange@Isolate@internal@v8@@AEAAXUMemoryRange@3@@Z
  ?AddCodeRange@Isolate@internal@v8@@QEAAX_K0@Z
  ?AddCodeSpaceLocked@NativeModule@wasm@internal@v8@@AEAAXVAddressRegion@base@4@@Z
  ?AddCodeTarget@AssemblerBase@internal@v8@@IEAAHV?$Handle@VCode@internal@v8@@@23@@Z
  ?AddCodeWithCodeSpace@NativeModule@wasm@internal@v8@@AEAA?AV?$unique_ptr@VWasmCode@wasm@internal@v8@@U?$default_delete@VWasmCode@wasm@internal@v8@@@std@@@std@@HAEBVCodeDesc@34@HIV?$Vector@$$CBE@base@4@1W4Kind@WasmCode@234@W4ExecutionTier@234@W4ForDebugging@234@V?$Vector@E@94@AEBUJumpTablesRef@1234@@Z
  ?AddCompactionEvent@GCTracer@internal@v8@@QEAAXN_K@Z
  ?AddCompareICSlot@FeedbackVectorSpec@internal@v8@@QEAA?AVFeedbackSlot@23@XZ
  ?AddCompiledCode@NativeModule@wasm@internal@v8@@QEAA?AV?$unique_ptr@VWasmCode@wasm@internal@v8@@U?$default_delete@VWasmCode@wasm@internal@v8@@@std@@@std@@UWasmCompilationResult@234@@Z
  ?AddCompiledCode@NativeModule@wasm@internal@v8@@QEAA?AV?$vector@V?$unique_ptr@VWasmCode@wasm@internal@v8@@U?$default_delete@VWasmCode@wasm@internal@v8@@@std@@@std@@V?$allocator@V?$unique_ptr@VWasmCode@wasm@internal@v8@@U?$default_delete@VWasmCode@wasm@internal@v8@@@std@@@std@@@2@@std@@V?$Vector@UWasmCompilationResult@wasm@internal@v8@@@base@4@@Z
  ?AddConcurrentlyMarkedBytes@IncrementalMarkingSchedule@internal@cppgc@@QEAAX_K@Z
  ?AddConstant@InstructionSequence@compiler@internal@v8@@QEAAHHVConstant@234@@Z
  ?AddContext@SnapshotCreator@v8@@QEAA_KV?$Local@VContext@v8@@@2@USerializeInternalFieldsCallback@2@@Z
  ?AddCrashKey@Isolate@internal@v8@@QEAAXW4CrashKeyId@3@AEBV?$basic_string@DU?$char_traits@D@std@@V?$allocator@D@2@@std@@@Z
  ?AddCrashKeysForIsolateAndHeapPointers@Isolate@internal@v8@@AEAAXXZ
  ?AddCreateClosureSlot@FeedbackVectorSpec@internal@v8@@QEAAHXZ
  ?AddCurrentStack@ProfilerEventsProcessor@internal@v8@@QEAAX_N@Z
  ?AddData@SnapshotCreator@v8@@AEAA_KV?$Local@VContext@v8@@@2@_K@Z
  ?AddData@SnapshotCreator@v8@@AEAA_K_K@Z
  ?AddDataElement@JSObject@internal@v8@@SA?AV?$Maybe@_N@3@V?$Handle@VJSObject@internal@v8@@@23@IV?$Handle@VObject@internal@v8@@@23@W4PropertyAttributes@23@@Z
  ?AddDataSegment@WasmModuleBuilder@wasm@internal@v8@@QEAAXPEBEII@Z
  ?AddDecorator@Graph@compiler@internal@v8@@QEAAXPEAVGraphDecorator@234@@Z
  ?AddDecorator@NodeOriginTable@compiler@internal@v8@@QEAAXXZ
  ?AddDecorator@SourcePositionTable@compiler@internal@v8@@QEAAXXZ
  ?AddDeferredReference@WebSnapshotDeserializer@internal@v8@@AEAA?AVHeapObject@23@V?$Handle@VHeapObject@internal@v8@@@23@IW4ValueType@WebSnapshotSerializerDeserializer@23@I@Z
  ?AddDefineKeyedOwnICSlot@FeedbackVectorSpec@internal@v8@@QEAA?AVFeedbackSlot@23@XZ
  ?AddDefineKeyedOwnPropertyInLiteralICSlot@FeedbackVectorSpec@internal@v8@@QEAA?AVFeedbackSlot@23@XZ
  ?AddDefineNamedOwnICSlot@FeedbackVectorSpec@internal@v8@@QEAA?AVFeedbackSlot@23@XZ
  ?AddDeoptStack@ProfilerEventsProcessor@internal@v8@@QEAAX_KH@Z
  ?AddDeoptimizationEntry@InstructionSequence@compiler@internal@v8@@QEAAHPEAVFrameStateDescriptor@234@W4DeoptimizeKind@34@W4DeoptimizeReason@34@IAEBUFeedbackSource@234@@Z
  ?AddDeoptimizationExit@CodeGenerator@compiler@internal@v8@@AEAAPEAVDeoptimizationExit@234@PEAVInstruction@234@_K1@Z
  ?AddDeoptimize@Schedule@compiler@internal@v8@@QEAAXPEAVBasicBlock@234@PEAVNode@234@@Z
  ?AddDeserializedCode@NativeModule@wasm@internal@v8@@QEAA?AV?$unique_ptr@VWasmCode@wasm@internal@v8@@U?$default_delete@VWasmCode@wasm@internal@v8@@@std@@@std@@HV?$Vector@E@base@4@HIHHHHHV?$Vector@$$CBE@84@11W4Kind@WasmCode@234@W4ExecutionTier@234@@Z
  ?AddDetachedContext@Isolate@internal@v8@@QEAAXV?$Handle@VContext@internal@v8@@@23@@Z
  ?AddDispatchTable@WasmTableObject@internal@v8@@SAXPEAVIsolate@23@V?$Handle@VWasmTableObject@internal@v8@@@23@V?$Handle@VWasmInstanceObject@internal@v8@@@23@H@Z
  ?AddElementSegment@WasmModuleBuilder@wasm@internal@v8@@QEAAXVWasmElemSegment@1234@@Z
  ?AddEmbeddedObject@AssemblerBase@internal@v8@@IEAA_KV?$Handle@VHeapObject@internal@v8@@@23@@Z
  ?AddEntry@?$ObjectHashTableBase@VEphemeronHashTable@internal@v8@@VObjectHashTableShape@23@@internal@v8@@IEAAXVInternalIndex@23@VObject@23@1@Z
  ?AddEntry@?$ObjectHashTableBase@VObjectHashTable@internal@v8@@VObjectHashTableShape@23@@internal@v8@@IEAAXVInternalIndex@23@VObject@23@1@Z
  ?AddEntry@SourcePositionTableBuilder@internal@v8@@AEAAXAEBUPositionTableEntry@23@@Z
  ?AddEntry@V8HeapExplorer@internal@v8@@AEAAPEAVHeapEntry@23@VHeapObject@23@@Z
  ?AddEntry@V8HeapExplorer@internal@v8@@AEAAPEAVHeapEntry@23@VHeapObject@23@W4Type@423@PEBD@Z
  ?AddEntry@V8HeapExplorer@internal@v8@@QEAAPEAVHeapEntry@23@_KW4Type@423@PEBD0@Z
  ?AddEnvironmentCleanupHook@node@@YAXPEAVIsolate@v8@@P6AXPEAX@Z1@Z
  ?AddEnvironmentCleanupHookInternal@node@@YAPEAUACHHandle@1@PEAVIsolate@v8@@P6AXPEAXP6AX1@Z1@Z1@Z
  ?AddException@WasmModuleBuilder@wasm@internal@v8@@QEAAIPEBV?$Signature@VValueType@wasm@internal@v8@@@34@@Z
  ?AddExport@WasmModuleBuilder@wasm@internal@v8@@QEAAXV?$Vector@$$CBD@base@4@PEAVWasmFunctionBuilder@234@@Z
  ?AddExport@WasmModuleBuilder@wasm@internal@v8@@QEAAXV?$Vector@$$CBD@base@4@W4ImportExportKindCode@234@I@Z
  ?AddExportedGlobal@WasmModuleBuilder@wasm@internal@v8@@QEAAIVValueType@234@_NVWasmInitExpr@234@V?$Vector@$$CBD@base@4@@Z
  ?AddForInSlot@FeedbackVectorSpec@internal@v8@@QEAA?AVFeedbackSlot@23@XZ
  ?AddForTesting@LazilyGeneratedNames@wasm@internal@v8@@QEAAXHVWireBytesRef@234@@Z
  ?AddFormalParameter@Parser@internal@v8@@AEAAXPEAUParserFormalParameters@23@PEAVExpression@23@1H_N@Z
  ?AddFreshPage@NewSpace@internal@v8@@QEAA_NXZ
  ?AddFreshPageSynchronized@NewSpace@internal@v8@@QEAA_NXZ
  ?AddFunction@WasmModuleBuilder@wasm@internal@v8@@QEAAPEAVWasmFunctionBuilder@234@I@Z
  ?AddFunction@WasmModuleBuilder@wasm@internal@v8@@QEAAPEAVWasmFunctionBuilder@234@PEBV?$Signature@VValueType@wasm@internal@v8@@@34@@Z
  ?AddFunctionForNameInference@Parser@internal@v8@@AEAAXPEAVFunctionLiteral@23@@Z
  ?AddGCEpilogueCallback@Isolate@v8@@QEAAXP6AXPEAV12@W4GCType@2@W4GCCallbackFlags@2@@Z1@Z
  ?AddGCEpilogueCallback@Isolate@v8@@QEAAXP6AXPEAV12@W4GCType@2@W4GCCallbackFlags@2@PEAX@Z31@Z
  ?AddGCEpilogueCallback@LocalHeap@internal@v8@@QEAAXP6AXPEAX@Z0@Z
  ?AddGCPrologueCallback@Isolate@v8@@QEAAXP6AXPEAV12@W4GCType@2@W4GCCallbackFlags@2@@Z1@Z
  ?AddGCPrologueCallback@Isolate@v8@@QEAAXP6AXPEAV12@W4GCType@2@W4GCCallbackFlags@2@PEAX@Z31@Z
  ?AddGlobal@WasmModuleBuilder@wasm@internal@v8@@QEAAIVValueType@234@_NVWasmInitExpr@234@@Z
  ?AddGlobalImport@WasmModuleBuilder@wasm@internal@v8@@QEAAIV?$Vector@$$CBD@base@4@VValueType@234@_N0@Z
  ?AddGoto@Schedule@compiler@internal@v8@@QEAAXPEAVBasicBlock@234@0@Z
  ?AddHeapObjectAllocationTracker@Heap@internal@v8@@QEAAXPEAVHeapObjectAllocationTracker@23@@Z
  ?AddImmediate@InstructionSequence@compiler@internal@v8@@QEAA?AVImmediateOperand@234@AEBVConstant@234@@Z
  ?AddImport@WasmModuleBuilder@wasm@internal@v8@@QEAAIV?$Vector@$$CBD@base@4@PEAV?$Signature@VValueType@wasm@internal@v8@@@34@0@Z
  ?AddIncrementalMarkingStep@GCTracer@internal@v8@@QEAAXN_K@Z
  ?AddIncrementalSweepingStep@GCTracer@internal@v8@@QEAAXN@Z
  ?AddInlineReducer@GraphAssembler@compiler@internal@v8@@QEAAXPEAVReducer@234@@Z
  ?AddInlinedFunction@OptimizedCompilationInfo@internal@v8@@QEAAHV?$Handle@VSharedFunctionInfo@internal@v8@@@23@V?$Handle@VBytecodeArray@internal@v8@@@23@VSourcePosition@23@@Z
  ?AddInnerScope@Scope@internal@v8@@AEAAXPEAV123@@Z
  ?AddInputsToFrameStateDescriptor@InstructionSelector@compiler@internal@v8@@AEAA_KPEAVFrameStateDescriptor@234@VFrameState@234@PEAVOperandGenerator@234@PEAVStateObjectDeduplicator@234@PEAV?$ZoneVector@VInstructionOperand@compiler@internal@v8@@@34@W4FrameStateInputKind@234@PEAVZone@34@@Z
  ?AddInputsToFrameStateDescriptor@InstructionSelector@compiler@internal@v8@@AEAA_KPEAVStateValueList@234@PEAV?$ZoneVector@VInstructionOperand@compiler@internal@v8@@@34@PEAVOperandGenerator@234@PEAVStateObjectDeduplicator@234@PEAVNode@234@W4FrameStateInputKind@234@PEAVZone@34@@Z
  ?AddInstance@WasmMemoryObject@internal@v8@@SAXPEAVIsolate@23@V?$Handle@VWasmMemoryObject@internal@v8@@@23@V?$Handle@VWasmInstanceObject@internal@v8@@@23@@Z
  ?AddInstanceOfSlot@FeedbackVectorSpec@internal@v8@@QEAA?AVFeedbackSlot@23@XZ
  ?AddInstruction@InstructionScheduler@compiler@internal@v8@@QEAAXPEAVInstruction@234@@Z
  ?AddInstruction@InstructionSelector@compiler@internal@v8@@QEAAXPEAVInstruction@234@@Z
  ?AddInstruction@InstructionSequence@compiler@internal@v8@@QEAAHPEAVInstruction@234@@Z
  ?AddInternal@SwissNameDictionary@internal@v8@@AEAAHVName@23@VObject@23@VPropertyDetails@23@@Z
  ?AddIsolate@WasmEngine@wasm@internal@v8@@QEAAXPEAVIsolate@34@@Z
  ?AddJumpTable@CodeGenerator@compiler@internal@v8@@AEAAPEAVLabel@34@PEAPEAV534@_K@Z
  ?AddKeyedHasICSlot@FeedbackVectorSpec@internal@v8@@QEAA?AVFeedbackSlot@23@XZ
  ?AddKeyedLoadICSlot@FeedbackVectorSpec@internal@v8@@QEAA?AVFeedbackSlot@23@XZ
  ?AddKeyedStoreICSlot@FeedbackVectorSpec@internal@v8@@QEAA?AVFeedbackSlot@23@W4LanguageMode@23@@Z
  ?AddLiftoffBailout@NativeModule@wasm@internal@v8@@QEAAXXZ
  ?AddLinkedBinding@node@@YAXPEAVEnvironment@1@AEBUnapi_module@@@Z
  ?AddLinkedBinding@node@@YAXPEAVEnvironment@1@AEBUnode_module@1@@Z
  ?AddLinkedBinding@node@@YAXPEAVEnvironment@1@PEBDP6APEAUnapi_value__@@PEAUnapi_env__@@PEAU3@@ZH@Z
  ?AddLinkedBinding@node@@YAXPEAVEnvironment@1@PEBDP6AXV?$Local@VObject@v8@@@v8@@V?$Local@VValue@v8@@@4@V?$Local@VContext@v8@@@4@PEAX@Z5@Z
  ?AddList@BytecodeLoopAssignments@compiler@internal@v8@@QEAAXVRegister@interpreter@34@I@Z
  ?AddLiteralChar@Scanner@internal@v8@@AEAAXD@Z
  ?AddLiteralChar@Scanner@internal@v8@@AEAAXI@Z
  ?AddLiteralCharAdvance@Scanner@internal@v8@@AEAAXXZ
  ?AddLiteralSlot@FeedbackVectorSpec@internal@v8@@QEAA?AVFeedbackSlot@23@XZ
  ?AddLoadGlobalICSlot@FeedbackVectorSpec@internal@v8@@QEAA?AVFeedbackSlot@23@W4TypeofMode@23@@Z
  ?AddLoadICSlot@FeedbackVectorSpec@internal@v8@@QEAA?AVFeedbackSlot@23@XZ
  ?AddLocal@DeclarationScope@internal@v8@@QEAAXPEAVVariable@23@@Z
  ?AddLocal@WasmFunctionBuilder@wasm@internal@v8@@QEAAIVValueType@234@@Z
  ?AddLocals@LocalDeclEncoder@wasm@internal@v8@@QEAAIIVValueType@234@@Z
  ?AddMainThreadEvent@Recorder@metrics@v8@@UEAAXAEBU?$GarbageCollectionBatchedEvents@UGarbageCollectionFullMainThreadIncrementalMark@metrics@v8@@@23@VContextId@123@@Z
  ?AddMainThreadEvent@Recorder@metrics@v8@@UEAAXAEBU?$GarbageCollectionBatchedEvents@UGarbageCollectionFullMainThreadIncrementalSweep@metrics@v8@@@23@VContextId@123@@Z
  ?AddMainThreadEvent@Recorder@metrics@v8@@UEAAXAEBUGarbageCollectionFullCycle@23@VContextId@123@@Z
  ?AddMainThreadEvent@Recorder@metrics@v8@@UEAAXAEBUGarbageCollectionFullMainThreadIncrementalMark@23@VContextId@123@@Z
  ?AddMainThreadEvent@Recorder@metrics@v8@@UEAAXAEBUGarbageCollectionFullMainThreadIncrementalSweep@23@VContextId@123@@Z
  ?AddMainThreadEvent@Recorder@metrics@v8@@UEAAXAEBUGarbageCollectionYoungCycle@23@VContextId@123@@Z
  ?AddMainThreadEvent@Recorder@metrics@v8@@UEAAXAEBUWasmModuleCompiled@23@VContextId@123@@Z
  ?AddMainThreadEvent@Recorder@metrics@v8@@UEAAXAEBUWasmModuleDecoded@23@VContextId@123@@Z
  ?AddMainThreadEvent@Recorder@metrics@v8@@UEAAXAEBUWasmModuleInstantiated@23@VContextId@123@@Z
  ?AddMainThreadEvent@Recorder@metrics@v8@@UEAAXAEBUWasmModuleTieredUp@23@VContextId@123@@Z
  ?AddMessageListener@Isolate@v8@@QEAA_NP6AXV?$Local@VMessage@v8@@@2@V?$Local@VValue@v8@@@2@@Z1@Z
  ?AddMessageListenerWithErrorLevel@Isolate@v8@@QEAA_NP6AXV?$Local@VMessage@v8@@@2@V?$Local@VValue@v8@@@2@@ZH1@Z
  ?AddMicrotasksCompletedCallback@Isolate@v8@@QEAAXP6AXPEAV12@PEAX@Z1@Z
  ?AddMicrotasksCompletedCallback@MicrotaskQueue@internal@v8@@UEAAXP6AXPEAVIsolate@3@PEAX@Z1@Z
  ?AddMissingTransitions@Map@internal@v8@@CA?AV?$Handle@VMap@internal@v8@@@23@PEAVIsolate@23@V423@V?$Handle@VDescriptorArray@internal@v8@@@23@@Z
  ?AddMove@ParallelMove@compiler@internal@v8@@QEAAPEAVMoveOperands@234@AEBVInstructionOperand@234@0@Z
  ?AddMove@ParallelMove@compiler@internal@v8@@QEAAPEAVMoveOperands@234@AEBVInstructionOperand@234@0PEAVZone@34@@Z
  ?AddNearHeapLimitCallback@Heap@internal@v8@@QEAAXP6A_KPEAX_K1@Z0@Z
  ?AddNearHeapLimitCallback@Isolate@v8@@QEAAXP6A_KPEAX_K1@Z0@Z
  ?AddNode@BasicBlock@compiler@internal@v8@@QEAAXPEAVNode@234@@Z
  ?AddNode@GraphAssembler@compiler@internal@v8@@QEAAPEAVNode@234@PEAV5234@@Z
  ?AddNode@RawMachineAssembler@compiler@internal@v8@@QEAAPEAVNode@234@PEBVOperator@234@@Z
  ?AddNode@RawMachineAssembler@compiler@internal@v8@@QEAAPEAVNode@234@PEBVOperator@234@HPEBQEAV5234@@Z
  ?AddNode@Schedule@compiler@internal@v8@@QEAAXPEAVBasicBlock@234@PEAVNode@234@@Z
  ?AddOperandToStateValueDescriptor@InstructionSelector@compiler@internal@v8@@AEAA_KPEAVStateValueList@234@PEAV?$ZoneVector@VInstructionOperand@compiler@internal@v8@@@34@PEAVOperandGenerator@234@PEAVStateObjectDeduplicator@234@PEAVNode@234@VMachineType@34@W4FrameStateInputKind@234@PEAVZone@34@@Z
  ?AddOptimizedCode@NativeContext@internal@v8@@QEAAXVCode@23@@Z
  ?AddOrDisposeString@StringsStorage@internal@v8@@AEAAPEBDPEADH@Z
  ?AddOutputToSelectContinuation@InstructionSelector@compiler@internal@v8@@AEAAXPEAVOperandGenerator@234@HPEAVNode@234@@Z
  ?AddOverload@AsmOverloadedFunctionType@wasm@internal@v8@@QEAAXPEAVAsmType@234@@Z
  ?AddPage@BaseSpace@internal@cppgc@@QEAAXPEAVBasePage@23@@Z
  ?AddPage@LargeObjectSpace@internal@v8@@UEAAXPEAVLargePage@23@_K@Z
  ?AddPage@PagedSpace@internal@v8@@QEAA_KPEAVPage@23@@Z
  ?AddParkedAllocationBuffer@NewSpace@internal@v8@@QEAA_NHW4AllocationAlignment@23@@Z
  ?AddPathFromEnd@ProfileTree@internal@v8@@QEAAPEAVProfileNode@23@AEBV?$vector@PEAVCodeEntry@internal@v8@@V?$allocator@PEAVCodeEntry@internal@v8@@@std@@@std@@H_N@Z
  ?AddPathFromEnd@ProfileTree@internal@v8@@QEAAPEAVProfileNode@23@AEBV?$vector@UCodeEntryAndLineNumber@internal@v8@@V?$allocator@UCodeEntryAndLineNumber@internal@v8@@@std@@@std@@H_NW4CpuProfilingMode@3@@Z
  ?AddPathToCurrentProfiles@CpuProfilesCollection@internal@v8@@QEAAXVTimeTicks@base@3@AEBV?$vector@UCodeEntryAndLineNumber@internal@v8@@V?$allocator@UCodeEntryAndLineNumber@internal@v8@@@std@@@std@@H_NVTimeDelta@53@W4StateTag@3@W4EmbedderStateTag@3@_K6@Z
  ?AddPhi@InstructionBlock@compiler@internal@v8@@QEAAXPEAVPhiInstruction@234@@Z
  ?AddPosition@SourcePositionTableBuilder@internal@v8@@QEAAX_KVSourcePosition@23@_N@Z
  ?AddPotentiallyDeadCode@WasmEngine@wasm@internal@v8@@QEAA_NPEAVWasmCode@234@@Z
  ?AddPredecessor@BasicBlock@compiler@internal@v8@@QEAAXPEAV1234@@Z
  ?AddProperty@JSObject@internal@v8@@SAXPEAVIsolate@23@V?$Handle@VJSObject@internal@v8@@@23@V?$Handle@VName@internal@v8@@@23@V?$Handle@VObject@internal@v8@@@23@W4PropertyAttributes@23@@Z
  ?AddProtectedInstructionLanding@CodeGenerator@compiler@internal@v8@@QEAAXII@Z
  ?AddRange@AddressToTraceMap@internal@v8@@QEAAX_KHI@Z
  ?AddRangeToActiveSystemPages@PagedSpace@internal@v8@@QEAAXPEAVPage@23@_K1@Z
  ?AddRanger@OperationTyper@compiler@internal@v8@@AEAA?AVType@234@NNNN@Z
  ?AddRawLiteralChar@Scanner@internal@v8@@AEAAXI@Z
  ?AddRecursiveGroup@TypeCanonicalizer@wasm@internal@v8@@QEAAXPEAUWasmModule@234@I@Z
  ?AddReducer@GraphReducer@compiler@internal@v8@@QEAAXPEAVReducer@234@@Z
  ?AddRef@CodeEntryStorage@internal@v8@@QEAAXPEAVCodeEntry@23@@Z
  ?AddRef@WasmCodeRefScope@wasm@internal@v8@@SAXPEAVWasmCode@234@@Z
  ?AddResumeTarget@LoopInfo@compiler@internal@v8@@QEAAXAEBVResumeJumpTarget@234@@Z
  ?AddRetainedMap@Heap@internal@v8@@QEAAXV?$Handle@VNativeContext@internal@v8@@@23@V?$Handle@VMap@internal@v8@@@23@@Z
  ?AddReturn@Schedule@compiler@internal@v8@@QEAAXPEAVBasicBlock@234@PEAVNode@234@@Z
  ?AddReturningUnusedBounds@FreeList@internal@cppgc@@QEAA?AU?$pair@PEAEPEAE@std@@UBlock@123@@Z
  ?AddSample@ProfilerEventsProcessor@internal@v8@@QEAAXUTickSample@23@@Z
  ?AddScheduledBytesToMark@IncrementalMarking@internal@v8@@AEAAX_K@Z
  ?AddScopeSample@GCTracer@internal@v8@@QEAAXW4ScopeId@Scope@123@N@Z
  ?AddSharedWasmMemory@Isolate@internal@v8@@QEAAXV?$Handle@VWasmMemoryObject@internal@v8@@@23@@Z
  ?AddSignature@WasmModuleBuilder@wasm@internal@v8@@QEAAIPEBV?$Signature@VValueType@wasm@internal@v8@@@34@I@Z
  ?AddSlot@FeedbackVectorSpec@internal@v8@@AEAA?AVFeedbackSlot@23@W4FeedbackSlotKind@23@@Z
  ?AddSlot@OldToNewRememberedSet@internal@cppgc@@QEAAXPEAX@Z
  ?AddSourceObject@OldToNewRememberedSet@internal@cppgc@@QEAAXAEAVHeapObjectHeader@23@@Z
  ?AddStoreGlobalICSlot@FeedbackVectorSpec@internal@v8@@QEAA?AVFeedbackSlot@23@W4LanguageMode@23@@Z
  ?AddStoreICSlot@FeedbackVectorSpec@internal@v8@@QEAA?AVFeedbackSlot@23@W4LanguageMode@23@@Z
  ?AddStoreInArrayLiteralICSlot@FeedbackVectorSpec@internal@v8@@QEAA?AVFeedbackSlot@23@XZ
  ?AddStructType@WasmModuleBuilder@wasm@internal@v8@@QEAAIPEAVStructType@234@I@Z
  ?AddSuccessor@BasicBlock@compiler@internal@v8@@QEAAXPEAV1234@@Z
  ?AddSuccessor@Schedule@compiler@internal@v8@@AEAAXPEAVBasicBlock@234@0@Z
  ?AddSuccessorForTesting@Schedule@compiler@internal@v8@@QEAAXPEAVBasicBlock@234@0@Z
  ?AddSurvivalRatio@GCTracer@internal@v8@@QEAAXN@Z
  ?AddSwitch@Schedule@compiler@internal@v8@@QEAAXPEAVBasicBlock@234@PEAVNode@234@PEAPEAV5234@_K@Z
  ?AddTable@WasmModuleBuilder@wasm@internal@v8@@QEAAIVValueType@234@I@Z
  ?AddTable@WasmModuleBuilder@wasm@internal@v8@@QEAAIVValueType@234@II@Z
  ?AddTable@WasmModuleBuilder@wasm@internal@v8@@QEAAIVValueType@234@IIVWasmInitExpr@234@@Z
  ?AddTailCall@Schedule@compiler@internal@v8@@QEAAXPEAVBasicBlock@234@PEAVNode@234@@Z
  ?AddTemplateExpression@Parser@internal@v8@@AEAAXPEAPEAVTemplateLiteral@123@PEAVExpression@23@@Z
  ?AddTemplateSpan@Parser@internal@v8@@AEAAXPEAPEAVTemplateLiteral@123@_N1@Z
  ?AddTerminator@InstructionScheduler@compiler@internal@v8@@QEAAXPEAVInstruction@234@@Z
  ?AddTerminator@InstructionSelector@compiler@internal@v8@@QEAAXPEAVInstruction@234@@Z
  ?AddThreadSafeEvent@Recorder@metrics@v8@@UEAAXAEBUWasmModulesPerIsolate@23@@Z
  ?AddThrow@Schedule@compiler@internal@v8@@QEAAXPEAVBasicBlock@234@PEAVNode@234@@Z
  ?AddTimedSample@TimedHistogram@internal@v8@@QEAAXVTimeDelta@base@3@@Z
  ?AddToEnd@WeakArrayList@internal@v8@@SA?AV?$Handle@VWeakArrayList@internal@v8@@@23@PEAVIsolate@23@V423@AEBVMaybeObjectHandle@23@2@Z
  ?AddToEnd@WeakArrayList@internal@v8@@SA?AV?$Handle@VWeakArrayList@internal@v8@@@23@PEAVIsolate@23@V423@AEBVMaybeObjectHandle@23@@Z
  ?AddToEquivalenceSet@BytecodeRegisterOptimizer@interpreter@internal@v8@@AEAAXPEAVRegisterInfo@1234@0@Z
  ?AddToScriptList@Factory@internal@v8@@AEAAXV?$Handle@VScript@internal@v8@@@23@@Z
  ?AddToScriptList@LocalFactory@internal@v8@@AEAAXV?$Handle@VScript@internal@v8@@@23@@Z
  ?AddToUnion@Type@compiler@internal@v8@@CAHV1234@PEAVUnionType@234@HPEAVZone@34@@Z
  ?AddTranslationForOperand@CodeGenerator@compiler@internal@v8@@AEAAXPEAVInstruction@234@PEAVInstructionOperand@234@VMachineType@34@@Z
  ?AddTypeProfileSlot@FeedbackVectorSpec@internal@v8@@QEAA?AVFeedbackSlot@23@XZ
  ?AddUInt64@Bignum@base@v8@@QEAAX_K@Z
  ?AddUnresolved@Scope@internal@v8@@QEAAXPEAVVariableProxy@23@@Z
  ?AddUseInterval@TopLevelLiveRange@compiler@internal@v8@@QEAAXVLifetimePosition@234@0PEAVZone@34@_N@Z
  ?AddUsePosition@TopLevelLiveRange@compiler@internal@v8@@QEAAXPEAVUsePosition@234@_N@Z
  ?AddWeakCallback@OldToNewRememberedSet@internal@cppgc@@QEAAXUWeakCallbackItem@MarkingWorklists@23@@Z
  ?AddWrapperInfoForTesting@ProcessingScope@LocalEmbedderHeapTracer@internal@v8@@QEAAXU?$pair@PEAXPEAX@std@@@Z
  ?AddWriter@NativeModule@wasm@internal@v8@@QEAAXXZ
  ?AddWriter@WasmCodeAllocator@wasm@internal@v8@@QEAAXXZ
  ?AddressUsesRegister@Operand@internal@v8@@QEBA_NVRegister@23@@Z
  ?Addresses@StackTrace@debug@base@v8@@QEBAPEBQEBXPEA_K@Z
  ?AdjustAmountOfExternalAllocatedMemory@Isolate@v8@@QEAA_J_J@Z
  ?AdjustRepresentation@OrderedHashMapHandler@internal@v8@@SA?AV?$MaybeHandle@VOrderedHashMap@internal@v8@@@23@PEAVIsolate@23@V?$Handle@VSmallOrderedHashMap@internal@v8@@@23@@Z
  ?AdjustRepresentation@OrderedHashSetHandler@internal@v8@@SA?AV?$MaybeHandle@VOrderedHashSet@internal@v8@@@23@PEAVIsolate@23@V?$Handle@VSmallOrderedHashSet@internal@v8@@@23@@Z
  ?AdjustRepresentation@OrderedNameDictionaryHandler@internal@v8@@KA?AV?$MaybeHandle@VOrderedNameDictionary@internal@v8@@@23@PEAVIsolate@23@V?$Handle@VSmallOrderedNameDictionary@internal@v8@@@23@@Z
  ?AdjustSamplingInterval@CpuProfiler@internal@v8@@AEAAXXZ
  ?AdjustSchedulingParams@OS@base@v8@@SAXXZ
  ?AdjustStackLimitForSimulator@StackGuard@internal@v8@@QEAAXXZ
  ?Advance@BytecodeArrayIterator@interpreter@internal@v8@@QEAAXXZ
  ?Advance@BytecodeOffsetIterator@baseline@internal@v8@@QEAAXXZ
  ?Advance@FeedbackIterator@internal@v8@@QEAAXXZ
  ?Advance@JavaScriptFrameIterator@internal@v8@@QEAAXXZ
  ?Advance@RelocIterator@internal@v8@@AEAAXH@Z
  ?Advance@SourcePositionTableIterator@internal@v8@@QEAAXXZ
  ?Advance@StackFrameIterator@internal@v8@@QEAAXXZ
  ?Advance@StackTraceFrameIterator@internal@v8@@QEAAXXZ
  ?Advance@iterator@StateValuesAccess@compiler@internal@v8@@AEAAXXZ
  ?AdvanceAllocationObservers@AllocationCounter@internal@v8@@QEAAX_K@Z
  ?AdvanceAllocationObservers@SpaceWithLinearArea@internal@v8@@QEAAXXZ
  ?AdvanceAndInvokeAllocationObservers@LargeObjectSpace@internal@v8@@IEAAX_K0@Z
  ?AdvanceCurrentPosition@RegExpBytecodeGenerator@internal@v8@@UEAAXH@Z
  ?AdvanceCurrentPosition@RegExpMacroAssemblerX64@internal@v8@@UEAAXH@Z
  ?AdvanceGetTag@RelocIterator@internal@v8@@AEAAHXZ
  ?AdvanceLastProcessedMarker@LiveRange@compiler@internal@v8@@AEBAXPEAVUseInterval@234@VLifetimePosition@234@@Z
  ?AdvanceLocation@EhFrameWriter@internal@v8@@QEAAXH@Z
  ?AdvanceMarkingOnAllocation@MarkerBase@internal@cppgc@@IEAAXXZ
  ?AdvanceMarkingWithLimits@MarkerBase@internal@cppgc@@QEAA_NVTimeDelta@base@v8@@_K@Z
  ?AdvanceOnAllocation@IncrementalMarking@internal@v8@@AEAAXXZ
  ?AdvanceOneFrame@StackTraceFrameIterator@internal@v8@@QEAAXXZ
  ?AdvancePolymorphic@FeedbackIterator@internal@v8@@AEAAXXZ
  ?AdvanceReadData@RelocIterator@internal@v8@@AEAAXXZ
  ?AdvanceReadInt@RelocIterator@internal@v8@@AEAAXXZ
  ?AdvanceReadLongPCJump@RelocIterator@internal@v8@@AEAAXXZ
  ?AdvanceReadPC@RelocIterator@internal@v8@@AEAAXXZ
  ?AdvanceRegister@RegExpBytecodeGenerator@internal@v8@@UEAAXHH@Z
  ?AdvanceRegister@RegExpMacroAssemblerX64@internal@v8@@UEAAXHH@Z
  ?AdvanceTillNotEmpty@iterator@StateValuesAccess@compiler@internal@v8@@QEAA_KXZ
  ?AdvanceToBytecodeOffset@BytecodeOffsetIterator@baseline@internal@v8@@QEAAXH@Z
  ?AdvanceToNextPage@PagedSpaceObjectIterator@internal@v8@@AEAA_NXZ
  ?AdvanceToPCOffset@BytecodeOffsetIterator@baseline@internal@v8@@QEAAX_K@Z
  ?AdvanceTracing@CppHeap@internal@v8@@QEAA_NN@Z
  ?AdvanceWithDeadline@IncrementalMarking@internal@v8@@QEAA?AW4StepResult@23@NW4CompletionAction@123@W4StepOrigin@23@@Z
  ?AggregateError_string@Factory@internal@v8@@QEAA?AV?$Handle@VString@internal@v8@@@23@XZ
  ?AggregateError_string@LocalFactory@internal@v8@@QEAA?AV?$Handle@VString@internal@v8@@@23@XZ
  ?Align@AlignedSlotAllocator@internal@v8@@QEAAHH@Z
  ?Align@Assembler@internal@v8@@QEAAXH@Z
  ?Align@Bignum@base@v8@@AEAAXAEBV123@@Z
  ?AlignFrame@Frame@compiler@internal@v8@@QEAAXH@Z
  ?AlignSavedCalleeRegisterSlots@Frame@compiler@internal@v8@@QEAAXH@Z
  ?AlignedAlloc@internal@v8@@YAPEAX_K0@Z
  ?AlignedFree@internal@v8@@YAXPEAX@Z
  ?AlignmentRequirements@InstructionSelector@compiler@internal@v8@@SA?AV0MachineOperatorBuilder@234@XZ
  ?AllBitsClearInRange@?$ConcurrentBitmap@$00@internal@v8@@QEAA_NII@Z
  ?AllBitsSetInRange@?$ConcurrentBitmap@$00@internal@v8@@QEAA_NII@Z
  ?AllFramesOnStackAreBlackboxed@Debug@internal@v8@@QEAA_NXZ
  ?AllInRangeOrTopBitSet@SimdSwizzle@wasm@internal@v8@@SA_NV?$array@E$0BA@@std@@@Z
  ?AllValueInputsAreTyped@NodeProperties@compiler@internal@v8@@SA_NPEAVNode@234@@Z
  ?AllocatableMemoryInCodePage@MemoryChunkLayout@internal@v8@@SA_KXZ
  ?AllocatableMemoryInDataPage@MemoryChunkLayout@internal@v8@@SA_KXZ
  ?AllocatableMemoryInMemoryChunk@MemoryChunkLayout@internal@v8@@SA_KW4AllocationSpace@23@@Z
  ?AllocatableRegisters@CallDescriptor@compiler@internal@v8@@QEBA?AV?$RegListBase@VRegister@internal@v8@@@34@XZ
  ?Allocate@?$Deserializer@VIsolate@internal@v8@@@internal@v8@@AEAA?AVHeapObject@23@W4AllocationType@23@HW4AllocationAlignment@23@@Z
  ?Allocate@?$Deserializer@VLocalIsolate@internal@v8@@@internal@v8@@AEAA?AVHeapObject@23@W4AllocationType@23@HW4AllocationAlignment@23@@Z
  ?Allocate@?$OrderedHashTableHandler@VSmallOrderedHashMap@internal@v8@@VOrderedHashMap@23@@internal@v8@@SA?AV?$MaybeHandle@VHeapObject@internal@v8@@@23@PEAVIsolate@23@H@Z
  ?Allocate@?$OrderedHashTableHandler@VSmallOrderedHashSet@internal@v8@@VOrderedHashSet@23@@internal@v8@@SA?AV?$MaybeHandle@VHeapObject@internal@v8@@@23@PEAVIsolate@23@H@Z
  ?Allocate@?$OrderedHashTableHandler@VSmallOrderedNameDictionary@internal@v8@@VOrderedNameDictionary@23@@internal@v8@@SA?AV?$MaybeHandle@VHeapObject@internal@v8@@@23@PEAVIsolate@23@H@Z
  ?Allocate@AddressSpaceReservation@base@v8@@QEAA_NPEAX_KW4MemoryPermission@OS@23@@Z
  ?Allocate@AlignedSlotAllocator@internal@v8@@QEAAHH@Z
  ?Allocate@BackingStore@internal@v8@@SA?AV?$unique_ptr@VBackingStore@internal@v8@@U?$default_delete@VBackingStore@internal@v8@@@std@@@std@@PEAVIsolate@23@_KW4SharedFlag@23@W4InitializedFlag@23@@Z
  ?Allocate@DisjointAllocationPool@wasm@internal@v8@@QEAA?AVAddressRegion@base@4@_K@Z
  ?Allocate@FreeList@internal@cppgc@@QEAA?AUBlock@123@_K@Z
  ?Allocate@FreeListMany@internal@v8@@UEAA?AVFreeSpace@23@_KPEA_KW4AllocationOrigin@23@@Z
  ?Allocate@FreeListManyCached@internal@v8@@UEAA?AVFreeSpace@23@_KPEA_KW4AllocationOrigin@23@@Z
  ?Allocate@FreeListManyCachedFastPath@internal@v8@@UEAA?AVFreeSpace@23@_KPEA_KW4AllocationOrigin@23@@Z
  ?Allocate@FreeListManyCachedOrigin@internal@v8@@UEAA?AVFreeSpace@23@_KPEA_KW4AllocationOrigin@23@@Z
  ?Allocate@Isolate@internal@v8@@CAPEAV123@_N@Z
  ?Allocate@Isolate@v8@@SAPEAV12@XZ
  ?Allocate@JSGraphAssembler@compiler@internal@v8@@QEAAPEAVNode@234@W4AllocationType@34@PEAV5234@@Z
  ?Allocate@MakeGarbageCollectedTraitInternal@internal@cppgc@@CAPEAXAEAVAllocationHandle@3@_KG@Z
  ?Allocate@MakeGarbageCollectedTraitInternal@internal@cppgc@@CAPEAXAEAVAllocationHandle@3@_KGUCustomSpaceIndex@3@@Z
  ?Allocate@MakeGarbageCollectedTraitInternal@internal@cppgc@@CAPEAXAEAVAllocationHandle@3@_KW4AlignVal@23@G@Z
  ?Allocate@MakeGarbageCollectedTraitInternal@internal@cppgc@@CAPEAXAEAVAllocationHandle@3@_KW4AlignVal@23@GUCustomSpaceIndex@3@@Z
  ?Allocate@NormalPageMemoryRegion@internal@cppgc@@QEAAXPEAE@Z
  ?Allocate@OS@base@v8@@CAPEAXPEAX_K1W4MemoryPermission@123@@Z
  ?Allocate@SimplifiedOperatorBuilder@compiler@internal@v8@@QEAAPEBVOperator@234@VType@234@W4AllocationType@34@@Z
  ?AllocateAlignedRegion@RegionAllocator@base@v8@@QEAA_K_K0@Z
  ?AllocateAndInstallRequestedHeapObjects@Assembler@internal@v8@@AEAAXPEAVIsolate@23@@Z
  ?AllocateCode@CodeBuilder@Factory@internal@v8@@AEAA?AV?$MaybeHandle@VCode@internal@v8@@@34@_N@Z
  ?AllocateConcurrentSparkplugCode@CodeBuilder@Factory@internal@v8@@AEAA?AV?$MaybeHandle@VCode@internal@v8@@@34@_N@Z
  ?AllocateData@ControlEquivalence@compiler@internal@v8@@AEAAXPEAVNode@234@@Z
  ?AllocateDeferredConstantPoolEntry@BytecodeArrayBuilder@interpreter@internal@v8@@QEAA_KXZ
  ?AllocateElements@JSCreateLowering@compiler@internal@v8@@AEAAPEAVNode@234@PEAV5234@0W4ElementsKind@34@AEBV?$vector@PEAVNode@compiler@internal@v8@@V?$allocator@PEAVNode@compiler@internal@v8@@@std@@@std@@W4AllocationType@34@@Z
  ?AllocateElements@JSCreateLowering@compiler@internal@v8@@AEAAPEAVNode@234@PEAV5234@0W4ElementsKind@34@HW4AllocationType@34@@Z
  ?AllocateEmpty@?$OrderedHashTable@VOrderedHashMap@internal@v8@@$01@internal@v8@@KA?AV?$MaybeHandle@VOrderedHashMap@internal@v8@@@23@PEAVIsolate@23@W4AllocationType@23@W4RootIndex@23@@Z
  ?AllocateEmpty@?$OrderedHashTable@VOrderedHashSet@internal@v8@@$00@internal@v8@@KA?AV?$MaybeHandle@VOrderedHashSet@internal@v8@@@23@PEAVIsolate@23@W4AllocationType@23@W4RootIndex@23@@Z
  ?AllocateEmpty@?$OrderedHashTable@VOrderedNameDictionary@internal@v8@@$02@internal@v8@@KA?AV?$MaybeHandle@VOrderedNameDictionary@internal@v8@@@23@PEAVIsolate@23@W4AllocationType@23@W4RootIndex@23@@Z
  ?AllocateEmpty@OrderedHashMap@internal@v8@@SA?AV?$MaybeHandle@VOrderedHashMap@internal@v8@@@23@PEAVIsolate@23@W4AllocationType@23@@Z
  ?AllocateEmpty@OrderedHashSet@internal@v8@@SA?AV?$MaybeHandle@VOrderedHashSet@internal@v8@@@23@PEAVIsolate@23@W4AllocationType@23@@Z
  ?AllocateEmpty@OrderedNameDictionary@internal@v8@@SA?AV?$MaybeHandle@VOrderedNameDictionary@internal@v8@@@23@PEAVIsolate@23@W4AllocationType@23@@Z
  ?AllocateEntry@V8HeapExplorer@internal@v8@@UEAAPEAVHeapEntry@23@PEAX@Z
  ?AllocateEntry@V8HeapExplorer@internal@v8@@UEAAPEAVHeapEntry@23@VSmi@23@@Z
  ?AllocateEnvironmentThreadId@node@@YA?AUThreadId@1@XZ
  ?AllocateExternalBackingStore@Heap@internal@v8@@QEAAPEAXAEBV?$function@$$A6APEAX_K@Z@std@@_K@Z
  ?AllocateForDeserializedCode@NativeModule@wasm@internal@v8@@QEAA?AU?$pair@V?$Vector@E@base@v8@@UJumpTablesRef@NativeModule@wasm@internal@3@@std@@_K@Z
  ?AllocateGuardRegion@VirtualAddressSpace@base@v8@@UEAA_N_K0@Z
  ?AllocateGuardRegion@VirtualAddressSubspace@base@v8@@UEAA_N_K0@Z
  ?AllocateHeapSlot@Scope@internal@v8@@AEAAXPEAVVariable@23@@Z
  ?AllocateInLabSlow@ConcurrentAllocator@internal@v8@@AEAA?AVAllocationResult@23@HW4AllocationAlignment@23@W4AllocationOrigin@23@@Z
  ?AllocateInOldGenerationStubConstant@JSGraph@compiler@internal@v8@@QEAAPEAVNode@234@XZ
  ?AllocateInOldGenerationStubConstant@JSGraphAssembler@compiler@internal@v8@@QEAA?AV?$TNode@VCode@internal@v8@@@34@XZ
  ?AllocateInRegion@DisjointAllocationPool@wasm@internal@v8@@QEAA?AVAddressRegion@base@4@_KV564@@Z
  ?AllocateInYoungGenerationStubConstant@JSGraph@compiler@internal@v8@@QEAAPEAVNode@234@XZ
  ?AllocateInYoungGenerationStubConstant@JSGraphAssembler@compiler@internal@v8@@QEAA?AV?$TNode@VCode@internal@v8@@@34@XZ
  ?AllocateIndex@ConstantArrayBuilder@interpreter@internal@v8@@AEAAIVEntry@1234@@Z
  ?AllocateIndexArray@ConstantArrayBuilder@interpreter@internal@v8@@AEAAIVEntry@1234@_K@Z
  ?AllocateJumpTable@BytecodeArrayBuilder@interpreter@internal@v8@@QEAAPEAVBytecodeJumpTable@234@HH@Z
  ?AllocateLargePage@LargeObjectSpace@internal@v8@@IEAAPEAVLargePage@23@HW4Executability@23@@Z
  ?AllocateLargePage@MemoryAllocator@internal@v8@@QEAAPEAVLargePage@23@PEAVLargeObjectSpace@23@_KW4Executability@23@@Z
  ?AllocateLargePageMemory@PageBackend@internal@cppgc@@QEAAPEAE_K@Z
  ?AllocateLiteralRegExp@JSCreateLowering@compiler@internal@v8@@AEAAPEAVNode@234@PEAV5234@0VRegExpBoilerplateDescriptionRef@234@@Z
  ?AllocateLocals@DeclarationScope@internal@v8@@QEAAXXZ
  ?AllocateNode@CrossThreadPersistentRegion@internal@cppgc@@QEAAPEAVPersistentNode@23@PEAXP6AXPEAVVisitor@3@PEBX@Z@Z
  ?AllocateNode@PersistentRegion@internal@cppgc@@QEAAPEAVPersistentNode@23@PEAXP6AXPEAVVisitor@3@PEBX@Z@Z
  ?AllocateNonParameterLocal@Scope@internal@v8@@AEAAXPEAVVariable@23@@Z
  ?AllocateNonParameterLocalsAndDeclaredGlobals@Scope@internal@v8@@AEAAXXZ
  ?AllocateNormalPageMemory@PageBackend@internal@cppgc@@QEAAPEAE_K@Z
  ?AllocateObject@ObjectAllocator@internal@cppgc@@QEAAPEAX_KG@Z
  ?AllocateObject@ObjectAllocator@internal@cppgc@@QEAAPEAX_KGUCustomSpaceIndex@3@@Z
  ?AllocateObject@ObjectAllocator@internal@cppgc@@QEAAPEAX_KW4AlignVal@23@G@Z
  ?AllocateObject@ObjectAllocator@internal@cppgc@@QEAAPEAX_KW4AlignVal@23@GUCustomSpaceIndex@3@@Z
  ?AllocateObjectOnSpace@ObjectAllocator@internal@cppgc@@AEAAPEAXAEAVNormalPageSpace@23@_KG@Z
  ?AllocateObjectOnSpace@ObjectAllocator@internal@cppgc@@AEAAPEAXAEAVNormalPageSpace@23@_KW4AlignVal@23@G@Z
  ?AllocateOnHeap@Type@compiler@internal@v8@@QEAA?AV?$Handle@VTurbofanType@internal@v8@@@34@PEAVFactory@34@@Z
  ?AllocateOutsideLab@ConcurrentAllocator@internal@v8@@AEAA?AVAllocationResult@23@HW4AllocationAlignment@23@W4AllocationOrigin@23@@Z
  ?AllocatePage@MemoryAllocator@internal@v8@@QEAAPEAVPage@23@W4AllocationMode@123@PEAVSpace@23@W4Executability@23@@Z
  ?AllocatePageSize@BoundedPageAllocator@base@v8@@UEAA_KXZ
  ?AllocatePageSize@OS@base@v8@@CA_KXZ
  ?AllocatePageSize@PageAllocator@base@v8@@UEAA_KXZ
  ?AllocatePageSize@internal@v8@@YA_KXZ
  ?AllocatePages@BoundedPageAllocator@base@v8@@UEAAPEAXPEAX_K1W4Permission@PageAllocator@3@@Z
  ?AllocatePages@PageAllocator@base@v8@@UEAAPEAXPEAX_K1W4Permission@13@@Z
  ?AllocatePages@VirtualAddressSpace@base@v8@@UEAA_K_K00W4PagePermissions@3@@Z
  ?AllocatePages@VirtualAddressSubspace@base@v8@@UEAA_K_K00W4PagePermissions@3@@Z
  ?AllocatePages@internal@v8@@YAPEAXPEAVPageAllocator@2@PEAX_K2W4Permission@32@@Z
  ?AllocatePagesAt@BoundedPageAllocator@base@v8@@QEAA_N_K0W4Permission@PageAllocator@3@@Z
  ?AllocateParameter@DeclarationScope@internal@v8@@AEAAXPEAVVariable@23@H@Z
  ?AllocateParameterLocals@DeclarationScope@internal@v8@@QEAAXXZ
  ?AllocateRaw@?$FactoryBase@VFactory@internal@v8@@@internal@v8@@AEAA?AVHeapObject@23@HW4AllocationType@23@W4AllocationAlignment@23@@Z
  ?AllocateRaw@?$FactoryBase@VLocalFactory@internal@v8@@@internal@v8@@AEAA?AVHeapObject@23@HW4AllocationType@23@W4AllocationAlignment@23@@Z
  ?AllocateRaw@CodeLargeObjectSpace@internal@v8@@QEAA?AVAllocationResult@23@H@Z
  ?AllocateRaw@Factory@internal@v8@@AEAA?AVHeapObject@23@HW4AllocationType@23@W4AllocationAlignment@23@@Z
  ?AllocateRaw@HeapAllocator@internal@v8@@QEAA?AVAllocationResult@23@HW4AllocationType@23@W4AllocationOrigin@23@W4AllocationAlignment@23@@Z
  ?AllocateRaw@LocalFactory@internal@v8@@AEAA?AVHeapObject@23@HW4AllocationType@23@W4AllocationAlignment@23@@Z
  ?AllocateRaw@LocalHeap@internal@v8@@QEAA?AVAllocationResult@23@HW4AllocationType@23@W4AllocationOrigin@23@W4AllocationAlignment@23@@Z
  ?AllocateRaw@NewLargeObjectSpace@internal@v8@@QEAA?AVAllocationResult@23@H@Z
  ?AllocateRaw@OldLargeObjectSpace@internal@v8@@QEAA?AVAllocationResult@23@H@Z
  ?AllocateRaw@ReadOnlySpace@internal@v8@@QEAA?AVAllocationResult@23@HW4AllocationAlignment@23@@Z
  ?AllocateRaw@SimplifiedOperatorBuilder@compiler@internal@v8@@QEAAPEBVOperator@234@VType@234@W4AllocationType@34@W4AllowLargeObjects@34@@Z
  ?AllocateRawArray@?$FactoryBase@VFactory@internal@v8@@@internal@v8@@IEAA?AVHeapObject@23@HW4AllocationType@23@@Z
  ?AllocateRawArray@?$FactoryBase@VLocalFactory@internal@v8@@@internal@v8@@IEAA?AVHeapObject@23@HW4AllocationType@23@@Z
  ?AllocateRawBackground@CodeLargeObjectSpace@internal@v8@@QEAA?AVAllocationResult@23@PEAVLocalHeap@23@H@Z
  ?AllocateRawBackground@OldLargeObjectSpace@internal@v8@@QEAA?AVAllocationResult@23@PEAVLocalHeap@23@H@Z
  ?AllocateRawData@HeapAllocator@internal@v8@@QEAA?AVAllocationResult@23@HW4AllocationType@23@W4AllocationOrigin@23@W4AllocationAlignment@23@@Z
  ?AllocateRawFixedArray@?$FactoryBase@VFactory@internal@v8@@@internal@v8@@IEAA?AVHeapObject@23@HW4AllocationType@23@@Z
  ?AllocateRawFixedArray@?$FactoryBase@VLocalFactory@internal@v8@@@internal@v8@@IEAA?AVHeapObject@23@HW4AllocationType@23@@Z
  ?AllocateRawLargeInternal@HeapAllocator@internal@v8@@AEAA?AVAllocationResult@23@HW4AllocationType@23@W4AllocationOrigin@23@W4AllocationAlignment@23@@Z
  ?AllocateRawOneByteInternalizedString@?$FactoryBase@VFactory@internal@v8@@@internal@v8@@QEAA?AV?$Handle@VSeqOneByteString@internal@v8@@@23@HI@Z
  ?AllocateRawOneByteInternalizedString@?$FactoryBase@VLocalFactory@internal@v8@@@internal@v8@@QEAA?AV?$Handle@VSeqOneByteString@internal@v8@@@23@HI@Z
  ?AllocateRawOrFail@LocalHeap@internal@v8@@QEAA_KHW4AllocationType@23@W4AllocationOrigin@23@W4AllocationAlignment@23@@Z
  ?AllocateRawSynchronized@NewSpace@internal@v8@@QEAA?AVAllocationResult@23@HW4AllocationAlignment@23@W4AllocationOrigin@23@@Z
  ?AllocateRawTwoByteInternalizedString@?$FactoryBase@VFactory@internal@v8@@@internal@v8@@QEAA?AV?$Handle@VSeqTwoByteString@internal@v8@@@23@HI@Z
  ?AllocateRawTwoByteInternalizedString@?$FactoryBase@VLocalFactory@internal@v8@@@internal@v8@@QEAA?AV?$Handle@VSeqTwoByteString@internal@v8@@@23@HI@Z
  ?AllocateRawWeakArrayList@?$FactoryBase@VFactory@internal@v8@@@internal@v8@@IEAA?AVHeapObject@23@HW4AllocationType@23@@Z
  ?AllocateRawWeakArrayList@?$FactoryBase@VLocalFactory@internal@v8@@@internal@v8@@IEAA?AVHeapObject@23@HW4AllocationType@23@@Z
  ?AllocateRawWithAllocationSite@Factory@internal@v8@@AEAA?AVHeapObject@23@V?$Handle@VMap@internal@v8@@@23@W4AllocationType@23@V?$Handle@VAllocationSite@internal@v8@@@23@@Z
  ?AllocateRawWithImmortalMap@?$FactoryBase@VFactory@internal@v8@@@internal@v8@@IEAA?AVHeapObject@23@HW4AllocationType@23@VMap@23@W4AllocationAlignment@23@@Z
  ?AllocateRawWithImmortalMap@?$FactoryBase@VLocalFactory@internal@v8@@@internal@v8@@IEAA?AVHeapObject@23@HW4AllocationType@23@VMap@23@W4AllocationAlignment@23@@Z
  ?AllocateRawWithLightRetrySlowPath@HeapAllocator@internal@v8@@AEAA?AVAllocationResult@23@HW4AllocationType@23@W4AllocationOrigin@23@W4AllocationAlignment@23@@Z
  ?AllocateRawWithRetryOrFailSlowPath@HeapAllocator@internal@v8@@AEAA?AVAllocationResult@23@HW4AllocationType@23@W4AllocationOrigin@23@W4AllocationAlignment@23@@Z
  ?AllocateReceiver@DeclarationScope@internal@v8@@QEAAXXZ
  ?AllocateRegion@RegionAllocator@base@v8@@QEAA_KPEAVRandomNumberGenerator@23@_K@Z
  ?AllocateRegion@RegionAllocator@base@v8@@QEAA_K_K00@Z
  ?AllocateRegion@RegionAllocator@base@v8@@QEAA_K_K@Z
  ?AllocateRegionAt@RegionAllocator@base@v8@@QEAA_N_K0W4RegionState@123@@Z
  ?AllocateRegister@BytecodeRegisterOptimizer@interpreter@internal@v8@@AEAAXPEAVRegisterInfo@1234@@Z
  ?AllocateRegistersForTesting@Pipeline@compiler@internal@v8@@SA_NPEBVRegisterConfiguration@34@PEAVInstructionSequence@234@_N2@Z
  ?AllocateRegularInOldGenerationStubConstant@JSGraph@compiler@internal@v8@@QEAAPEAVNode@234@XZ
  ?AllocateRegularInOldGenerationStubConstant@JSGraphAssembler@compiler@internal@v8@@QEAA?AV?$TNode@VCode@internal@v8@@@34@XZ
  ?AllocateRegularInYoungGenerationStubConstant@JSGraph@compiler@internal@v8@@QEAAPEAVNode@234@XZ
  ?AllocateRegularInYoungGenerationStubConstant@JSGraphAssembler@compiler@internal@v8@@QEAA?AV?$TNode@VCode@internal@v8@@@34@XZ
  ?AllocateReservedEntry@ConstantArrayBuilder@interpreter@internal@v8@@AEAAIVSmi@34@@Z
  ?AllocateSavedCalleeRegisterSlots@Frame@compiler@internal@v8@@QEAAXH@Z
  ?AllocateSegment@AccountingAllocator@internal@v8@@QEAAPEAVSegment@23@_K_N@Z
  ?AllocateShared@AddressSpaceReservation@base@v8@@QEAA_NPEAX_KW4MemoryPermission@OS@23@_J1@Z
  ?AllocateShared@OS@base@v8@@CAPEAXPEAX_KW4MemoryPermission@123@_J1@Z
  ?AllocateSharedPages@PageAllocator@base@v8@@UEAA?AV?$unique_ptr@VSharedMemory@PageAllocator@v8@@U?$default_delete@VSharedMemory@PageAllocator@v8@@@std@@@std@@_KPEBX@Z
  ?AllocateSharedPages@VirtualAddressSpace@base@v8@@UEAA_K_K0W4PagePermissions@3@_J0@Z
  ?AllocateSharedPages@VirtualAddressSubspace@base@v8@@UEAA_K_K0W4PagePermissions@3@_J0@Z
  ?AllocateSourceRangeMap@ParseInfo@internal@v8@@QEAAXXZ
  ?AllocateSpillSlot@Frame@compiler@internal@v8@@QEAAHHH@Z
  ?AllocateStackSlot@Scope@internal@v8@@AEAAXPEAVVariable@23@@Z
  ?AllocateStackSpace@TurboAssembler@internal@v8@@QEAAXH@Z
  ?AllocateStackSpace@TurboAssembler@internal@v8@@QEAAXVRegister@23@@Z
  ?AllocateSubspace@VirtualAddressSpace@base@v8@@UEAA?AV?$unique_ptr@VVirtualAddressSpace@v8@@U?$default_delete@VVirtualAddressSpace@v8@@@std@@@std@@_K00W4PagePermissions@3@@Z
  ?AllocateSubspace@VirtualAddressSubspace@base@v8@@UEAA?AV?$unique_ptr@VVirtualAddressSpace@v8@@U?$default_delete@VVirtualAddressSpace@v8@@@std@@@std@@_K00W4PagePermissions@3@@Z
  ?AllocateUnaligned@AlignedSlotAllocator@internal@v8@@QEAAHH@Z
  ?AllocateVariables@DeclarationScope@internal@v8@@AEAA_NPEAVParseInfo@23@@Z
  ?AllocateVariablesRecursively@Scope@internal@v8@@AEAAXXZ
  ?AllocateWasmMemory@BackingStore@internal@v8@@SA?AV?$unique_ptr@VBackingStore@internal@v8@@U?$default_delete@VBackingStore@internal@v8@@@std@@@std@@PEAVIsolate@23@_K1W4SharedFlag@23@@Z
  ?AllocatedBytesAtLastGC@BasePage@internal@cppgc@@QEBA_KXZ
  ?AllocatedBytesAtLastGC@LargePage@internal@cppgc@@QEBA_KXZ
  ?AllocatedBytesAtLastGC@NormalPage@internal@cppgc@@QEBA_KXZ
  ?AllocatedExternalMemorySinceMarkCompact@Heap@internal@v8@@AEAA_KXZ
  ?AllocatedObjectSizeDecreased@CppHeap@internal@v8@@UEAAX_K@Z
  ?AllocatedObjectSizeIncreased@CppHeap@internal@v8@@UEAAX_K@Z
  ?AllocatedObjectSizeSafepointImpl@StatsCollector@internal@cppgc@@AEAAXXZ
  ?AllocatedSinceLastGC@NewSpace@internal@v8@@QEBA_KXZ
  ?AllocationSize@LargePage@internal@cppgc@@SA_K_K@Z
  ?AllocationThroughputInBytesPerMillisecond@GCTracer@internal@v8@@QEBANN@Z
  ?AllocationTypeForInPlaceInternalizableString@Factory@internal@v8@@AEAA?AW4AllocationType@23@XZ
  ?AllocationTypeForInPlaceInternalizableString@LocalFactory@internal@v8@@AEAA?AW4AllocationType@23@XZ
  ?AllocatorLimitOnMaxOldGenerationSize@Heap@internal@v8@@SA_KXZ
  ?AllowCodeGenerationFromStrings@Context@v8@@QEAAX_N@Z
  ?AllowVarArgs@?$StaticCallInterfaceDescriptor@VBigIntToI32PairDescriptor@internal@v8@@@internal@v8@@SA_NXZ
  ?AllowVarArgs@?$StaticCallInterfaceDescriptor@VBigIntToI64Descriptor@internal@v8@@@internal@v8@@SA_NXZ
  ?AllowVarArgs@?$StaticCallInterfaceDescriptor@VI32PairToBigIntDescriptor@internal@v8@@@internal@v8@@SA_NXZ
  ?AllowVarArgs@?$StaticCallInterfaceDescriptor@VI64ToBigIntDescriptor@internal@v8@@@internal@v8@@SA_NXZ
  ?AllowVarArgs@?$StaticCallInterfaceDescriptor@VInterpreterDispatchDescriptor@internal@v8@@@internal@v8@@SA_NXZ
  ?AllowVarArgs@?$StaticCallInterfaceDescriptor@VVoidDescriptor@internal@v8@@@internal@v8@@SA_NXZ
  ?AllowVarArgs@CallInterfaceDescriptor@internal@v8@@QEBA_NXZ
  ?AllowWasmCodeGenerationCallback@node@@YA_NV?$Local@VContext@v8@@@v8@@V?$Local@VString@v8@@@3@@Z
  ?AllowsLazyCompilation@DeclarationScope@internal@v8@@QEBA_NXZ
  ?AllowsLazyParsingWithoutUnresolvedVariables@Parser@internal@v8@@AEBA_NXZ
  ?AllowsLazyParsingWithoutUnresolvedVariables@Scope@internal@v8@@QEBA_NPEBV123@@Z
  ?Ambiguous@ReasonEnum@Paused@API@Debugger@protocol@v8_inspector@@3PEBDEB
  ?AmountOfPhysicalMemory@SysInfo@base@v8@@SA_JXZ
  ?AmountOfVirtualMemory@SysInfo@base@v8@@SA_JXZ
  ?Analyze@BytecodeAnalysis@compiler@internal@v8@@AEAAXXZ
  ?Analyze@DeclarationScope@internal@v8@@SA_NPEAVParseInfo@23@@Z
  ?AnalyzeLoopAssignmentForTesting@wasm@internal@v8@@YAPEAVBitVector@23@PEAVZone@23@IPEBE1@Z
  ?AnalyzePartially@DeclarationScope@internal@v8@@QEAAXPEAVParser@23@PEAVAstNodeFactory@23@_N@Z
  ?AnalyzePartially@Scope@internal@v8@@AEAAXPEAVDeclarationScope@23@PEAVAstNodeFactory@23@PEAV?$ThreadedListBase@VVariableProxy@internal@v8@@UEmptyBase@base@3@UUnresolvedNext@123@@base@3@_N@Z
  ?And@SharedTurboAssembler@internal@v8@@QEAAXVRegister@23@VImmediate@23@@Z
  ?AnnotateStrongRetainer@GlobalHandles@internal@v8@@SAXPEA_KPEBD@Z
  ?AnnotateStrongRetainer@api_internal@v8@@YAXPEA_KPEBD@Z
  ?Any@FieldType@internal@v8@@SA?AV?$Handle@VFieldType@internal@v8@@@23@PEAVIsolate@23@@Z
  ?Any@Type@compiler@internal@v8@@SA?AV1234@XZ
  ?ApiGetter@CodeFactory@internal@v8@@SA?AVCallable@23@PEAVIsolate@23@@Z
  ?Append@FreeList@internal@cppgc@@QEAAX$$QEAV123@@Z
  ?AppendAsTraceFormat@TracedValue@tracing@v8@@UEBAXPEAV?$basic_string@DU?$char_traits@D@std@@V?$allocator@D@2@@std@@@Z
  ?AppendBoolean@TracedValue@tracing@v8@@QEAAX_N@Z
  ?AppendDeoptimizeArguments@InstructionSelector@compiler@internal@v8@@AEAAXPEAV?$ZoneVector@VInstructionOperand@compiler@internal@v8@@@34@W4DeoptimizeReason@34@IAEBUFeedbackSource@234@VFrameState@234@@Z
  ?AppendDouble@TracedValue@tracing@v8@@QEAAXN@Z
  ?AppendInput@Node@compiler@internal@v8@@QEAAXPEAVZone@34@PEAV1234@@Z
  ?AppendInteger@TracedValue@tracing@v8@@QEAAXH@Z
  ?AppendNaryOperationSourceRange@Parser@internal@v8@@AEAAXPEAVNaryOperation@23@AEBUSourceRange@23@@Z
  ?AppendPhiInput@RawMachineAssembler@compiler@internal@v8@@QEAAXPEAVNode@234@0@Z
  ?AppendString@TracedValue@tracing@v8@@QEAAXAEBV?$basic_string@DU?$char_traits@D@std@@V?$allocator@D@2@@std@@@Z
  ?AppendString@TracedValue@tracing@v8@@QEAAXPEBD@Z
  ?AppendUse@Node@compiler@internal@v8@@AEAAXPEAUUse@1234@@Z
  ?Apply@BookmarkScope@Scanner@internal@v8@@QEAAXXZ
  ?ApplyBreakPoints@Debug@internal@v8@@AEAAXV?$Handle@VDebugInfo@internal@v8@@@23@@Z
  ?ApplyDebugBreak@BytecodeArrayIterator@interpreter@internal@v8@@QEAAXXZ
  ?ApplyForwarding@JumpThreading@compiler@internal@v8@@SAXPEAVZone@34@AEBV?$ZoneVector@VRpoNumber@compiler@internal@v8@@@34@PEAVInstructionSequence@234@@Z
  ?ApplyPersistentHandleVisitor@GlobalHandles@internal@v8@@AEAAXPEAVPersistentHandleVisitor@3@PEAVNode@123@@Z
  ?ApplySideEffectChecks@Debug@internal@v8@@QEAAXV?$Handle@VDebugInfo@internal@v8@@@23@@Z
  ?ApplyTransitionToDataProperty@LookupIterator@internal@v8@@QEAAXV?$Handle@VJSReceiver@internal@v8@@@23@@Z
  ?ArchiveDebug@Debug@internal@v8@@QEAAPEADPEAD@Z
  ?ArchiveSpacePerThread@Debug@internal@v8@@SAHXZ
  ?ArchiveSpacePerThread@Isolate@internal@v8@@SAHXZ
  ?ArchiveSpacePerThread@StackGuard@internal@v8@@SAHXZ
  ?ArchiveStackGuard@StackGuard@internal@v8@@QEAAPEADPEAD@Z
  ?ArchiveThread@Isolate@internal@v8@@QEAAPEADPEAD@Z
  ?AreAliases@RegisterConfiguration@internal@v8@@QEBA_NW4MachineRepresentation@23@H0H@Z
  ?AreContiguous@Register@interpreter@internal@v8@@SA_NV1234@0000@Z
  ?AreKeysEqual@StateValuesCache@compiler@internal@v8@@CA_NPEAX0@Z
  ?AreMovesRedundant@Instruction@compiler@internal@v8@@QEBA_NXZ
  ?AreSourcePositionsAvailable@FrameSummary@internal@v8@@QEBA_NXZ
  ?AreValueKeysEqual@StateValuesCache@compiler@internal@v8@@CA_NPEAUStateValuesKey@1234@0@Z
  ?AreWasmExceptionsEnabled@Isolate@internal@v8@@QEAA_NV?$Handle@VContext@internal@v8@@@23@@Z
  ?AreaSize@PagedSpace@internal@v8@@QEBAHXZ
  ?ArgumentCount@CFunction@v8@@QEBAIXZ
  ?ArgumentCount@CFunctionInfo@v8@@QEBAIXZ
  ?ArgumentInfo@CFunction@v8@@QEBAAEBVCTypeInfo@2@I@Z
  ?ArgumentInfo@CFunctionInfo@v8@@QEBAAEBVCTypeInfo@2@I@Z
  ?ArgumentStackSlotsForCFunctionCall@TurboAssembler@internal@v8@@QEAAHH@Z
  ?Arguments@AsmFunctionType@wasm@internal@v8@@QEBA?BV?$ZoneVector@PEAVAsmType@wasm@internal@v8@@@34@XZ
  ?ArgumentsElementsState@CommonOperatorBuilder@compiler@internal@v8@@QEAAPEBVOperator@234@W4CreateArgumentsType@34@@Z
  ?ArgumentsLength@SimplifiedOperatorBuilder@compiler@internal@v8@@QEAAPEBVOperator@234@XZ
  ?ArgumentsLengthState@CommonOperatorBuilder@compiler@internal@v8@@QEAAPEBVOperator@234@XZ
  ?Arguments_string@Factory@internal@v8@@QEAA?AV?$Handle@VString@internal@v8@@@23@XZ
  ?Arguments_string@LocalFactory@internal@v8@@QEAA?AV?$Handle@VString@internal@v8@@@23@XZ
  ?Array@Type@compiler@internal@v8@@SA?AV1234@XZ
  ?ArrayBuffer_string@Factory@internal@v8@@QEAA?AV?$Handle@VString@internal@v8@@@23@XZ
  ?ArrayBuffer_string@LocalFactory@internal@v8@@QEAA?AV?$Handle@VString@internal@v8@@@23@XZ
  ?ArrayConstructorStubConstant@JSGraph@compiler@internal@v8@@QEAAPEAVNode@234@XZ
  ?ArrayIterator_string@Factory@internal@v8@@QEAA?AV?$Handle@VString@internal@v8@@@23@XZ
  ?ArrayIterator_string@LocalFactory@internal@v8@@QEAA?AV?$Handle@VString@internal@v8@@@23@XZ
  ?ArrayLiteralFromListWithSpread@Parser@internal@v8@@AEAAPEAVArrayLiteral@23@AEBV?$ScopedList@PEAVExpression@internal@v8@@PEAX@23@@Z
  ?ArrayNoArgumentConstructor@CodeFactory@internal@v8@@SA?AVCallable@23@PEAVIsolate@23@W4ElementsKind@23@W4AllocationSiteOverrideMode@23@@Z
  ?ArrayOrOtherObject@Type@compiler@internal@v8@@SA?AV1234@XZ
  ?ArrayOrProxy@Type@compiler@internal@v8@@SA?AV1234@XZ
  ?ArraySingleArgumentConstructor@CodeFactory@internal@v8@@SA?AVCallable@23@PEAVIsolate@23@W4ElementsKind@23@W4AllocationSiteOverrideMode@23@@Z
  ?Array_string@Factory@internal@v8@@QEAA?AV?$Handle@VString@internal@v8@@@23@XZ
  ?Array_string@LocalFactory@internal@v8@@QEAA?AV?$Handle@VString@internal@v8@@@23@XZ
  ?AsAccessorInfo@ObjectRef@compiler@internal@v8@@QEBA?AVAccessorInfoRef@234@XZ
  ?AsAllocationSite@ObjectRef@compiler@internal@v8@@QEBA?AVAllocationSiteRef@234@XZ
  ?AsArray@Map@v8@@QEBA?AV?$Local@VArray@v8@@@2@XZ
  ?AsArray@Set@v8@@QEBA?AV?$Local@VArray@v8@@@2@XZ
  ?AsArrayBoilerplateDescription@ObjectRef@compiler@internal@v8@@QEBA?AVArrayBoilerplateDescriptionRef@234@XZ
  ?AsBase@CppHeap@internal@v8@@QEAAAEAVHeapBase@2cppgc@@XZ
  ?AsBase@CppHeap@internal@v8@@QEBAAEBVHeapBase@2cppgc@@XZ
  ?AsBase@Heap@internal@cppgc@@QEAAAEAVHeapBase@23@XZ
  ?AsBase@Heap@internal@cppgc@@QEBAAEBVHeapBase@23@XZ
  ?AsBigInt@ObjectRef@compiler@internal@v8@@QEBA?AVBigIntRef@234@XZ
  ?AsBitset@Type@compiler@internal@v8@@AEBA_KXZ
  ?AsBitsetForTesting@Type@compiler@internal@v8@@QEAA_KXZ
  ?AsBytecodeArray@ObjectRef@compiler@internal@v8@@QEBA?AVBytecodeArrayRef@234@XZ
  ?AsCallHandlerInfo@ObjectRef@compiler@internal@v8@@QEBA?AVCallHandlerInfoRef@234@XZ
  ?AsCallableType@AsmType@wasm@internal@v8@@QEAAPEAVAsmCallableType@234@XZ
  ?AsCell@ObjectRef@compiler@internal@v8@@QEBA?AVCellRef@234@XZ
  ?AsClassScope@Scope@internal@v8@@QEAAPEAVClassScope@23@XZ
  ?AsClassScope@Scope@internal@v8@@QEBAPEBVClassScope@23@XZ
  ?AsCode@ObjectRef@compiler@internal@v8@@QEBA?AVCodeRef@234@XZ
  ?AsCodeDataContainer@ObjectRef@compiler@internal@v8@@QEBA?AVCodeDataContainerRef@234@XZ
  ?AsContext@ObjectRef@compiler@internal@v8@@QEBA?AVContextRef@234@XZ
  ?AsDeclarationScope@Scope@internal@v8@@QEAAPEAVDeclarationScope@23@XZ
  ?AsDeclarationScope@Scope@internal@v8@@QEBAPEBVDeclarationScope@23@XZ
  ?AsDescriptorArray@ObjectRef@compiler@internal@v8@@QEBA?AVDescriptorArrayRef@234@XZ
  ?AsDouble@AsmJsScanner@internal@v8@@QEBANXZ
  ?AsElementsKind@Map@internal@v8@@SA?AV?$Handle@VMap@internal@v8@@@23@PEAVIsolate@23@V423@W4ElementsKind@23@@Z
  ?AsElementsKind@MapRef@compiler@internal@v8@@QEBA?AV?$Optional@VMapRef@compiler@internal@v8@@@base@4@W4ElementsKind@34@@Z
  ?AsFeedbackCell@ObjectRef@compiler@internal@v8@@QEBA?AVFeedbackCellRef@234@XZ
  ?AsFeedbackVector@ObjectRef@compiler@internal@v8@@QEBA?AVFeedbackVectorRef@234@XZ
  ?AsFixedArray@ObjectRef@compiler@internal@v8@@QEBA?AVFixedArrayRef@234@XZ
  ?AsFixedArrayBase@ObjectRef@compiler@internal@v8@@QEBA?AVFixedArrayBaseRef@234@XZ
  ?AsFixedDoubleArray@ObjectRef@compiler@internal@v8@@QEBA?AVFixedDoubleArrayRef@234@XZ
  ?AsFunctionTemplateInfo@ObjectRef@compiler@internal@v8@@QEBA?AVFunctionTemplateInfoRef@234@XZ
  ?AsFunctionType@AsmCallableType@wasm@internal@v8@@UEAAPEAVAsmFunctionType@234@XZ
  ?AsFunctionType@AsmFunctionType@wasm@internal@v8@@UEAAPEAV1234@XZ
  ?AsFunctionType@AsmType@wasm@internal@v8@@QEAAPEAVAsmFunctionType@234@XZ
  ?AsHeap@LocalHeap@internal@v8@@QEAAPEAVHeap@23@XZ
  ?AsHeapConstant@Type@compiler@internal@v8@@QEBAPEBVHeapConstantType@234@XZ
  ?AsHeapNumber@ObjectRef@compiler@internal@v8@@QEBA?AVHeapNumberRef@234@XZ
  ?AsHeapObject@ObjectRef@compiler@internal@v8@@QEBA?AVHeapObjectRef@234@XZ
  ?AsIdentifier@Parser@internal@v8@@CAPEBVAstRawString@23@PEAVExpression@23@@Z
  ?AsIdentifierExpression@Parser@internal@v8@@AEAAPEAVVariableProxy@23@PEAVExpression@23@@Z
  ?AsInt64@BigInt@internal@v8@@QEAA_JPEA_N@Z
  ?AsInternalizedString@ObjectRef@compiler@internal@v8@@QEBA?AVInternalizedStringRef@234@XZ
  ?AsIsolate@Isolate@internal@v8@@QEAAPEAV123@XZ
  ?AsIsolate@LocalIsolate@internal@v8@@QEAAPEAVIsolate@23@XZ
  ?AsIterationStatement@Parser@internal@v8@@AEAAPEAVIterationStatement@23@PEAVBreakableStatement@23@@Z
  ?AsJSArray@ObjectRef@compiler@internal@v8@@QEBA?AVJSArrayRef@234@XZ
  ?AsJSBoundFunction@ObjectRef@compiler@internal@v8@@QEBA?AVJSBoundFunctionRef@234@XZ
  ?AsJSDataView@ObjectRef@compiler@internal@v8@@QEBA?AVJSDataViewRef@234@XZ
  ?AsJSFunction@ObjectRef@compiler@internal@v8@@QEBA?AVJSFunctionRef@234@XZ
  ?AsJSGlobalObject@ObjectRef@compiler@internal@v8@@QEBA?AVJSGlobalObjectRef@234@XZ
  ?AsJSGlobalProxy@ObjectRef@compiler@internal@v8@@QEBA?AVJSGlobalProxyRef@234@XZ
  ?AsJSON@compiler@internal@v8@@YA?AUGraphAsJSON@123@AEBVGraph@123@PEAVSourcePositionTable@123@PEAVNodeOriginTable@123@@Z
  ?AsJSON@compiler@internal@v8@@YA?AUNodeOriginAsJSON@123@AEBVNodeOrigin@123@@Z
  ?AsJSON@compiler@internal@v8@@YA?AUSourcePositionAsJSON@123@AEBVSourcePosition@23@@Z
  ?AsJSObject@ObjectRef@compiler@internal@v8@@QEBA?AVJSObjectRef@234@XZ
  ?AsJSReceiver@ObjectRef@compiler@internal@v8@@QEBA?AVJSReceiverRef@234@XZ
  ?AsJSTypedArray@ObjectRef@compiler@internal@v8@@QEBA?AVJSTypedArrayRef@234@XZ
  ?AsJavaScript@FrameSummary@internal@v8@@QEBAAEBVJavaScriptFrameSummary@123@XZ
  ?AsLocalIsolate@Isolate@internal@v8@@QEAAPEAVLocalIsolate@23@XZ
  ?AsLocalIsolate@LocalIsolate@internal@v8@@QEAAPEAV123@XZ
  ?AsMap@ObjectRef@compiler@internal@v8@@QEBA?AVMapRef@234@XZ
  ?AsModuleScope@Scope@internal@v8@@QEAAPEAVModuleScope@23@XZ
  ?AsModuleScope@Scope@internal@v8@@QEBAPEBVModuleScope@23@XZ
  ?AsName@ObjectRef@compiler@internal@v8@@QEBA?AVNameRef@234@XZ
  ?AsNativeContext@ObjectRef@compiler@internal@v8@@QEBA?AVNativeContextRef@234@XZ
  ?AsObjectBoilerplateDescription@ObjectRef@compiler@internal@v8@@QEBA?AVObjectBoilerplateDescriptionRef@234@XZ
  ?AsOtherNumberConstant@Type@compiler@internal@v8@@QEBAPEBVOtherNumberConstantType@234@XZ
  ?AsOverloadedFunctionType@AsmCallableType@wasm@internal@v8@@UEAAPEAVAsmOverloadedFunctionType@234@XZ
  ?AsOverloadedFunctionType@AsmOverloadedFunctionType@wasm@internal@v8@@UEAAPEAV1234@XZ
  ?AsOverloadedFunctionType@AsmType@wasm@internal@v8@@QEAAPEAVAsmOverloadedFunctionType@234@XZ
  ?AsPropertyCell@ObjectRef@compiler@internal@v8@@QEBA?AVPropertyCellRef@234@XZ
  ?AsRange@Type@compiler@internal@v8@@QEBAPEBVRangeType@234@XZ
  ?AsRegExpBoilerplateDescription@ObjectRef@compiler@internal@v8@@QEBA?AVRegExpBoilerplateDescriptionRef@234@XZ
  ?AsScopeInfo@ObjectRef@compiler@internal@v8@@QEBA?AVScopeInfoRef@234@XZ
  ?AsScriptContextTable@ObjectRef@compiler@internal@v8@@QEBA?AVScriptContextTableRef@234@XZ
  ?AsSharedFunctionInfo@ObjectRef@compiler@internal@v8@@QEBA?AVSharedFunctionInfoRef@234@XZ
  ?AsSmi@ObjectRef@compiler@internal@v8@@QEBAHXZ
  ?AsSourceTextModule@ObjectRef@compiler@internal@v8@@QEBA?AVSourceTextModuleRef@234@XZ
  ?AsString@ObjectRef@compiler@internal@v8@@QEBA?AVStringRef@234@XZ
  ?AsSymbol@ObjectRef@compiler@internal@v8@@QEBA?AVSymbolRef@234@XZ
  ?AsTemplateObjectDescription@ObjectRef@compiler@internal@v8@@QEBA?AVTemplateObjectDescriptionRef@234@XZ
  ?AsTuple@Type@compiler@internal@v8@@QEBAPEBVTupleType@234@XZ
  ?AsUnion@Type@compiler@internal@v8@@AEBAPEBVUnionType@234@XZ
  ?AsUnionForTesting@Type@compiler@internal@v8@@QEAAPEBVUnionType@234@XZ
  ?AsUnsigned@AsmJsScanner@internal@v8@@QEBAIXZ
  ?AsValueType@AsmType@wasm@internal@v8@@QEAAPEAVAsmValueType@234@XZ
  ?AsWasm@FrameSummary@internal@v8@@QEBAAEBVWasmFrameSummary@123@XZ
  ?AsanNew@Zone@internal@v8@@AEAAPEAX_K@Z
  ?AsmjsSignature@WasmOpcodes@wasm@internal@v8@@SAPEBV?$Signature@VValueType@wasm@internal@v8@@@34@W4WasmOpcode@234@@Z
  ?AssembleArchBinarySearchSwitch@CodeGenerator@compiler@internal@v8@@AEAAXPEAVInstruction@234@@Z
  ?AssembleArchBinarySearchSwitchRange@CodeGenerator@compiler@internal@v8@@AEAAXVRegister@34@VRpoNumber@234@PEAU?$pair@HPEAVLabel@internal@v8@@@std@@2@Z
  ?AssembleArchBoolean@CodeGenerator@compiler@internal@v8@@AEAAXPEAVInstruction@234@W4FlagsCondition@234@@Z
  ?AssembleArchBranch@CodeGenerator@compiler@internal@v8@@AEAAXPEAVInstruction@234@PEAUBranchInfo@234@@Z
  ?AssembleArchDeoptBranch@CodeGenerator@compiler@internal@v8@@AEAAXPEAVInstruction@234@PEAUBranchInfo@234@@Z
  ?AssembleArchInstruction@CodeGenerator@compiler@internal@v8@@AEAA?AW4CodeGenResult@1234@PEAVInstruction@234@@Z
  ?AssembleArchJump@CodeGenerator@compiler@internal@v8@@AEAAXVRpoNumber@234@@Z
  ?AssembleArchJumpRegardlessOfAssemblyOrder@CodeGenerator@compiler@internal@v8@@AEAAXVRpoNumber@234@@Z
  ?AssembleArchSelect@CodeGenerator@compiler@internal@v8@@AEAAXPEAVInstruction@234@W4FlagsCondition@234@@Z
  ?AssembleArchTableSwitch@CodeGenerator@compiler@internal@v8@@AEAAXPEAVInstruction@234@@Z
  ?AssembleArchTrap@CodeGenerator@compiler@internal@v8@@AEAAXPEAVInstruction@234@W4FlagsCondition@234@@Z
  ?AssembleBlock@CodeGenerator@compiler@internal@v8@@AEAA?AW4CodeGenResult@1234@PEBVInstructionBlock@234@@Z
  ?AssembleCode@CodeGenerator@compiler@internal@v8@@QEAAXXZ
  ?AssembleCodeStartRegisterCheck@CodeGenerator@compiler@internal@v8@@AEAAXXZ
  ?AssembleConstructFrame@CodeGenerator@compiler@internal@v8@@AEAAXXZ
  ?AssembleDeconstructFrame@CodeGenerator@compiler@internal@v8@@AEAAXXZ
  ?AssembleDeoptimizerCall@CodeGenerator@compiler@internal@v8@@AEAA?AW4CodeGenResult@1234@PEAVDeoptimizationExit@234@@Z
  ?AssembleGaps@CodeGenerator@compiler@internal@v8@@AEAAXPEAVInstruction@234@@Z
  ?AssembleInstruction@CodeGenerator@compiler@internal@v8@@AEAA?AW4CodeGenResult@1234@HPEBVInstructionBlock@234@@Z
  ?AssembleJumpTable@CodeGenerator@compiler@internal@v8@@AEAAXPEAPEAVLabel@34@_K@Z
  ?AssembleMove@CodeGenerator@compiler@internal@v8@@EEAAXPEAVInstructionOperand@234@0@Z
  ?AssemblePrepareTailCall@CodeGenerator@compiler@internal@v8@@AEAAXXZ
  ?AssembleReturn@CodeGenerator@compiler@internal@v8@@AEAAXPEAVInstructionOperand@234@@Z
  ?AssembleSourcePosition@CodeGenerator@compiler@internal@v8@@QEAAXPEAVInstruction@234@@Z
  ?AssembleSourcePosition@CodeGenerator@compiler@internal@v8@@QEAAXVSourcePosition@34@@Z
  ?AssembleSwap@CodeGenerator@compiler@internal@v8@@EEAAXPEAVInstructionOperand@234@0@Z
  ?AssembleTailCallAfterGap@CodeGenerator@compiler@internal@v8@@AEAAXPEAVInstruction@234@H@Z
  ?AssembleTailCallBeforeGap@CodeGenerator@compiler@internal@v8@@AEAAXPEAVInstruction@234@H@Z
  ?Assert@ReasonEnum@Paused@API@Debugger@protocol@v8_inspector@@3PEBDEB
  ?Assert@TurboAssembler@internal@v8@@QEAAXW4Condition@23@W4AbortReason@23@@Z
  ?AssertBoundFunction@MacroAssembler@internal@v8@@QEAAXVRegister@23@@Z
  ?AssertCallableFunction@MacroAssembler@internal@v8@@QEAAXVRegister@23@@Z
  ?AssertCodeT@MacroAssembler@internal@v8@@QEAAXVRegister@23@@Z
  ?AssertConstructor@MacroAssembler@internal@v8@@QEAAXVRegister@23@@Z
  ?AssertDebugContext@Debug@internal@v8@@AEAAXXZ
  ?AssertFunction@MacroAssembler@internal@v8@@QEAAXVRegister@23@@Z
  ?AssertGeneratorObject@MacroAssembler@internal@v8@@QEAAXVRegister@23@@Z
  ?AssertHeld@Mutex@base@v8@@QEBAXXZ
  ?AssertHeld@RecursiveMutex@base@v8@@QEBAXXZ
  ?AssertHeldAndUnmark@Mutex@base@v8@@AEAAXXZ
  ?AssertLocked@PersistentRegionLock@internal@cppgc@@SAXXZ
  ?AssertMainThreadIsOnlyThread@IsolateSafepoint@internal@v8@@QEAAXXZ
  ?AssertNoInvalidSlots@TypedSlotSet@internal@v8@@QEAAXAEBV?$map@IIU?$less@I@std@@V?$allocator@U?$pair@$$CBII@std@@@2@@std@@@Z
  ?AssertNotSmi@TurboAssembler@internal@v8@@QEAAXVRegister@23@@Z
  ?AssertSmi@TurboAssembler@internal@v8@@QEAAXVOperand@23@@Z
  ?AssertSmi@TurboAssembler@internal@v8@@QEAAXVRegister@23@@Z
  ?AssertType@SimplifiedOperatorBuilder@compiler@internal@v8@@QEAAPEBVOperator@234@VType@234@@Z
  ?AssertUndefinedOrAllocationSite@MacroAssembler@internal@v8@@QEAAXVRegister@23@@Z
  ?AssertUnheld@Mutex@base@v8@@QEBAXXZ
  ?AssertUnheldAndMark@Mutex@base@v8@@AEAAXXZ
  ?AssertUnreachable@TurboAssembler@internal@v8@@QEAAXW4AbortReason@23@@Z
  ?AssertZeroExtended@TurboAssembler@internal@v8@@QEAAXVRegister@23@@Z
  ?AssignBignum@Bignum@base@v8@@QEAAXAEBV123@@Z
  ?AssignDecimalString@Bignum@base@v8@@QEAAXV?$Vector@$$CBD@23@@Z
  ?AssignHexString@Bignum@base@v8@@QEAAXV?$Vector@$$CBD@23@@Z
  ?AssignPowerUInt16@Bignum@base@v8@@QEAAXGH@Z
  ?AssignRange@WasmCodeManager@wasm@internal@v8@@AEAAXVAddressRegion@base@4@PEAVNativeModule@234@@Z
  ?AssignUInt16@Bignum@base@v8@@QEAAXG@Z
  ?AssignUInt64@Bignum@base@v8@@QEAAX_K@Z
  ?AsyncCompile@WasmEngine@wasm@internal@v8@@QEAAXPEAVIsolate@34@AEBVWasmFeatures@234@V?$shared_ptr@VCompilationResultResolver@wasm@internal@v8@@@std@@AEBUModuleWireBytes@234@_NPEBD@Z
  ?AsyncFunctionEnter@JSOperatorBuilder@compiler@internal@v8@@QEAAPEBVOperator@234@XZ
  ?AsyncFunctionReject@JSOperatorBuilder@compiler@internal@v8@@QEAAPEBVOperator@234@XZ
  ?AsyncFunctionResolve@JSOperatorBuilder@compiler@internal@v8@@QEAAPEBVOperator@234@XZ
  ?AsyncHooksGetExecutionAsyncId@node@@YANPEAVIsolate@v8@@@Z
  ?AsyncHooksGetTriggerAsyncId@node@@YANPEAVIsolate@v8@@@Z
  ?AsyncInstantiate@WasmEngine@wasm@internal@v8@@QEAAXPEAVIsolate@34@V?$unique_ptr@VInstantiationResultResolver@wasm@internal@v8@@U?$default_delete@VInstantiationResultResolver@wasm@internal@v8@@@std@@@std@@V?$Handle@VWasmModuleObject@internal@v8@@@34@V?$MaybeHandle@VJSReceiver@internal@v8@@@34@@Z
  ?AsyncIteratorSymbolConstantPoolEntry@BytecodeArrayBuilder@interpreter@internal@v8@@QEAA_KXZ
  ?AtExit@node@@YAXPEAVEnvironment@1@P6AXPEAX@Z1@Z
  ?AtLoopHeader@ResumeJumpTarget@compiler@internal@v8@@SA?AV1234@HAEBV1234@@Z
  ?AtPut@?$Dictionary@VGlobalDictionary@internal@v8@@VGlobalDictionaryShape@23@@internal@v8@@KA?AV?$Handle@VGlobalDictionary@internal@v8@@@23@PEAVIsolate@23@V423@V?$Handle@VName@internal@v8@@@23@V?$Handle@VObject@internal@v8@@@23@VPropertyDetails@23@@Z
  ?AtPut@?$Dictionary@VNameDictionary@internal@v8@@VNameDictionaryShape@23@@internal@v8@@KA?AV?$Handle@VNameDictionary@internal@v8@@@23@PEAVIsolate@23@V423@V?$Handle@VName@internal@v8@@@23@V?$Handle@VObject@internal@v8@@@23@VPropertyDetails@23@@Z
  ?AtPut@?$Dictionary@VNumberDictionary@internal@v8@@VNumberDictionaryShape@23@@internal@v8@@KA?AV?$Handle@VNumberDictionary@internal@v8@@@23@PEAVIsolate@23@V423@IV?$Handle@VObject@internal@v8@@@23@VPropertyDetails@23@@Z
  ?AtPut@?$Dictionary@VSimpleNumberDictionary@internal@v8@@VSimpleNumberDictionaryShape@23@@internal@v8@@KA?AV?$Handle@VSimpleNumberDictionary@internal@v8@@@23@PEAVIsolate@23@V423@IV?$Handle@VObject@internal@v8@@@23@VPropertyDetails@23@@Z
  ?AtomicAdd64@RawMachineAssembler@compiler@internal@v8@@QEAAPEAVNode@234@PEAV5234@000@Z
  ?AtomicAdd@CodeAssembler@compiler@internal@v8@@QEAA?AV?$TNode@UWord32T@internal@v8@@@34@VMachineType@34@V?$TNode@URawPtrT@internal@v8@@@34@V?$TNode@UUintPtrT@internal@v8@@@34@V534@@Z
  ?AtomicAdd@RawMachineAssembler@compiler@internal@v8@@QEAAPEAVNode@234@VMachineType@34@PEAV5234@11@Z
  ?AtomicAnd64@RawMachineAssembler@compiler@internal@v8@@QEAAPEAVNode@234@PEAV5234@000@Z
  ?AtomicAnd@CodeAssembler@compiler@internal@v8@@QEAA?AV?$TNode@UWord32T@internal@v8@@@34@VMachineType@34@V?$TNode@URawPtrT@internal@v8@@@34@V?$TNode@UUintPtrT@internal@v8@@@34@V534@@Z
  ?AtomicAnd@RawMachineAssembler@compiler@internal@v8@@QEAAPEAVNode@234@VMachineType@34@PEAV5234@11@Z
  ?AtomicCompareExchange64@RawMachineAssembler@compiler@internal@v8@@QEAAPEAVNode@234@PEAV5234@00000@Z
  ?AtomicCompareExchange@CodeAssembler@compiler@internal@v8@@QEAA?AV?$TNode@UWord32T@internal@v8@@@34@VMachineType@34@V?$TNode@URawPtrT@internal@v8@@@34@V?$TNode@UWordT@internal@v8@@@34@V534@3@Z
  ?AtomicCompareExchange@RawMachineAssembler@compiler@internal@v8@@QEAAPEAVNode@234@VMachineType@34@PEAV5234@111@Z
  ?AtomicExchange64@RawMachineAssembler@compiler@internal@v8@@QEAAPEAVNode@234@PEAV5234@000@Z
  ?AtomicExchange@CodeAssembler@compiler@internal@v8@@QEAA?AV?$TNode@UWord32T@internal@v8@@@34@VMachineType@34@V?$TNode@URawPtrT@internal@v8@@@34@V?$TNode@UUintPtrT@internal@v8@@@34@V534@@Z
  ?AtomicExchange@RawMachineAssembler@compiler@internal@v8@@QEAAPEAVNode@234@VMachineType@34@PEAV5234@11@Z
  ?AtomicLoad64@RawMachineAssembler@compiler@internal@v8@@QEAAPEAVNode@234@VAtomicLoadParameters@234@PEAV5234@1@Z
  ?AtomicLoad@CodeAssembler@compiler@internal@v8@@AEAAPEAVNode@234@VMachineType@34@W4AtomicMemoryOrder@34@V?$TNode@URawPtrT@internal@v8@@@34@V?$TNode@UWordT@internal@v8@@@34@@Z
  ?AtomicLoad@RawMachineAssembler@compiler@internal@v8@@QEAAPEAVNode@234@VAtomicLoadParameters@234@PEAV5234@1@Z
  ?AtomicLoadParametersOf@compiler@internal@v8@@YA?AVAtomicLoadParameters@123@PEBVOperator@123@@Z
  ?AtomicOr64@RawMachineAssembler@compiler@internal@v8@@QEAAPEAVNode@234@PEAV5234@000@Z
  ?AtomicOr@CodeAssembler@compiler@internal@v8@@QEAA?AV?$TNode@UWord32T@internal@v8@@@34@VMachineType@34@V?$TNode@URawPtrT@internal@v8@@@34@V?$TNode@UUintPtrT@internal@v8@@@34@V534@@Z
  ?AtomicOr@RawMachineAssembler@compiler@internal@v8@@QEAAPEAVNode@234@VMachineType@34@PEAV5234@11@Z
  ?AtomicStore64@CodeAssembler@compiler@internal@v8@@QEAAXW4AtomicMemoryOrder@34@V?$TNode@URawPtrT@internal@v8@@@34@V?$TNode@UWordT@internal@v8@@@34@V?$TNode@UUintPtrT@internal@v8@@@34@3@Z
  ?AtomicStore64@RawMachineAssembler@compiler@internal@v8@@QEAAPEAVNode@234@VAtomicStoreParameters@234@PEAV5234@111@Z
  ?AtomicStore@CodeAssembler@compiler@internal@v8@@QEAAXW4MachineRepresentation@34@W4AtomicMemoryOrder@34@V?$TNode@URawPtrT@internal@v8@@@34@V?$TNode@UWordT@internal@v8@@@34@V?$TNode@UWord32T@internal@v8@@@34@@Z
  ?AtomicStore@RawMachineAssembler@compiler@internal@v8@@QEAAPEAVNode@234@VAtomicStoreParameters@234@PEAV5234@11@Z
  ?AtomicStoreParametersOf@compiler@internal@v8@@YAAEBVAtomicStoreParameters@123@PEBVOperator@123@@Z
  ?AtomicStoreTaggedField@TurboAssembler@internal@v8@@QEAAXVOperand@23@VRegister@23@@Z
  ?AtomicSub64@RawMachineAssembler@compiler@internal@v8@@QEAAPEAVNode@234@PEAV5234@000@Z
  ?AtomicSub@CodeAssembler@compiler@internal@v8@@QEAA?AV?$TNode@UWord32T@internal@v8@@@34@VMachineType@34@V?$TNode@URawPtrT@internal@v8@@@34@V?$TNode@UUintPtrT@internal@v8@@@34@V534@@Z
  ?AtomicSub@RawMachineAssembler@compiler@internal@v8@@QEAAPEAVNode@234@VMachineType@34@PEAV5234@11@Z
  ?AtomicXor64@RawMachineAssembler@compiler@internal@v8@@QEAAPEAVNode@234@PEAV5234@000@Z
  ?AtomicXor@CodeAssembler@compiler@internal@v8@@QEAA?AV?$TNode@UWord32T@internal@v8@@@34@VMachineType@34@V?$TNode@URawPtrT@internal@v8@@@34@V?$TNode@UUintPtrT@internal@v8@@@34@V534@@Z
  ?AtomicXor@RawMachineAssembler@compiler@internal@v8@@QEAAPEAVNode@234@VMachineType@34@PEAV5234@11@Z
  ?Attach@JSArrayBuffer@internal@v8@@QEAAXV?$shared_ptr@VBackingStore@internal@v8@@@std@@@Z
  ?AttachCppHeap@Heap@internal@v8@@QEAAXPEAVCppHeap@3@@Z
  ?AttachCppHeap@Isolate@v8@@QEAAXPEAVCppHeap@2@@Z
  ?AttachDeoptInlinedFrames@ProfilerListener@internal@v8@@AEAAXV?$Handle@VCode@internal@v8@@@23@PEAVCodeDeoptEventRecord@23@@Z
  ?AttachIsolate@CppHeap@internal@v8@@QEAAXPEAVIsolate@23@@Z
  ?AttachLocalIsolate@JSHeapBroker@compiler@internal@v8@@QEAAXPEAVOptimizedCompilationInfo@34@PEAVLocalIsolate@34@@Z
  ?AttachOrEmitDeferredSourceInfo@BytecodeArrayBuilder@interpreter@internal@v8@@AEAAXPEAVBytecodeNode@234@@Z
  ?AttachPersistentHandles@LocalHeap@internal@v8@@QEAAXV?$unique_ptr@VPersistentHandles@internal@v8@@U?$default_delete@VPersistentHandles@internal@v8@@@std@@@std@@@Z
  ?AttachSharedWasmMemoryObject@BackingStore@internal@v8@@QEAAXPEAVIsolate@23@V?$Handle@VWasmMemoryObject@internal@v8@@@23@@Z
  ?AttachToNext@LiveRange@compiler@internal@v8@@QEAAXXZ
  ?AttachToSharedIsolate@Isolate@internal@v8@@AEAAXXZ
  ?AutomaticallyRestoreInitialHeapLimit@Heap@internal@v8@@QEAAXN@Z
  ?AutomaticallyRestoreInitialHeapLimit@Isolate@v8@@QEAAXN@Z
  ?Available@LargeObjectSpace@internal@v8@@UEBA_KXZ
  ?Available@NewSpace@internal@v8@@UEBA_KXZ
  ?Available@PagedSpace@internal@v8@@UEBA_KXZ
  ?AverageMarkCompactMutatorUtilization@GCTracer@internal@v8@@QEBANXZ
  ?AverageSpeed@GCTracer@internal@v8@@CANAEBV?$RingBuffer@U?$pair@_KN@std@@@base@3@@Z
  ?AverageSpeed@GCTracer@internal@v8@@CANAEBV?$RingBuffer@U?$pair@_KN@std@@@base@3@AEBU?$pair@_KN@std@@N@Z
  ?AverageSurvivalRatio@GCTracer@internal@v8@@QEBANXZ
  ?AverageTimeToIncrementalMarkingTask@GCTracer@internal@v8@@QEBANXZ
  ?AwaitCompileTasks@OptimizingCompileDispatcher@internal@v8@@QEAAXXZ
  ?Backtrack@RegExpBytecodeGenerator@internal@v8@@UEAAXXZ
  ?Backtrack@RegExpMacroAssemblerX64@internal@v8@@UEAAXXZ
  ?Bailout@PreparseDataBuilder@internal@v8@@QEAAXXZ
  ?BailoutIfDeoptimized@CodeGenerator@compiler@internal@v8@@AEAAXXZ
  ?BailoutIfDeoptimized@TurboAssembler@internal@v8@@QEAAXVRegister@23@@Z
  ?BasicBlockCount@Schedule@compiler@internal@v8@@QEBA_KXZ
  ?BeginArray@TracedValue@tracing@v8@@QEAAXPEBD@Z
  ?BeginArray@TracedValue@tracing@v8@@QEAAXXZ
  ?BeginDictionary@TracedValue@tracing@v8@@QEAAXPEBD@Z
  ?BeginDictionary@TracedValue@tracing@v8@@QEAAXXZ
  ?BeginFinally@TryFinallyBuilder@interpreter@internal@v8@@QEAAXXZ
  ?BeginHandler@TryFinallyBuilder@interpreter@internal@v8@@QEAAXXZ
  ?BeginRegion@CommonOperatorBuilder@compiler@internal@v8@@QEAAPEBVOperator@234@W4RegionObservability@234@@Z
  ?BeginTry@TryCatchBuilder@interpreter@internal@v8@@QEAAXVRegister@234@@Z
  ?BeginTry@TryFinallyBuilder@interpreter@internal@v8@@QEAAXVRegister@234@@Z
  ?BigInt64Array_string@Factory@internal@v8@@QEAA?AV?$Handle@VString@internal@v8@@@23@XZ
  ?BigInt64Array_string@LocalFactory@internal@v8@@QEAA?AV?$Handle@VString@internal@v8@@@23@XZ
  ?BigInt@Type@compiler@internal@v8@@SA?AV1234@XZ
  ?BigIntAdd@OperationTyper@compiler@internal@v8@@QEAA?AVType@234@V5234@0@Z
  ?BigIntAdd@SimplifiedOperatorBuilder@compiler@internal@v8@@QEAAPEBVOperator@234@XZ
  ?BigIntLiteral@Scanner@internal@v8@@QEBA?AV?$Vector@$$CBE@base@3@XZ
  ?BigIntLiteralToDecimal@internal@v8@@YA?AV?$unique_ptr@$$BY0A@DU?$default_delete@$$BY0A@D@std@@@std@@PEAVLocalIsolate@12@V?$Vector@$$CBE@base@2@@Z
  ?BigIntMapConstant@JSGraph@compiler@internal@v8@@QEAAPEAVNode@234@XZ
  ?BigIntMapConstant@JSGraphAssembler@compiler@internal@v8@@QEAA?AV?$TNode@VMap@internal@v8@@@34@XZ
  ?BigIntNegate@OperationTyper@compiler@internal@v8@@QEAA?AVType@234@V5234@@Z
  ?BigIntNegate@SimplifiedOperatorBuilder@compiler@internal@v8@@QEAAPEBVOperator@234@XZ
  ?BigIntSubtract@OperationTyper@compiler@internal@v8@@QEAA?AVType@234@V5234@0@Z
  ?BigIntSubtract@SimplifiedOperatorBuilder@compiler@internal@v8@@QEAAPEBVOperator@234@XZ
  ?BigInt_string@Factory@internal@v8@@QEAA?AV?$Handle@VString@internal@v8@@@23@XZ
  ?BigInt_string@LocalFactory@internal@v8@@QEAA?AV?$Handle@VString@internal@v8@@@23@XZ
  ?BigUint64Array_string@Factory@internal@v8@@QEAA?AV?$Handle@VString@internal@v8@@@23@XZ
  ?BigUint64Array_string@LocalFactory@internal@v8@@QEAA?AV?$Handle@VString@internal@v8@@@23@XZ
  ?BigitAt@Bignum@base@v8@@AEBAIH@Z
  ?BigitLength@Bignum@base@v8@@AEBAHXZ
  ?BigitsShiftLeft@Bignum@base@v8@@AEAAXH@Z
  ?BignumDtoa@base@v8@@YAXNW4BignumDtoaMode@12@HV?$Vector@D@12@PEAH2@Z
  ?BinaryOpForAssignment@Token@internal@v8@@SA?AW4Value@123@W44123@@Z
  ?BinaryOperation@BytecodeArrayBuilder@interpreter@internal@v8@@QEAAAEAV1234@W4Value@Token@34@VRegister@234@H@Z
  ?BinaryOperationSmiLiteral@BytecodeArrayBuilder@interpreter@internal@v8@@QEAAAEAV1234@W4Value@Token@34@VSmi@34@H@Z
  ?Bind@BytecodeArrayBuilder@interpreter@internal@v8@@QEAAAEAV1234@PEAVBytecodeJumpTable@234@H@Z
  ?Bind@BytecodeArrayBuilder@interpreter@internal@v8@@QEAAAEAV1234@PEAVBytecodeLabel@234@@Z
  ?Bind@BytecodeArrayBuilder@interpreter@internal@v8@@QEAAAEAV1234@PEAVBytecodeLoopHeader@234@@Z
  ?Bind@BytecodeLabels@interpreter@internal@v8@@QEAAXPEAVBytecodeArrayBuilder@234@@Z
  ?Bind@CodeAssembler@compiler@internal@v8@@QEAAXPEAVCodeAssemblerLabel@234@@Z
  ?Bind@CodeAssemblerLabel@compiler@internal@v8@@AEAAXXZ
  ?Bind@CodeAssemblerVariable@compiler@internal@v8@@IEAAXPEAVNode@234@@Z
  ?Bind@RawMachineAssembler@compiler@internal@v8@@QEAAXPEAVRawMachineLabel@234@@Z
  ?Bind@RegExpBytecodeGenerator@internal@v8@@UEAAXPEAVLabel@23@@Z
  ?Bind@RegExpMacroAssemblerX64@internal@v8@@UEAAXPEAVLabel@23@@Z
  ?BindBreakTarget@BreakableControlFlowBuilder@interpreter@internal@v8@@IEAAXXZ
  ?BindCaseTargetForCompareJump@SwitchBuilder@interpreter@internal@v8@@QEAAXHPEAVCaseClause@34@@Z
  ?BindCaseTargetForJumpTable@SwitchBuilder@interpreter@internal@v8@@QEAAXHPEAVCaseClause@34@@Z
  ?BindContinueTarget@LoopBuilder@interpreter@internal@v8@@QEAAXXZ
  ?BindDefault@SwitchBuilder@interpreter@internal@v8@@QEAAXPEAVCaseClause@34@@Z
  ?BindExceptionHandler@TurboAssembler@internal@v8@@QEAAXPEAVLabel@23@@Z
  ?BindHandlerTarget@BytecodeArrayWriter@interpreter@internal@v8@@QEAAXPEAVHandlerTableBuilder@234@H@Z
  ?BindJumpTableEntry@BytecodeArrayWriter@interpreter@internal@v8@@QEAAXPEAVBytecodeJumpTable@234@H@Z
  ?BindLabel@BytecodeArrayWriter@interpreter@internal@v8@@QEAAXPEAVBytecodeLabel@234@@Z
  ?BindLoopEnd@LoopBuilder@interpreter@internal@v8@@AEAAXXZ
  ?BindLoopHeader@BytecodeArrayWriter@interpreter@internal@v8@@QEAAXPEAVBytecodeLoopHeader@234@@Z
  ?BindToCurrentContext@UnboundScript@v8@@QEAA?AV?$Local@VScript@v8@@@2@XZ
  ?BindTryRegionEnd@BytecodeArrayWriter@interpreter@internal@v8@@QEAAXPEAVHandlerTableBuilder@234@H@Z
  ?BindTryRegionStart@BytecodeArrayWriter@interpreter@internal@v8@@QEAAXPEAVHandlerTableBuilder@234@H@Z
  ?BitcastFloat32ToInt32@CodeAssembler@compiler@internal@v8@@QEAA?AV?$TNode@UUint32T@internal@v8@@@34@V?$TNode@UFloat32T@internal@v8@@@34@@Z
  ?BitcastFloat32ToInt32@GraphAssembler@compiler@internal@v8@@QEAAPEAVNode@234@PEAV5234@@Z
  ?BitcastFloat32ToInt32@MachineOperatorBuilder@compiler@internal@v8@@QEAAPEBVOperator@234@XZ
  ?BitcastFloat32ToInt32@RawMachineAssembler@compiler@internal@v8@@QEAAPEAVNode@234@PEAV5234@@Z
  ?BitcastFloat64ToInt64@GraphAssembler@compiler@internal@v8@@QEAAPEAVNode@234@PEAV5234@@Z
  ?BitcastFloat64ToInt64@MachineOperatorBuilder@compiler@internal@v8@@QEAAPEBVOperator@234@XZ
  ?BitcastFloat64ToInt64@RawMachineAssembler@compiler@internal@v8@@QEAAPEAVNode@234@PEAV5234@@Z
  ?BitcastInt32ToFloat32@CodeAssembler@compiler@internal@v8@@QEAA?AV?$TNode@UFloat32T@internal@v8@@@34@V?$TNode@UWord32T@internal@v8@@@34@@Z
  ?BitcastInt32ToFloat32@GraphAssembler@compiler@internal@v8@@QEAAPEAVNode@234@PEAV5234@@Z
  ?BitcastInt32ToFloat32@MachineOperatorBuilder@compiler@internal@v8@@QEAAPEBVOperator@234@XZ
  ?BitcastInt32ToFloat32@RawMachineAssembler@compiler@internal@v8@@QEAAPEAVNode@234@PEAV5234@@Z
  ?BitcastInt64ToFloat64@GraphAssembler@compiler@internal@v8@@QEAAPEAVNode@234@PEAV5234@@Z
  ?BitcastInt64ToFloat64@MachineOperatorBuilder@compiler@internal@v8@@QEAAPEBVOperator@234@XZ
  ?BitcastInt64ToFloat64@RawMachineAssembler@compiler@internal@v8@@QEAAPEAVNode@234@PEAV5234@@Z
  ?BitcastMaybeObjectToWord@CodeAssembler@compiler@internal@v8@@QEAA?AV?$TNode@UIntPtrT@internal@v8@@@34@V?$TNode@VMaybeObject@internal@v8@@@34@@Z
  ?BitcastMaybeObjectToWord@GraphAssembler@compiler@internal@v8@@QEAAPEAVNode@234@PEAV5234@@Z
  ?BitcastMaybeObjectToWord@MachineOperatorBuilder@compiler@internal@v8@@QEAAPEBVOperator@234@XZ
  ?BitcastMaybeObjectToWord@RawMachineAssembler@compiler@internal@v8@@QEAAPEAVNode@234@PEAV5234@@Z
  ?BitcastTaggedToWord@CodeAssembler@compiler@internal@v8@@QEAA?AV?$TNode@UIntPtrT@internal@v8@@@34@V?$TNode@VObject@internal@v8@@@34@@Z
  ?BitcastTaggedToWord@GraphAssembler@compiler@internal@v8@@QEAAPEAVNode@234@PEAV5234@@Z
  ?BitcastTaggedToWord@MachineOperatorBuilder@compiler@internal@v8@@QEAAPEBVOperator@234@XZ
  ?BitcastTaggedToWord@RawMachineAssembler@compiler@internal@v8@@QEAAPEAVNode@234@PEAV5234@@Z
  ?BitcastTaggedToWordForTagAndSmiBits@CodeAssembler@compiler@internal@v8@@QEAA?AV?$TNode@UIntPtrT@internal@v8@@@34@V?$TNode@U?$UnionT@VObject@internal@v8@@VMaybeObject@23@@internal@v8@@@34@@Z
  ?BitcastTaggedToWordForTagAndSmiBits@GraphAssembler@compiler@internal@v8@@QEAAPEAVNode@234@PEAV5234@@Z
  ?BitcastTaggedToWordForTagAndSmiBits@MachineOperatorBuilder@compiler@internal@v8@@QEAAPEBVOperator@234@XZ
  ?BitcastTaggedToWordForTagAndSmiBits@RawMachineAssembler@compiler@internal@v8@@QEAAPEAVNode@234@PEAV5234@@Z
  ?BitcastWord32ToWord64@GraphAssembler@compiler@internal@v8@@QEAAPEAVNode@234@PEAV5234@@Z
  ?BitcastWord32ToWord64@MachineOperatorBuilder@compiler@internal@v8@@QEAAPEBVOperator@234@XZ
  ?BitcastWordToTagged@CodeAssembler@compiler@internal@v8@@QEAA?AV?$TNode@VObject@internal@v8@@@34@V?$TNode@UWordT@internal@v8@@@34@@Z
  ?BitcastWordToTagged@GraphAssembler@compiler@internal@v8@@QEAAPEAVNode@234@PEAV5234@@Z
  ?BitcastWordToTagged@MachineOperatorBuilder@compiler@internal@v8@@QEAAPEBVOperator@234@XZ
  ?BitcastWordToTagged@RawMachineAssembler@compiler@internal@v8@@QEAAPEAVNode@234@PEAV5234@@Z
  ?BitcastWordToTaggedSigned@CodeAssembler@compiler@internal@v8@@QEAA?AV?$TNode@VSmi@internal@v8@@@34@V?$TNode@UWordT@internal@v8@@@34@@Z
  ?BitcastWordToTaggedSigned@GraphAssembler@compiler@internal@v8@@QEAAPEAVNode@234@PEAV5234@@Z
  ?BitcastWordToTaggedSigned@MachineOperatorBuilder@compiler@internal@v8@@QEAAPEBVOperator@234@XZ
  ?BitcastWordToTaggedSigned@RawMachineAssembler@compiler@internal@v8@@QEAAPEAVNode@234@PEAV5234@@Z
  ?BitsetGlb@Type@compiler@internal@v8@@AEBA_KXZ
  ?BitsetGlbForTesting@Type@compiler@internal@v8@@QEAA?AV1234@XZ
  ?BitsetLub@Type@compiler@internal@v8@@AEBA_KXZ
  ?BitsetLubForTesting@Type@compiler@internal@v8@@QEAA?AV1234@XZ
  ?BitwiseAnd@JSOperatorBuilder@compiler@internal@v8@@QEAAPEBVOperator@234@AEBUFeedbackSource@234@@Z
  ?BitwiseNot@JSOperatorBuilder@compiler@internal@v8@@QEAAPEBVOperator@234@AEBUFeedbackSource@234@@Z
  ?BitwiseOr@JSOperatorBuilder@compiler@internal@v8@@QEAAPEBVOperator@234@AEBUFeedbackSource@234@@Z
  ?BitwiseXor@JSOperatorBuilder@compiler@internal@v8@@QEAAPEBVOperator@234@AEBUFeedbackSource@234@@Z
  ?BlockCount@FunctionData@Coverage@debug@v8@@QEBA_KXZ
  ?BoolConstant@CodeAssembler@compiler@internal@v8@@QEAA?AV?$TNode@UBoolT@internal@v8@@@34@_N@Z
  ?Boolean@Type@compiler@internal@v8@@SA?AV1234@XZ
  ?BooleanConstant@CodeAssembler@compiler@internal@v8@@QEAA?AV?$TNode@VOddball@internal@v8@@@34@_N@Z
  ?BooleanConstant@JSGraph@compiler@internal@v8@@QEAAPEAVNode@234@_N@Z
  ?BooleanMapConstant@JSGraph@compiler@internal@v8@@QEAAPEAVNode@234@XZ
  ?BooleanMapConstant@JSGraphAssembler@compiler@internal@v8@@QEAA?AV?$TNode@VMap@internal@v8@@@34@XZ
  ?BooleanNot@SimplifiedOperatorBuilder@compiler@internal@v8@@QEAAPEBVOperator@234@XZ
  ?BooleanOrNullOrNumber@Type@compiler@internal@v8@@SA?AV1234@XZ
  ?BooleanOrNullOrUndefined@Type@compiler@internal@v8@@SA?AV1234@XZ
  ?BooleanOrNumber@Type@compiler@internal@v8@@SA?AV1234@XZ
  ?BooleanValue@Object@internal@v8@@QEAA_NPEAVIsolate@23@@Z
  ?BooleanValue@Value@v8@@QEBA_NPEAVIsolate@2@@Z
  ?Boolean_string@Factory@internal@v8@@QEAA?AV?$Handle@VString@internal@v8@@@23@XZ
  ?Boolean_string@LocalFactory@internal@v8@@QEAA?AV?$Handle@VString@internal@v8@@@23@XZ
  ?BoundFunction@Type@compiler@internal@v8@@SA?AV1234@XZ
  ?Boundaries@BitsetType@compiler@internal@v8@@CAPEBUBoundary@1234@XZ
  ?BoundariesArray@BitsetType@compiler@internal@v8@@0QBUBoundary@1234@B
  ?BoundariesSize@BitsetType@compiler@internal@v8@@CA_KXZ
  ?BoundsCheck@ModuleWireBytes@wasm@internal@v8@@QEBA_NVWireBytesRef@234@@Z
  ?BracketListDelete@ControlEquivalence@compiler@internal@v8@@AEAAXAEAV?$ZoneLinkedList@UBracket@ControlEquivalence@compiler@internal@v8@@@34@PEAVNode@234@W4DFSDirection@1234@@Z
  ?BracketListTRACE@ControlEquivalence@compiler@internal@v8@@AEAAXAEAV?$ZoneLinkedList@UBracket@ControlEquivalence@compiler@internal@v8@@@34@@Z
  ?Branch@BranchMatcher@compiler@internal@v8@@QEBAPEAVNode@234@XZ
  ?Branch@CodeAssembler@compiler@internal@v8@@QEAAXV?$TNode@UBoolT@internal@v8@@@34@AEBV?$function@$$A6AXXZ@std@@1@Z
  ?Branch@CodeAssembler@compiler@internal@v8@@QEAAXV?$TNode@UBoolT@internal@v8@@@34@AEBV?$function@$$A6AXXZ@std@@PEAVCodeAssemblerLabel@234@@Z
  ?Branch@CodeAssembler@compiler@internal@v8@@QEAAXV?$TNode@UBoolT@internal@v8@@@34@PEAVCodeAssemblerLabel@234@AEBV?$function@$$A6AXXZ@std@@@Z
  ?Branch@CodeAssembler@compiler@internal@v8@@QEAAXV?$TNode@UIntegralT@internal@v8@@@34@PEAVCodeAssemblerLabel@234@1@Z
  ?Branch@CommonOperatorBuilder@compiler@internal@v8@@QEAAPEBVOperator@234@W4BranchHint@234@@Z
  ?Branch@DiamondMatcher@compiler@internal@v8@@QEBAPEAVNode@234@XZ
  ?Branch@RawMachineAssembler@compiler@internal@v8@@QEAAXPEAVNode@234@PEAVRawMachineLabel@234@1@Z
  ?BranchHintOf@compiler@internal@v8@@YA?AW4BranchHint@123@QEBVOperator@123@@Z
  ?BranchOrBacktrack@RegExpMacroAssemblerX64@internal@v8@@AEAAXW4Condition@23@PEAVLabel@23@@Z
  ?BranchWithCriticalSafetyCheck@GraphAssembler@compiler@internal@v8@@QEAAXPEAVNode@234@PEAV?$GraphAssemblerLabel@$0A@@234@1@Z
  ?Break@BreakableControlFlowBuilder@interpreter@internal@v8@@QEAAXXZ
  ?Break@Debug@internal@v8@@QEAAXPEAVJavaScriptFrame@23@V?$Handle@VJSFunction@internal@v8@@@23@@Z
  ?BreakDownTime@DateCache@internal@v8@@QEAAX_JPEAH1111111@Z
  ?BreakIfFalse@BreakableControlFlowBuilder@interpreter@internal@v8@@QEAAXW4ToBooleanMode@BytecodeArrayBuilder@234@@Z
  ?BreakIfNull@BreakableControlFlowBuilder@interpreter@internal@v8@@QEAAXXZ
  ?BreakIfTrue@BreakableControlFlowBuilder@interpreter@internal@v8@@QEAAXW4ToBooleanMode@BytecodeArrayBuilder@234@@Z
  ?BreakIfUndefined@BreakableControlFlowBuilder@interpreter@internal@v8@@QEAAXXZ
  ?BreakIndexFromPosition@BreakIterator@internal@v8@@AEAAHH@Z
  ?BreakOnNode@CodeAssembler@compiler@internal@v8@@QEAAXH@Z
  ?BreakRightNow@debug@v8@@YAXPEAVIsolate@2@V?$EnumSet@W4BreakReason@debug@v8@@H@base@2@@Z
  ?BroadcastSharedWasmMemoryGrow@BackingStore@internal@v8@@SAXPEAVIsolate@23@V?$shared_ptr@VBackingStore@internal@v8@@@std@@@Z
  ?Buffer@ArrayBufferView@v8@@QEAA?AV?$Local@VArrayBuffer@v8@@@2@XZ
  ?Buffer@WasmMemoryObject@v8@@QEAA?AV?$Local@VArrayBuffer@v8@@@2@XZ
  ?Build@?$CTypeInfoBuilder@H$S@v8@@SA?AVCTypeInfo@2@XZ
  ?Build@?$CTypeInfoBuilder@I$S@v8@@SA?AVCTypeInfo@2@XZ
  ?Build@?$CTypeInfoBuilder@M$S@v8@@SA?AVCTypeInfo@2@XZ
  ?Build@?$CTypeInfoBuilder@N$S@v8@@SA?AVCTypeInfo@2@XZ
  ?Build@?$CTypeInfoBuilder@V?$Local@VValue@v8@@@v8@@$S@v8@@SA?AVCTypeInfo@2@XZ
  ?Build@?$CTypeInfoBuilder@X$S@v8@@SA?AVCTypeInfo@2@XZ
  ?Build@CodeBuilder@Factory@internal@v8@@QEAA?AV?$Handle@VCode@internal@v8@@@34@XZ
  ?Build@JSFunctionBuilder@Factory@internal@v8@@QEAA?AV?$Handle@VJSFunction@internal@v8@@@34@XZ
  ?BuildBlockCoverage@SwitchBuilder@interpreter@internal@v8@@AEAAXPEAVCaseClause@34@@Z
  ?BuildCFG@Scheduler@compiler@internal@v8@@AEAAXXZ
  ?BuildCheckEqualsName@JSNativeContextSpecialization@compiler@internal@v8@@AEAAPEAVNode@234@AEBVNameRef@234@PEAV5234@11@Z
  ?BuildDescriptorArray@MapUpdater@internal@v8@@AEAA?AV?$Handle@VDescriptorArray@internal@v8@@@23@XZ
  ?BuildElementAccess@JSNativeContextSpecialization@compiler@internal@v8@@AEAA?AVValueEffectControl@1234@PEAVNode@234@0000AEBVElementAccessInfo@234@AEBVKeyedAccessMode@234@@Z
  ?BuildExtendPropertiesBackingStore@JSNativeContextSpecialization@compiler@internal@v8@@AEAAPEAVNode@234@AEBVMapRef@234@PEAV5234@11@Z
  ?BuildGetModuleCell@JSTypedLowering@compiler@internal@v8@@AEAAPEAVNode@234@PEAV5234@@Z
  ?BuildIndexedStringLoad@JSNativeContextSpecialization@compiler@internal@v8@@AEAAPEAVNode@234@PEAV5234@00PEAPEAV5234@1W4KeyedAccessLoadMode@34@@Z
  ?BuildInitialYield@Parser@internal@v8@@AEAAPEAVExpression@23@HW4FunctionKind@23@@Z
  ?BuildInitializationBlock@Parser@internal@v8@@AEAAPEAVStatement@23@PEAUDeclarationParsingResult@?$ParserBase@VParser@internal@v8@@@23@@Z
  ?BuildInlinedJSToWasmWrapper@compiler@internal@v8@@YAXPEAVZone@23@PEAVMachineGraph@123@PEBV?$Signature@VValueType@wasm@internal@v8@@@23@PEBUWasmModule@wasm@23@PEAVIsolate@23@PEAVSourcePositionTable@123@W4StubCallMode@23@VWasmFeatures@823@PEBVJSWasmCallData@123@PEAVNode@123@@Z
  ?BuildInternal@CodeBuilder@Factory@internal@v8@@AEAA?AV?$MaybeHandle@VCode@internal@v8@@@34@_N@Z
  ?BuildLoadPrototypeFromObject@JSNativeContextSpecialization@compiler@internal@v8@@AEAAPEAVNode@234@PEAV5234@00@Z
  ?BuildLoopTree@LoopFinder@compiler@internal@v8@@SAPEAVLoopTree@234@PEAVGraph@234@PEAVTickCounter@34@PEAVZone@34@@Z
  ?BuildParameterInitializationBlock@Parser@internal@v8@@AEAAPEAVBlock@23@AEBUParserFormalParameters@23@@Z
  ?BuildPropertyAccess@JSNativeContextSpecialization@compiler@internal@v8@@AEAA?AV?$Optional@VValueEffectControl@JSNativeContextSpecialization@compiler@internal@v8@@@base@4@PEAVNode@234@000000AEBVNameRef@234@PEAV?$ZoneVector@PEAVNode@compiler@internal@v8@@@34@AEBVPropertyAccessInfo@234@W4AccessMode@234@@Z
  ?BuildPropertyLoad@JSNativeContextSpecialization@compiler@internal@v8@@AEAA?AV?$Optional@VValueEffectControl@JSNativeContextSpecialization@compiler@internal@v8@@@base@4@PEAVNode@234@00000AEBVNameRef@234@PEAV?$ZoneVector@PEAVNode@compiler@internal@v8@@@34@AEBVPropertyAccessInfo@234@@Z
  ?BuildPropertyStore@JSNativeContextSpecialization@compiler@internal@v8@@AEAA?AVValueEffectControl@1234@PEAVNode@234@00000AEBVNameRef@234@PEAV?$ZoneVector@PEAVNode@compiler@internal@v8@@@34@AEBVPropertyAccessInfo@234@W4AccessMode@234@@Z
  ?BuildPropertyTest@JSNativeContextSpecialization@compiler@internal@v8@@AEAA?AVValueEffectControl@1234@PEAVNode@234@0AEBVPropertyAccessInfo@234@@Z
  ?BuildRaw@JSFunctionBuilder@Factory@internal@v8@@AEAA?AV?$Handle@VJSFunction@internal@v8@@@34@V?$Handle@VCode@internal@v8@@@34@@Z
  ?BuildRejectPromiseOnException@Parser@internal@v8@@AEAAPEAVBlock@23@PEAV423@W4REPLMode@23@@Z
  ?BuildReturnStatement@?$ParserBase@VParser@internal@v8@@@internal@v8@@IEAAPEAVStatement@23@PEAVExpression@23@HH@Z
  ?BuildTFGraph@wasm@internal@v8@@YA?AV?$Result@$$T@123@PEAVAccountingAllocator@23@AEBVWasmFeatures@123@PEBUWasmModule@123@PEAVWasmGraphBuilder@compiler@23@PEAV6123@AEBUFunctionBody@123@PEAV?$vector@UWasmLoopInfo@compiler@internal@v8@@V?$allocator@UWasmLoopInfo@compiler@internal@v8@@@std@@@std@@PEAVNodeOriginTable@923@HW4InlinedStatus@123@@Z
  ?BuildTranslation@CodeGenerator@compiler@internal@v8@@AEAAPEAVDeoptimizationExit@234@PEAVInstruction@234@H_K1VOutputFrameStateCombine@234@@Z
  ?BuildTranslationForFrameStateDescriptor@CodeGenerator@compiler@internal@v8@@AEAAXPEAVFrameStateDescriptor@234@PEAVInstructionOperandIterator@234@VOutputFrameStateCombine@234@@Z
  ?BuildTree@StateValuesCache@compiler@internal@v8@@AEAAPEAVNode@234@PEA_KPEAPEAV5234@_KPEBVBytecodeLivenessState@234@2@Z
  ?BuildUnaryExpression@Parser@internal@v8@@AEAAPEAVExpression@23@PEAV423@W4Value@Token@23@H@Z
  ?BuiltinEntry@TurboAssemblerBase@internal@v8@@QEAA_KW4Builtin@23@@Z
  ?ByteLength@ArrayBuffer@v8@@QEBA_KXZ
  ?ByteLength@ArrayBufferView@v8@@QEAA_KXZ
  ?ByteLength@BackingStore@v8@@QEBA_KXZ
  ?ByteLength@SharedArrayBuffer@v8@@QEBA_KXZ
  ?ByteOffset@ArrayBufferView@v8@@QEAA_KXZ
  ?BytecodeHasHandler@Bytecodes@interpreter@internal@v8@@SA_NW4Bytecode@234@W4OperandScale@234@@Z
  ?CEntry@CodeFactory@internal@v8@@SA?AV?$Handle@VCode@internal@v8@@@23@PEAVIsolate@23@HW4SaveFPRegsMode@23@W4ArgvMode@23@_N@Z
  ?CEntryStubConstant@JSGraph@compiler@internal@v8@@QEAAPEAVNode@234@HW4SaveFPRegsMode@34@W4ArgvMode@34@_N@Z
  ?CEntryStubConstant@JSGraphAssembler@compiler@internal@v8@@QEAAPEAVNode@234@H@Z
  ?CSPViolation@ReasonEnum@Paused@API@Debugger@protocol@v8_inspector@@3PEBDEB
  ?CachedDataVersionTag@ScriptCompiler@v8@@SAIXZ
  ?CalculateAllocationLimit@?$MemoryController@UGlobalMemoryTrait@internal@v8@@@internal@v8@@SA_KPEAVHeap@23@_K111NW4HeapGrowingMode@423@@Z
  ?CalculateAllocationLimit@?$MemoryController@UV8HeapTrait@internal@v8@@@internal@v8@@SA_KPEAVHeap@23@_K111NW4HeapGrowingMode@423@@Z
  ?CalculateFixedFrameSize@CallDescriptor@compiler@internal@v8@@QEBAHW4CodeKind@34@@Z
  ?CalculateValue@Utf8@unibrow@@SAIPEBE_KPEA_K@Z
  ?Call@CodeFactory@internal@v8@@SA?AVCallable@23@PEAVIsolate@23@W4ConvertReceiverMode@23@@Z
  ?Call@CommonOperatorBuilder@compiler@internal@v8@@QEAAPEBVOperator@234@PEBVCallDescriptor@234@@Z
  ?Call@Execution@internal@v8@@SA?AV?$MaybeHandle@VObject@internal@v8@@@23@PEAVIsolate@23@V?$Handle@VObject@internal@v8@@@23@1HQEAV623@@Z
  ?Call@Function@v8@@QEAA?AV?$MaybeLocal@VValue@v8@@@2@V?$Local@VContext@v8@@@2@V?$Local@VValue@v8@@@2@HQEAV52@@Z
  ?Call@GraphAssembler@compiler@internal@v8@@QEAA?AV?$TNode@VObject@internal@v8@@@34@PEBVCallDescriptor@234@HPEAPEAVNode@234@@Z
  ?Call@GraphAssembler@compiler@internal@v8@@QEAA?AV?$TNode@VObject@internal@v8@@@34@PEBVOperator@234@HPEAPEAVNode@234@@Z
  ?Call@JSOperatorBuilder@compiler@internal@v8@@QEAAPEBVOperator@234@_KAEBVCallFrequency@234@AEBUFeedbackSource@234@W4ConvertReceiverMode@34@W4SpeculationMode@34@W4CallFeedbackRelation@234@@Z
  ?Call@TurboAssembler@internal@v8@@QEAAXPEAVLabel@23@@Z
  ?Call@TurboAssembler@internal@v8@@QEAAXV?$Handle@VCode@internal@v8@@@23@W4Mode@RelocInfo@23@@Z
  ?Call@TurboAssembler@internal@v8@@QEAAXVExternalReference@23@@Z
  ?Call@TurboAssembler@internal@v8@@QEAAXVOperand@23@@Z
  ?Call@TurboAssembler@internal@v8@@QEAAXVRegister@23@@Z
  ?Call@TurboAssembler@internal@v8@@QEAAX_KW4Mode@RelocInfo@23@@Z
  ?CallAnyReceiver@BytecodeArrayBuilder@interpreter@internal@v8@@QEAAAEAV1234@VRegister@234@VRegisterList@234@H@Z
  ?CallApiCallback@CodeFactory@internal@v8@@SA?AVCallable@23@PEAVIsolate@23@@Z
  ?CallAsConstructor@Object@v8@@QEAA?AV?$MaybeLocal@VValue@v8@@@2@V?$Local@VContext@v8@@@2@HQEAV?$Local@VValue@v8@@@2@@Z
  ?CallAsFunction@Object@v8@@QEAA?AV?$MaybeLocal@VValue@v8@@@2@V?$Local@VContext@v8@@@2@V?$Local@VValue@v8@@@2@HQEAV52@@Z
  ?CallBuiltin@TurboAssembler@internal@v8@@QEAAXW4Builtin@23@@Z
  ?CallBuiltinByIndex@TurboAssembler@internal@v8@@QEAAXVRegister@23@@Z
  ?CallCFunction@CodeAssembler@compiler@internal@v8@@AEAAPEAVNode@234@PEAV5234@V?$Optional@VMachineType@internal@v8@@@base@4@V?$initializer_list@U?$pair@VMachineType@internal@v8@@PEAVNode@compiler@23@@std@@@std@@@Z
  ?CallCFunction@RawMachineAssembler@compiler@internal@v8@@QEAAPEAVNode@234@PEAV5234@V?$Optional@VMachineType@internal@v8@@@base@4@V?$initializer_list@U?$pair@VMachineType@internal@v8@@PEAVNode@compiler@23@@std@@@std@@@Z
  ?CallCFunction@TurboAssembler@internal@v8@@QEAAXVExternalReference@23@H@Z
  ?CallCFunction@TurboAssembler@internal@v8@@QEAAXVRegister@23@H@Z
  ?CallCFunctionN@CodeAssembler@compiler@internal@v8@@QEAAPEAVNode@234@PEAV?$Signature@VMachineType@internal@v8@@@34@HPEBQEAV5234@@Z
  ?CallCFunctionWithCallerSavedRegisters@CodeAssembler@compiler@internal@v8@@AEAAPEAVNode@234@PEAV5234@VMachineType@34@W4SaveFPRegsMode@34@V?$initializer_list@U?$pair@VMachineType@internal@v8@@PEAVNode@compiler@23@@std@@@std@@@Z
  ?CallCFunctionWithCallerSavedRegisters@RawMachineAssembler@compiler@internal@v8@@QEAAPEAVNode@234@PEAV5234@VMachineType@34@W4SaveFPRegsMode@34@V?$initializer_list@U?$pair@VMachineType@internal@v8@@PEAVNode@compiler@23@@std@@@std@@@Z
  ?CallCFunctionWithoutFunctionDescriptor@CodeAssembler@compiler@internal@v8@@AEAAPEAVNode@234@PEAV5234@VMachineType@34@V?$initializer_list@U?$pair@VMachineType@internal@v8@@PEAVNode@compiler@23@@std@@@std@@@Z
  ?CallCFunctionWithoutFunctionDescriptor@RawMachineAssembler@compiler@internal@v8@@QEAAPEAVNode@234@PEAV5234@VMachineType@34@V?$initializer_list@U?$pair@VMachineType@internal@v8@@PEAVNode@compiler@23@@std@@@std@@@Z
  ?CallCheckStackGuardState@RegExpMacroAssemblerX64@internal@v8@@AEAAXXZ
  ?CallCodeDataContainerObject@TurboAssembler@internal@v8@@QEAAXVRegister@23@@Z
  ?CallCodeObject@TurboAssembler@internal@v8@@QEAAXVRegister@23@@Z
  ?CallCodeTObject@TurboAssembler@internal@v8@@QEAAXVRegister@23@@Z
  ?CallDebugOnFunctionCall@MacroAssembler@internal@v8@@QEAAXVRegister@23@000@Z
  ?CallDescriptorOf@compiler@internal@v8@@YAPEBVCallDescriptor@123@QEBVOperator@123@@Z
  ?CallEnqueueMicrotask@MicrotaskQueue@internal@v8@@SA_KPEAVIsolate@23@_J_K@Z
  ?CallEphemeronKeyBarrier@TurboAssembler@internal@v8@@QEAAXVRegister@23@0W4SaveFPRegsMode@23@@Z
  ?CallEpilogue@CodeAssembler@compiler@internal@v8@@AEAAXXZ
  ?CallForDeoptimization@TurboAssembler@internal@v8@@QEAAXW4Builtin@23@HPEAVLabel@23@W4DeoptimizeKind@23@11@Z
  ?CallForwardVarargs@CodeFactory@internal@v8@@SA?AVCallable@23@PEAVIsolate@23@@Z
  ?CallForwardVarargs@JSOperatorBuilder@compiler@internal@v8@@QEAAPEBVOperator@234@_KI@Z
  ?CallFunction@CodeFactory@internal@v8@@SA?AVCallable@23@PEAVIsolate@23@W4ConvertReceiverMode@23@@Z
  ?CallFunctionForwardVarargs@CodeFactory@internal@v8@@SA?AVCallable@23@PEAVIsolate@23@@Z
  ?CallIsCharacterInRangeArray@RegExpMacroAssemblerX64@internal@v8@@AEAAXPEBV?$ZoneList@VCharacterRange@internal@v8@@@23@@Z
  ?CallJSRuntime@BytecodeArrayBuilder@interpreter@internal@v8@@QEAAAEAV1234@HVRegisterList@234@@Z
  ?CallJSStubImpl@CodeAssembler@compiler@internal@v8@@AEAAPEAVNode@234@AEBVCallInterfaceDescriptor@34@V?$TNode@VObject@internal@v8@@@34@11V?$Optional@V?$TNode@VObject@internal@v8@@@internal@v8@@@base@4@V?$TNode@UInt32T@internal@v8@@@34@V?$initializer_list@PEAVNode@compiler@internal@v8@@@std@@@Z
  ?CallN@RawMachineAssembler@compiler@internal@v8@@QEAAPEAVNode@234@PEAVCallDescriptor@234@HPEBQEAV5234@@Z
  ?CallNWithFrameState@RawMachineAssembler@compiler@internal@v8@@QEAAPEAVNode@234@PEAVCallDescriptor@234@HPEBQEAV5234@@Z
  ?CallOnceImpl@base@v8@@YAXPEAU?$atomic@E@std@@V?$function@$$A6AXXZ@4@@Z
  ?CallPrologue@CodeAssembler@compiler@internal@v8@@AEAAXXZ
  ?CallProperty@BytecodeArrayBuilder@interpreter@internal@v8@@QEAAAEAV1234@VRegister@234@VRegisterList@234@H@Z
  ?CallRecordWriteStub@TurboAssembler@internal@v8@@QEAAXVRegister@23@0W4RememberedSetAction@23@W4SaveFPRegsMode@23@W4StubCallMode@23@@Z
  ?CallRecordWriteStubSaveRegisters@TurboAssembler@internal@v8@@QEAAXVRegister@23@0W4RememberedSetAction@23@W4SaveFPRegsMode@23@W4StubCallMode@23@@Z
  ?CallRuntime@BytecodeArrayBuilder@interpreter@internal@v8@@QEAAAEAV1234@W4FunctionId@Runtime@34@@Z
  ?CallRuntime@BytecodeArrayBuilder@interpreter@internal@v8@@QEAAAEAV1234@W4FunctionId@Runtime@34@VRegister@234@@Z
  ?CallRuntime@BytecodeArrayBuilder@interpreter@internal@v8@@QEAAAEAV1234@W4FunctionId@Runtime@34@VRegisterList@234@@Z
  ?CallRuntime@JSOperatorBuilder@compiler@internal@v8@@QEAAPEBVOperator@234@PEBUFunction@Runtime@34@_K@Z
  ?CallRuntime@JSOperatorBuilder@compiler@internal@v8@@QEAAPEBVOperator@234@W4FunctionId@Runtime@34@@Z
  ?CallRuntime@JSOperatorBuilder@compiler@internal@v8@@QEAAPEBVOperator@234@W4FunctionId@Runtime@34@_K@Z
  ?CallRuntime@MacroAssembler@internal@v8@@QEAAXPEBUFunction@Runtime@23@HW4SaveFPRegsMode@23@@Z
  ?CallRuntime@MacroAssembler@internal@v8@@QEAAXW4FunctionId@Runtime@23@HW4SaveFPRegsMode@23@@Z
  ?CallRuntime@MacroAssembler@internal@v8@@QEAAXW4FunctionId@Runtime@23@W4SaveFPRegsMode@23@@Z
  ?CallRuntimeForPair@BytecodeArrayBuilder@interpreter@internal@v8@@QEAAAEAV1234@W4FunctionId@Runtime@34@VRegister@234@VRegisterList@234@@Z
  ?CallRuntimeForPair@BytecodeArrayBuilder@interpreter@internal@v8@@QEAAAEAV1234@W4FunctionId@Runtime@34@VRegisterList@234@1@Z
  ?CallRuntimeImpl@CodeAssembler@compiler@internal@v8@@AEAAPEAVNode@234@W4FunctionId@Runtime@34@V?$TNode@VObject@internal@v8@@@34@V?$initializer_list@V?$TNode@VObject@internal@v8@@@internal@v8@@@std@@@Z
  ?CallRuntimeParametersOf@compiler@internal@v8@@YAAEBVCallRuntimeParameters@123@PEBVOperator@123@@Z
  ?CallScript@Execution@internal@v8@@SA?AV?$MaybeHandle@VObject@internal@v8@@@23@PEAVIsolate@23@V?$Handle@VJSFunction@internal@v8@@@23@V?$Handle@VObject@internal@v8@@@23@2@Z
  ?CallStubN@CodeAssembler@compiler@internal@v8@@AEAAPEAVNode@234@W4StubCallMode@34@AEBVCallInterfaceDescriptor@34@HPEBQEAV5234@@Z
  ?CallStubRImpl@CodeAssembler@compiler@internal@v8@@AEAAPEAVNode@234@W4StubCallMode@34@AEBVCallInterfaceDescriptor@34@V?$TNode@VObject@internal@v8@@@34@2V?$initializer_list@PEAVNode@compiler@internal@v8@@@std@@@Z
  ?CallUndefinedReceiver@BytecodeArrayBuilder@interpreter@internal@v8@@QEAAAEAV1234@VRegister@234@VRegisterList@234@H@Z
  ?CallVarargs@CodeFactory@internal@v8@@SA?AVCallable@23@PEAVIsolate@23@@Z
  ?CallWasm@Execution@internal@v8@@SAXPEAVIsolate@23@V?$Handle@VCode@internal@v8@@@23@_KV?$Handle@VObject@internal@v8@@@23@2@Z
  ?CallWasm@JSOperatorBuilder@compiler@internal@v8@@QEAAPEBVOperator@234@PEBUWasmModule@wasm@34@PEBV?$Signature@VValueType@wasm@internal@v8@@@34@AEBUFeedbackSource@234@@Z
  ?CallWithArrayLike@CodeFactory@internal@v8@@SA?AVCallable@23@PEAVIsolate@23@@Z
  ?CallWithArrayLike@JSOperatorBuilder@compiler@internal@v8@@QEAAPEBVOperator@234@AEBVCallFrequency@234@AEBUFeedbackSource@234@W4SpeculationMode@34@W4CallFeedbackRelation@234@@Z
  ?CallWithSpread@BytecodeArrayBuilder@interpreter@internal@v8@@QEAAAEAV1234@VRegister@234@VRegisterList@234@H@Z
  ?CallWithSpread@CodeFactory@internal@v8@@SA?AVCallable@23@PEAVIsolate@23@@Z
  ?CallWithSpread@JSOperatorBuilder@compiler@internal@v8@@QEAAPEBVOperator@234@IAEBVCallFrequency@234@AEBUFeedbackSource@234@W4SpeculationMode@34@W4CallFeedbackRelation@234@@Z
  ?Call_WithFeedback@CodeFactory@internal@v8@@SA?AVCallable@23@PEAVIsolate@23@W4ConvertReceiverMode@23@@Z
  ?Callable@Type@compiler@internal@v8@@SA?AV1234@XZ
  ?CallableFor@Builtins@internal@v8@@SA?AVCallable@23@PEAVIsolate@23@W4Builtin@23@@Z
  ?CallableFunction@Type@compiler@internal@v8@@SA?AV1234@XZ
  ?CallableProxy@Type@compiler@internal@v8@@SA?AV1234@XZ
  ?CallbackEvent@CodeEventLogger@internal@v8@@UEAAXV?$Handle@VName@internal@v8@@@23@_K@Z
  ?CallbackEvent@ProfilerListener@internal@v8@@UEAAXV?$Handle@VName@internal@v8@@@23@_K@Z
  ?CalleeSaveRegisters@CallInterfaceDescriptor@internal@v8@@QEBA_NXZ
  ?CalleeSavedFPRegisters@CallDescriptor@compiler@internal@v8@@QEBA?AV?$RegListBase@VXMMRegister@internal@v8@@@34@XZ
  ?CalleeSavedRegisters@CallDescriptor@compiler@internal@v8@@QEBA?AV?$RegListBase@VRegister@internal@v8@@@34@XZ
  ?CanAddressRelativeToRootsRegister@InstructionSelector@compiler@internal@v8@@QEBA_NAEBVExternalReference@34@@Z
  ?CanAllocateInReadOnlySpace@Factory@internal@v8@@AEAA_NXZ
  ?CanAllocateInReadOnlySpace@HeapAllocator@internal@v8@@QEBA_NXZ
  ?CanAllocateInReadOnlySpace@LocalFactory@internal@v8@@AEAA_NXZ
  ?CanAllocateSharedPages@PageAllocator@base@v8@@UEAA_NXZ
  ?CanAllocateSubspaces@VirtualAddressSpace@base@v8@@UEAA_NXZ
  ?CanAllocateSubspaces@VirtualAddressSubspace@base@v8@@UEAA_NXZ
  ?CanBeActivated@IncrementalMarking@internal@v8@@QEAA_NXZ
  ?CanBeAsserted@Type@compiler@internal@v8@@QEBA_NXZ
  ?CanBeDeprecated@MapRef@compiler@internal@v8@@QEBA_NXZ
  ?CanBeInSharedOldSpace@SharedHeapSerializer@internal@v8@@SA_NVHeapObject@23@@Z
  ?CanBeInvokedWith@AsmFunctionType@wasm@internal@v8@@UEAA_NPEAVAsmType@234@AEBV?$ZoneVector@PEAVAsmType@wasm@internal@v8@@@34@@Z
  ?CanBeInvokedWith@AsmOverloadedFunctionType@wasm@internal@v8@@EEAA_NPEAVAsmType@234@AEBV?$ZoneVector@PEAVAsmType@wasm@internal@v8@@@34@@Z
  ?CanBeNullOrUndefined@NodeProperties@compiler@internal@v8@@SA_NPEAVJSHeapBroker@234@PEAVNode@234@VEffect@234@@Z
  ?CanBePrimitive@NodeProperties@compiler@internal@v8@@SA_NPEAVJSHeapBroker@234@PEAVNode@234@VEffect@234@@Z
  ?CanBeRehashed@StartupData@v8@@QEBA_NXZ
  ?CanBeSpilled@LiveRange@compiler@internal@v8@@QEBA_NVLifetimePosition@234@@Z
  ?CanBreakAtEntry@Debug@internal@v8@@QEAA_NV?$Handle@VSharedFunctionInfo@internal@v8@@@23@@Z
  ?CanContinue@TryCatch@v8@@QEBA_NXZ
  ?CanCover@InstructionSelector@compiler@internal@v8@@QEBA_NPEAVNode@234@0@Z
  ?CanCover@LiveRange@compiler@internal@v8@@QEBA_NVLifetimePosition@234@@Z
  ?CanDiscardMemory@Sweeper@internal@cppgc@@SA_NXZ
  ?CanExpandOldGeneration@Heap@internal@v8@@AEAA_N_K@Z
  ?CanExpandOldGenerationBackground@Heap@internal@v8@@AEAA_NPEAVLocalHeap@23@_K@Z
  ?CanHaveInternalField@internal@v8@@YA_NH@Z
  ?CanHaveMoreTransitions@TransitionsAccessor@internal@v8@@SA_NPEAVIsolate@23@V?$Handle@VMap@internal@v8@@@23@@Z
  ?CanInlineElementAccess@MapRef@compiler@internal@v8@@QEBA_NXZ
  ?CanMakeExternal@String@v8@@QEBA_NXZ
  ?CanPeel@LoopPeeler@compiler@internal@v8@@QEAA_NPEAVLoop@LoopTree@234@@Z
  ?CanProduceSignalingNaN@InstructionSelector@compiler@internal@v8@@AEAA_NPEAVNode@234@@Z
  ?CanPromoteYoungAndExpandOldGeneration@Heap@internal@v8@@AEAA_N_K@Z
  ?CanReadUnaligned@RegExpBytecodeGenerator@internal@v8@@UEBA_NXZ
  ?CanRegisterUnwindInfoForNonABICompliantCodeRange@WasmCodeManager@wasm@internal@v8@@SA_NXZ
  ?CanReserveAddressSpace@OS@base@v8@@CA_NXZ
  ?CanTailCall@CallDescriptor@compiler@internal@v8@@QEBA_NPEBV1234@@Z
  ?CanTransition@MapRef@compiler@internal@v8@@QEBA_NXZ
  ?CanTreatHoleAsUndefined@JSNativeContextSpecialization@compiler@internal@v8@@AEAA_NAEBV?$ZoneVector@VMapRef@compiler@internal@v8@@@34@@Z
  ?CanUseRootsRegister@InstructionSelector@compiler@internal@v8@@QEBA_NXZ
  ?Cancel@Cancelable@internal@v8@@AEAA_NXZ
  ?Cancel@ConcurrentMarkerBase@internal@cppgc@@QEAA_NXZ
  ?CancelAndWait@CancelableTaskManager@internal@v8@@QEAAXXZ
  ?CancelAndWait@OperationsBarrier@internal@v8@@QEAAXXZ
  ?CancelCompilation@CompilationState@wasm@internal@v8@@QEAAXXZ
  ?CancelIfShouldNotCompact@Compactor@internal@cppgc@@QEAA_NW4MarkingType@Heap@3@W4EmbedderStackState@3@@Z
  ?CancelInitialCompilation@CompilationState@wasm@internal@v8@@QEAAXXZ
  ?CancelScheduledExceptionFromTryCatch@Isolate@internal@v8@@QEAAXPEAVTryCatch@3@@Z
  ?CancelTerminateExecution@Isolate@internal@v8@@QEAAXXZ
  ?CancelTerminateExecution@Isolate@v8@@QEAAXXZ
  ?Canonicalize@CharacterSet@internal@v8@@QEAAXXZ
  ?CanonicalizeShuffle@InstructionSelector@compiler@internal@v8@@AEAAXPEAVNode@234@PEAEPEA_N@Z
  ?CanonicalizeShuffle@SimdShuffle@wasm@internal@v8@@SAX_NPEAEPEA_N2@Z
  ?CanonicalizeTimeZoneID@JSDateTimeFormat@internal@v8@@SA?AV?$basic_string@DU?$char_traits@D@std@@V?$allocator@D@2@@std@@AEBV45@@Z
  ?Capacity@?$OrderedHashTable@VOrderedHashMap@internal@v8@@$01@internal@v8@@QEAAHXZ
  ?Capacity@?$OrderedHashTable@VOrderedHashSet@internal@v8@@$00@internal@v8@@QEAAHXZ
  ?Capacity@?$OrderedHashTable@VOrderedNameDictionary@internal@v8@@$02@internal@v8@@QEAAHXZ
  ?Capacity@HashTableBase@internal@v8@@QEBAHXZ
  ?Capacity@NewSpace@internal@v8@@QEBA_KXZ
  ?Capacity@OrderedNameDictionaryHandler@internal@v8@@SAHVHeapObject@23@@Z
  ?Capacity@PagedSpace@internal@v8@@QEBA_KXZ
  ?Capacity@StringTable@internal@v8@@QEBAHXZ
  ?Capacity@SwissNameDictionary@internal@v8@@QEAAHXZ
  ?Capacity@TransitionsAccessor@internal@v8@@IEAAHXZ
  ?CapacityFor@SwissNameDictionary@internal@v8@@SAHH@Z
  ?CapacityForLength@OSROptimizedCodeCache@internal@v8@@CAHH@Z
  ?CapacityOffset@SwissNameDictionary@internal@v8@@SAHXZ
  ?CaptureAndSetErrorStack@Isolate@internal@v8@@QEAA?AV?$MaybeHandle@VJSObject@internal@v8@@@23@V?$Handle@VJSObject@internal@v8@@@23@W4FrameSkipMode@23@V?$Handle@VObject@internal@v8@@@23@@Z
  ?CaptureDetailedStackTrace@Isolate@internal@v8@@QEAA?AV?$Handle@VFixedArray@internal@v8@@@23@HW4StackTraceOptions@StackTrace@3@@Z
  ?Cast@AccessorPair@debug@v8@@SAPEAV123@PEAVValue@3@@Z
  ?Cast@AccessorSignature@v8@@SAPEAV12@PEAVData@2@@Z
  ?Cast@Array@v8@@SAPEAV12@PEAVValue@2@@Z
  ?Cast@ArrayBuffer@v8@@SAPEAV12@PEAVValue@2@@Z
  ?Cast@ArrayBufferView@v8@@SAPEAV12@PEAVValue@2@@Z
  ?Cast@BigInt64Array@v8@@SAPEAV12@PEAVValue@2@@Z
  ?Cast@BigInt@v8@@SAPEAV12@PEAVData@2@@Z
  ?Cast@BigIntObject@v8@@SAPEAV12@PEAVValue@2@@Z
  ?Cast@BigUint64Array@v8@@SAPEAV12@PEAVValue@2@@Z
  ?Cast@Boolean@v8@@SAPEAV12@PEAVData@2@@Z
  ?Cast@BooleanObject@v8@@SAPEAV12@PEAVValue@2@@Z
  ?Cast@CodeAssembler@compiler@internal@v8@@QEAA?AV?$CheckedNode@VObject@internal@v8@@$0A@@1234@PEAVNode@234@PEBD@Z
  ?Cast@Context@v8@@SAPEAV12@PEAVData@2@@Z
  ?Cast@DataView@v8@@SAPEAV12@PEAVValue@2@@Z
  ?Cast@Date@v8@@SAPEAV12@PEAVValue@2@@Z
  ?Cast@External@v8@@SAPEAV12@PEAVValue@2@@Z
  ?Cast@FixedArray@v8@@SAPEAV12@PEAVData@2@@Z
  ?Cast@Float32Array@v8@@SAPEAV12@PEAVValue@2@@Z
  ?Cast@Float64Array@v8@@SAPEAV12@PEAVValue@2@@Z
  ?Cast@Function@v8@@SAPEAV12@PEAVValue@2@@Z
  ?Cast@FunctionTemplate@v8@@SAPEAV12@PEAVData@2@@Z
  ?Cast@Int16Array@v8@@SAPEAV12@PEAVValue@2@@Z
  ?Cast@Int32@v8@@SAPEAV12@PEAVData@2@@Z
  ?Cast@Int32Array@v8@@SAPEAV12@PEAVValue@2@@Z
  ?Cast@Int8Array@v8@@SAPEAV12@PEAVValue@2@@Z
  ?Cast@Integer@v8@@SAPEAV12@PEAVData@2@@Z
  ?Cast@Map@v8@@SAPEAV12@PEAVValue@2@@Z
  ?Cast@Module@v8@@SAPEAV12@PEAVData@2@@Z
  ?Cast@ModuleRequest@v8@@SAPEAV12@PEAVData@2@@Z
  ?Cast@Name@v8@@SAPEAV12@PEAVData@2@@Z
  ?Cast@Number@v8@@SAPEAV12@PEAVData@2@@Z
  ?Cast@NumberObject@v8@@SAPEAV12@PEAVValue@2@@Z
  ?Cast@Object@v8@@SAPEAV12@PEAVValue@2@@Z
  ?Cast@ObjectTemplate@v8@@SAPEAV12@PEAVData@2@@Z
  ?Cast@PrimitiveArray@v8@@SAPEAV12@PEAVData@2@@Z
  ?Cast@Private@v8@@SAPEAV12@PEAVData@2@@Z
  ?Cast@Promise@v8@@SAPEAV12@PEAVValue@2@@Z
  ?Cast@Proxy@v8@@SAPEAV12@PEAVValue@2@@Z
  ?Cast@RegExp@v8@@SAPEAV12@PEAVValue@2@@Z
  ?Cast@Resolver@Promise@v8@@SAPEAV123@PEAVValue@3@@Z
  ?Cast@Set@v8@@SAPEAV12@PEAVValue@2@@Z
  ?Cast@SharedArrayBuffer@v8@@SAPEAV12@PEAVValue@2@@Z
  ?Cast@Signature@v8@@SAPEAV12@PEAVData@2@@Z
  ?Cast@String@v8@@SAPEAV12@PEAVData@2@@Z
  ?Cast@StringObject@v8@@SAPEAV12@PEAVValue@2@@Z
  ?Cast@Symbol@v8@@SAPEAV12@PEAVData@2@@Z
  ?Cast@SymbolObject@v8@@SAPEAV12@PEAVValue@2@@Z
  ?Cast@TypedArray@v8@@SAPEAV12@PEAVValue@2@@Z
  ?Cast@Uint16Array@v8@@SAPEAV12@PEAVValue@2@@Z
  ?Cast@Uint32@v8@@SAPEAV12@PEAVData@2@@Z
  ?Cast@Uint32Array@v8@@SAPEAV12@PEAVValue@2@@Z
  ?Cast@Uint8Array@v8@@SAPEAV12@PEAVValue@2@@Z
  ?Cast@Uint8ClampedArray@v8@@SAPEAV12@PEAVValue@2@@Z
  ?Cast@WasmMemoryObject@v8@@SAPEAV12@PEAVValue@2@@Z
  ?Cast@WasmModuleObject@v8@@SAPEAV12@PEAVValue@2@@Z
  ?Cast@WasmValueObject@debug@v8@@SAPEAV123@PEAVValue@3@@Z
  ?Catch@Promise@v8@@QEAA?AV?$MaybeLocal@VPromise@v8@@@2@V?$Local@VContext@v8@@@2@V?$Local@VFunction@v8@@@2@@Z
  ?CellAlignIndex@Bitmap@internal@v8@@SAII@Z
  ?CellAt@GlobalDictionary@internal@v8@@QEAA?AVPropertyCell@23@VInternalIndex@23@@Z
  ?CellAt@GlobalDictionary@internal@v8@@QEAA?AVPropertyCell@23@VPtrComprCageBase@23@VInternalIndex@23@@Z
  ?CellsCount@Bitmap@internal@v8@@SA_KXZ
  ?CellsForLength@Bitmap@internal@v8@@SA_KH@Z
  ?Change@CommonOperatorReducer@compiler@internal@v8@@AEAA?AVReduction@234@PEAVNode@234@PEBVOperator@234@00@Z
  ?Change@CommonOperatorReducer@compiler@internal@v8@@AEAA?AVReduction@234@PEAVNode@234@PEBVOperator@234@0@Z
  ?Change@JSIntrinsicLowering@compiler@internal@v8@@AEAA?AVReduction@234@PEAVNode@234@AEBVCallable@34@HW4FrameStateFlag@1234@@Z
  ?Change@JSIntrinsicLowering@compiler@internal@v8@@AEAA?AVReduction@234@PEAVNode@234@PEBVOperator@234@0000@Z
  ?Change@JSIntrinsicLowering@compiler@internal@v8@@AEAA?AVReduction@234@PEAVNode@234@PEBVOperator@234@000@Z
  ?Change@JSIntrinsicLowering@compiler@internal@v8@@AEAA?AVReduction@234@PEAVNode@234@PEBVOperator@234@00@Z
  ?Change@JSIntrinsicLowering@compiler@internal@v8@@AEAA?AVReduction@234@PEAVNode@234@PEBVOperator@234@@Z
  ?Change@SimplifiedOperatorReducer@compiler@internal@v8@@AEAA?AVReduction@234@PEAVNode@234@PEBVOperator@234@0@Z
  ?ChangeBitToTagged@SimplifiedOperatorBuilder@compiler@internal@v8@@QEAAPEBVOperator@234@XZ
  ?ChangeBreakOnException@Debug@internal@v8@@QEAAXW4ExceptionBreakType@23@_N@Z
  ?ChangeFloat32ToFloat64@CodeAssembler@compiler@internal@v8@@QEAA?AV?$TNode@UFloat64T@internal@v8@@@34@V?$TNode@UFloat32T@internal@v8@@@34@@Z
  ?ChangeFloat32ToFloat64@GraphAssembler@compiler@internal@v8@@QEAAPEAVNode@234@PEAV5234@@Z
  ?ChangeFloat32ToFloat64@MachineOperatorBuilder@compiler@internal@v8@@QEAAPEBVOperator@234@XZ
  ?ChangeFloat32ToFloat64@RawMachineAssembler@compiler@internal@v8@@QEAAPEAVNode@234@PEAV5234@@Z
  ?ChangeFloat64ToInt32@GraphAssembler@compiler@internal@v8@@QEAAPEAVNode@234@PEAV5234@@Z
  ?ChangeFloat64ToInt32@MachineOperatorBuilder@compiler@internal@v8@@QEAAPEBVOperator@234@XZ
  ?ChangeFloat64ToInt32@RawMachineAssembler@compiler@internal@v8@@QEAAPEAVNode@234@PEAV5234@@Z
  ?ChangeFloat64ToInt64@GraphAssembler@compiler@internal@v8@@QEAAPEAVNode@234@PEAV5234@@Z
  ?ChangeFloat64ToInt64@MachineOperatorBuilder@compiler@internal@v8@@QEAAPEBVOperator@234@XZ
  ?ChangeFloat64ToInt64@RawMachineAssembler@compiler@internal@v8@@QEAAPEAVNode@234@PEAV5234@@Z
  ?ChangeFloat64ToIntPtr@CodeAssembler@compiler@internal@v8@@QEAA?AV?$TNode@UIntPtrT@internal@v8@@@34@V?$TNode@UFloat64T@internal@v8@@@34@@Z
  ?ChangeFloat64ToTagged@SimplifiedOperatorBuilder@compiler@internal@v8@@QEAAPEBVOperator@234@W4CheckForMinusZeroMode@234@@Z
  ?ChangeFloat64ToTaggedPointer@SimplifiedOperatorBuilder@compiler@internal@v8@@QEAAPEBVOperator@234@XZ
  ?ChangeFloat64ToUint32@CodeAssembler@compiler@internal@v8@@QEAA?AV?$TNode@UUint32T@internal@v8@@@34@V?$TNode@UFloat64T@internal@v8@@@34@@Z
  ?ChangeFloat64ToUint32@GraphAssembler@compiler@internal@v8@@QEAAPEAVNode@234@PEAV5234@@Z
  ?ChangeFloat64ToUint32@MachineOperatorBuilder@compiler@internal@v8@@QEAAPEBVOperator@234@XZ
  ?ChangeFloat64ToUint32@RawMachineAssembler@compiler@internal@v8@@QEAAPEAVNode@234@PEAV5234@@Z
  ?ChangeFloat64ToUint64@CodeAssembler@compiler@internal@v8@@QEAA?AV?$TNode@UUint64T@internal@v8@@@34@V?$TNode@UFloat64T@internal@v8@@@34@@Z
  ?ChangeFloat64ToUint64@MachineOperatorBuilder@compiler@internal@v8@@QEAAPEBVOperator@234@XZ
  ?ChangeFloat64ToUint64@RawMachineAssembler@compiler@internal@v8@@QEAAPEAVNode@234@PEAV5234@@Z
  ?ChangeFloat64ToUintPtr@CodeAssembler@compiler@internal@v8@@QEAA?AV?$TNode@UUintPtrT@internal@v8@@@34@V?$TNode@UFloat64T@internal@v8@@@34@@Z
  ?ChangeInt31ToTaggedSigned@SimplifiedOperatorBuilder@compiler@internal@v8@@QEAAPEBVOperator@234@XZ
  ?ChangeInt32ToFloat64@CodeAssembler@compiler@internal@v8@@QEAA?AV?$TNode@UFloat64T@internal@v8@@@34@V?$TNode@UInt32T@internal@v8@@@34@@Z
  ?ChangeInt32ToFloat64@GraphAssembler@compiler@internal@v8@@QEAAPEAVNode@234@PEAV5234@@Z
  ?ChangeInt32ToFloat64@MachineOperatorBuilder@compiler@internal@v8@@QEAAPEBVOperator@234@XZ
  ?ChangeInt32ToFloat64@RawMachineAssembler@compiler@internal@v8@@QEAAPEAVNode@234@PEAV5234@@Z
  ?ChangeInt32ToInt64@CodeAssembler@compiler@internal@v8@@QEAA?AV?$TNode@UInt64T@internal@v8@@@34@V?$TNode@UInt32T@internal@v8@@@34@@Z
  ?ChangeInt32ToInt64@GraphAssembler@compiler@internal@v8@@QEAAPEAVNode@234@PEAV5234@@Z
  ?ChangeInt32ToInt64@MachineOperatorBuilder@compiler@internal@v8@@QEAAPEBVOperator@234@XZ
  ?ChangeInt32ToInt64@RawMachineAssembler@compiler@internal@v8@@QEAAPEAVNode@234@PEAV5234@@Z
  ?ChangeInt32ToIntPtr@CodeAssembler@compiler@internal@v8@@QEAA?AV?$TNode@UIntPtrT@internal@v8@@@34@V?$TNode@UWord32T@internal@v8@@@34@@Z
  ?ChangeInt32ToTagged@SimplifiedOperatorBuilder@compiler@internal@v8@@QEAAPEBVOperator@234@XZ
  ?ChangeInt64ToBigInt@SimplifiedOperatorBuilder@compiler@internal@v8@@QEAAPEBVOperator@234@XZ
  ?ChangeInt64ToFloat64@GraphAssembler@compiler@internal@v8@@QEAAPEAVNode@234@PEAV5234@@Z
  ?ChangeInt64ToFloat64@MachineOperatorBuilder@compiler@internal@v8@@QEAAPEBVOperator@234@XZ
  ?ChangeInt64ToFloat64@RawMachineAssembler@compiler@internal@v8@@QEAAPEAVNode@234@PEAV5234@@Z
  ?ChangeInt64ToTagged@SimplifiedOperatorBuilder@compiler@internal@v8@@QEAAPEBVOperator@234@XZ
  ?ChangeOp@NodeProperties@compiler@internal@v8@@SAXPEAVNode@234@PEBVOperator@234@@Z
  ?ChangeOp@SimplifiedLowering@compiler@internal@v8@@AEAAXPEAVNode@234@PEBVOperator@234@@Z
  ?ChangeTaggedSignedToInt32@SimplifiedOperatorBuilder@compiler@internal@v8@@QEAAPEBVOperator@234@XZ
  ?ChangeTaggedSignedToInt64@SimplifiedOperatorBuilder@compiler@internal@v8@@QEAAPEBVOperator@234@XZ
  ?ChangeTaggedToBit@SimplifiedOperatorBuilder@compiler@internal@v8@@QEAAPEBVOperator@234@XZ
  ?ChangeTaggedToFloat64@SimplifiedOperatorBuilder@compiler@internal@v8@@QEAAPEBVOperator@234@XZ
  ?ChangeTaggedToInt32@SimplifiedOperatorBuilder@compiler@internal@v8@@QEAAPEBVOperator@234@XZ
  ?ChangeTaggedToInt64@SimplifiedOperatorBuilder@compiler@internal@v8@@QEAAPEBVOperator@234@XZ
  ?ChangeTaggedToTaggedSigned@SimplifiedOperatorBuilder@compiler@internal@v8@@QEAAPEBVOperator@234@XZ
  ?ChangeTaggedToUint32@SimplifiedOperatorBuilder@compiler@internal@v8@@QEAAPEBVOperator@234@XZ
  ?ChangeUint32ToFloat64@CodeAssembler@compiler@internal@v8@@QEAA?AV?$TNode@UFloat64T@internal@v8@@@34@V?$TNode@UWord32T@internal@v8@@@34@@Z
  ?ChangeUint32ToFloat64@GraphAssembler@compiler@internal@v8@@QEAAPEAVNode@234@PEAV5234@@Z
  ?ChangeUint32ToFloat64@MachineOperatorBuilder@compiler@internal@v8@@QEAAPEBVOperator@234@XZ
  ?ChangeUint32ToFloat64@RawMachineAssembler@compiler@internal@v8@@QEAAPEAVNode@234@PEAV5234@@Z
  ?ChangeUint32ToTagged@SimplifiedOperatorBuilder@compiler@internal@v8@@QEAAPEBVOperator@234@XZ
  ?ChangeUint32ToUint64@CodeAssembler@compiler@internal@v8@@QEAA?AV?$TNode@UUint64T@internal@v8@@@34@V?$TNode@UWord32T@internal@v8@@@34@@Z
  ?ChangeUint32ToUint64@GraphAssembler@compiler@internal@v8@@QEAAPEAVNode@234@PEAV5234@@Z
  ?ChangeUint32ToUint64@MachineOperatorBuilder@compiler@internal@v8@@QEAAPEBVOperator@234@XZ
  ?ChangeUint32ToUint64@RawMachineAssembler@compiler@internal@v8@@QEAAPEAVNode@234@PEAV5234@@Z
  ?ChangeUint32ToWord@CodeAssembler@compiler@internal@v8@@QEAA?AV?$TNode@UUintPtrT@internal@v8@@@34@V?$TNode@UWord32T@internal@v8@@@34@@Z
  ?ChangeUint64ToBigInt@SimplifiedOperatorBuilder@compiler@internal@v8@@QEAAPEBVOperator@234@XZ
  ?ChangeUint64ToTagged@SimplifiedOperatorBuilder@compiler@internal@v8@@QEAAPEBVOperator@234@XZ
  ?ChangeUintPtrToFloat64@CodeAssembler@compiler@internal@v8@@QEAA?AV?$TNode@UFloat64T@internal@v8@@@34@V?$TNode@UUintPtrT@internal@v8@@@34@@Z
  ?ChangeUsed@NormalPageMemoryRegion@internal@cppgc@@AEAAX_K_N@Z
  ?Changed@Reducer@compiler@internal@v8@@SA?AVReduction@234@PEAVNode@234@@Z
  ?Check@?$ParserBase@VParser@internal@v8@@@internal@v8@@IEAA_NW4Value@Token@23@@Z
  ?Check@TurboAssembler@internal@v8@@QEAAXW4Condition@23@W4AbortReason@23@@Z
  ?CheckApiConstants@HeapObjectHeader@internal@cppgc@@AEAAXXZ
  ?CheckApiInterrupt@StackGuard@internal@v8@@QEAA_NXZ
  ?CheckArityRestrictions@?$ParserBase@VParser@internal@v8@@@internal@v8@@IEAAXHW4FunctionKind@23@_NHH@Z
  ?CheckArrayLength@JSCallReducer@compiler@internal@v8@@AEAAPEAVNode@234@PEAV5234@W4ElementsKind@34@IAEBUFeedbackSource@234@VEffect@234@VControl@234@@Z
  ?CheckAssigningFunctionLiteralToProperty@Parser@internal@v8@@CAXPEAVExpression@23@0@Z
  ?CheckAtStart@RegExpBytecodeGenerator@internal@v8@@UEAAXHPEAVLabel@23@@Z
  ?CheckAtStart@RegExpMacroAssemblerX64@internal@v8@@UEAAXHPEAVLabel@23@@Z
  ?CheckBigInt@OperationTyper@compiler@internal@v8@@QEAA?AVType@234@V5234@@Z
  ?CheckBigInt@SimplifiedOperatorBuilder@compiler@internal@v8@@QEAAPEBVOperator@234@AEBUFeedbackSource@234@@Z
  ?CheckBitInTable@RegExpBytecodeGenerator@internal@v8@@UEAAXV?$Handle@VByteArray@internal@v8@@@23@PEAVLabel@23@@Z
  ?CheckBitInTable@RegExpMacroAssemblerX64@internal@v8@@UEAAXV?$Handle@VByteArray@internal@v8@@@23@PEAVLabel@23@@Z
  ?CheckBounds@OperationTyper@compiler@internal@v8@@QEAA?AVType@234@V5234@0@Z
  ?CheckBounds@SimplifiedOperatorBuilder@compiler@internal@v8@@QEAAPEBVOperator@234@AEBUFeedbackSource@234@V?$Flags@W4CheckBoundsFlag@compiler@internal@v8@@H@base@4@@Z
  ?CheckBreakPoint@Debug@internal@v8@@AEAA_NV?$Handle@VBreakPoint@internal@v8@@@23@_N@Z
  ?CheckBreakPoints@Debug@internal@v8@@AEAA?AV?$MaybeHandle@VFixedArray@internal@v8@@@23@V?$Handle@VDebugInfo@internal@v8@@@23@PEAVBreakLocation@23@PEA_N@Z
  ?CheckBreakPointsForLocations@Debug@internal@v8@@AEAA?AV?$MaybeHandle@VFixedArray@internal@v8@@@23@V?$Handle@VDebugInfo@internal@v8@@@23@AEAV?$vector@VBreakLocation@internal@v8@@V?$allocator@VBreakLocation@internal@v8@@@std@@@std@@PEA_N@Z
  ?CheckCachedDataInvariants@ExternalOneByteStringResource@String@v8@@AEBAXXZ
  ?CheckCachedDataInvariants@ExternalStringResource@String@v8@@AEBAXXZ
  ?CheckCallable@Parser@internal@v8@@AEAAPEAVStatement@23@PEAVVariable@23@PEAVExpression@23@H@Z
  ?CheckCast@AccessorPair@debug@v8@@CAXPEAVValue@3@@Z
  ?CheckCast@AccessorSignature@v8@@CAXPEAVData@2@@Z
  ?CheckCast@Array@v8@@CAXPEAVValue@2@@Z
  ?CheckCast@ArrayBuffer@v8@@CAXPEAVValue@2@@Z
  ?CheckCast@ArrayBufferView@v8@@CAXPEAVValue@2@@Z
  ?CheckCast@BigInt64Array@v8@@CAXPEAVValue@2@@Z
  ?CheckCast@BigInt@v8@@CAXPEAVData@2@@Z
  ?CheckCast@BigIntObject@v8@@CAXPEAVValue@2@@Z
  ?CheckCast@BigUint64Array@v8@@CAXPEAVValue@2@@Z
  ?CheckCast@Boolean@v8@@CAXPEAVData@2@@Z
  ?CheckCast@BooleanObject@v8@@CAXPEAVValue@2@@Z
  ?CheckCast@Context@v8@@CAXPEAVData@2@@Z
  ?CheckCast@DataView@v8@@CAXPEAVValue@2@@Z
  ?CheckCast@Date@v8@@CAXPEAVValue@2@@Z
  ?CheckCast@External@v8@@CAXPEAVValue@2@@Z
  ?CheckCast@FixedArray@v8@@CAXPEAVData@2@@Z
  ?CheckCast@Float32Array@v8@@CAXPEAVValue@2@@Z
  ?CheckCast@Float64Array@v8@@CAXPEAVValue@2@@Z
  ?CheckCast@Function@v8@@CAXPEAVValue@2@@Z
  ?CheckCast@FunctionTemplate@v8@@CAXPEAVData@2@@Z
  ?CheckCast@Int16Array@v8@@CAXPEAVValue@2@@Z
  ?CheckCast@Int32@v8@@CAXPEAVData@2@@Z
  ?CheckCast@Int32Array@v8@@CAXPEAVValue@2@@Z
  ?CheckCast@Int8Array@v8@@CAXPEAVValue@2@@Z
  ?CheckCast@Integer@v8@@CAXPEAVData@2@@Z
  ?CheckCast@Map@v8@@CAXPEAVValue@2@@Z
  ?CheckCast@Module@v8@@CAXPEAVData@2@@Z
  ?CheckCast@ModuleRequest@v8@@CAXPEAVData@2@@Z
  ?CheckCast@Name@v8@@CAXPEAVData@2@@Z
  ?CheckCast@Number@v8@@CAXPEAVData@2@@Z
  ?CheckCast@NumberObject@v8@@CAXPEAVValue@2@@Z
  ?CheckCast@Object@v8@@CAXPEAVValue@2@@Z
  ?CheckCast@ObjectTemplate@v8@@CAXPEAVData@2@@Z
  ?CheckCast@PrimitiveArray@v8@@CAXPEAVData@2@@Z
  ?CheckCast@Private@v8@@CAXPEAVData@2@@Z
  ?CheckCast@Promise@v8@@CAXPEAVValue@2@@Z
  ?CheckCast@Proxy@v8@@CAXPEAVValue@2@@Z
  ?CheckCast@RegExp@v8@@CAXPEAVValue@2@@Z
  ?CheckCast@Resolver@Promise@v8@@CAXPEAVValue@3@@Z
  ?CheckCast@Set@v8@@CAXPEAVValue@2@@Z
  ?CheckCast@SharedArrayBuffer@v8@@CAXPEAVValue@2@@Z
  ?CheckCast@Signature@v8@@CAXPEAVData@2@@Z
  ?CheckCast@String@v8@@CAXPEAVData@2@@Z
  ?CheckCast@StringObject@v8@@CAXPEAVValue@2@@Z
  ?CheckCast@Symbol@v8@@CAXPEAVData@2@@Z
  ?CheckCast@SymbolObject@v8@@CAXPEAVValue@2@@Z
  ?CheckCast@TypedArray@v8@@CAXPEAVValue@2@@Z
  ?CheckCast@Uint16Array@v8@@CAXPEAVValue@2@@Z
  ?CheckCast@Uint32@v8@@CAXPEAVData@2@@Z
  ?CheckCast@Uint32Array@v8@@CAXPEAVValue@2@@Z
  ?CheckCast@Uint8Array@v8@@CAXPEAVValue@2@@Z
  ?CheckCast@Uint8ClampedArray@v8@@CAXPEAVValue@2@@Z
  ?CheckCast@Value@v8@@CAXPEAVData@2@@Z
  ?CheckCast@WasmMemoryObject@v8@@CAXPEAVValue@2@@Z
  ?CheckCast@WasmModuleObject@v8@@CAXPEAVValue@2@@Z
  ?CheckCast@WasmValueObject@debug@v8@@CAXPEAVValue@3@@Z
  ?CheckCharacter@RegExpBytecodeGenerator@internal@v8@@UEAAXIPEAVLabel@23@@Z
  ?CheckCharacter@RegExpMacroAssemblerX64@internal@v8@@UEAAXIPEAVLabel@23@@Z
  ?CheckCharacterAfterAnd@RegExpBytecodeGenerator@internal@v8@@UEAAXIIPEAVLabel@23@@Z
  ?CheckCharacterAfterAnd@RegExpMacroAssemblerX64@internal@v8@@UEAAXIIPEAVLabel@23@@Z
  ?CheckCharacterGT@RegExpBytecodeGenerator@internal@v8@@UEAAXGPEAVLabel@23@@Z
  ?CheckCharacterGT@RegExpMacroAssemblerX64@internal@v8@@UEAAXGPEAVLabel@23@@Z
  ?CheckCharacterInRange@RegExpBytecodeGenerator@internal@v8@@UEAAXGGPEAVLabel@23@@Z
  ?CheckCharacterInRange@RegExpMacroAssemblerX64@internal@v8@@UEAAXGGPEAVLabel@23@@Z
  ?CheckCharacterInRangeArray@RegExpBytecodeGenerator@internal@v8@@UEAA_NPEBV?$ZoneList@VCharacterRange@internal@v8@@@23@PEAVLabel@23@@Z
  ?CheckCharacterInRangeArray@RegExpMacroAssemblerX64@internal@v8@@UEAA_NPEBV?$ZoneList@VCharacterRange@internal@v8@@@23@PEAVLabel@23@@Z
  ?CheckCharacterLT@RegExpBytecodeGenerator@internal@v8@@UEAAXGPEAVLabel@23@@Z
  ?CheckCharacterLT@RegExpMacroAssemblerX64@internal@v8@@UEAAXGPEAVLabel@23@@Z
  ?CheckCharacterNotInRange@RegExpBytecodeGenerator@internal@v8@@UEAAXGGPEAVLabel@23@@Z
  ?CheckCharacterNotInRange@RegExpMacroAssemblerX64@internal@v8@@UEAAXGGPEAVLabel@23@@Z
  ?CheckCharacterNotInRangeArray@RegExpBytecodeGenerator@internal@v8@@UEAA_NPEBV?$ZoneList@VCharacterRange@internal@v8@@@23@PEAVLabel@23@@Z
  ?CheckCharacterNotInRangeArray@RegExpMacroAssemblerX64@internal@v8@@UEAA_NPEBV?$ZoneList@VCharacterRange@internal@v8@@@23@PEAVLabel@23@@Z
  ?CheckClassFieldName@?$ParserBase@VParser@internal@v8@@@internal@v8@@IEAAXPEBVAstRawString@23@_N@Z
  ?CheckClassMethodName@?$ParserBase@VParser@internal@v8@@@internal@v8@@IEAAXPEBVAstRawString@23@W4ParsePropertyKind@23@V?$Flags@W4ParseFunctionFlag@internal@v8@@H@base@3@_NPEA_N@Z
  ?CheckClosure@SimplifiedOperatorBuilder@compiler@internal@v8@@QEAAPEBVOperator@234@AEBV?$Handle@VFeedbackCell@internal@v8@@@34@@Z
  ?CheckConflictingVarDeclarations@?$ParserBase@VParser@internal@v8@@@internal@v8@@IEAAXPEAVDeclarationScope@23@@Z
  ?CheckConflictingVarDeclarations@DeclarationScope@internal@v8@@QEAAPEAVDeclaration@23@PEA_N@Z
  ?CheckContextualKeyword@?$ParserBase@VParser@internal@v8@@@internal@v8@@IEAA_NPEBVAstRawString@23@@Z
  ?CheckDeoptMarkedAllocationSites@StackGuard@internal@v8@@QEAA_NXZ
  ?CheckDetachedContextsAfterGC@Isolate@internal@v8@@QEAAXXZ
  ?CheckEqualsInternalizedString@SimplifiedOperatorBuilder@compiler@internal@v8@@QEAAPEBVOperator@234@XZ
  ?CheckEqualsSymbol@SimplifiedOperatorBuilder@compiler@internal@v8@@QEAAPEBVOperator@234@XZ
  ?CheckExecutionState@Debug@internal@v8@@QEAA_NXZ
  ?CheckFlagsForFunctionFromScript@ParseInfo@internal@v8@@QEAAXVScript@23@@Z
  ?CheckFlagsForToplevelCompileFromScript@ParseInfo@internal@v8@@AEAAXVScript@23@_N@Z
  ?CheckFloat64Hole@OperationTyper@compiler@internal@v8@@QEAA?AVType@234@V5234@@Z
  ?CheckFloat64Hole@SimplifiedOperatorBuilder@compiler@internal@v8@@QEAAPEBVOperator@234@W4CheckFloat64HoleMode@234@AEBUFeedbackSource@234@@Z
  ?CheckFloatingPointParameters@CallInterfaceDescriptor@internal@v8@@IEAA_NPEAVCallInterfaceDescriptorData@23@@Z
  ?CheckFunctionName@?$ParserBase@VParser@internal@v8@@@internal@v8@@IEAAXW4LanguageMode@23@PEBVAstRawString@23@W4FunctionNameValidity@23@AEBULocation@Scanner@23@@Z
  ?CheckGC@StackGuard@internal@v8@@QEAA_NXZ
  ?CheckGreedyLoop@RegExpBytecodeGenerator@internal@v8@@UEAAXPEAVLabel@23@@Z
  ?CheckGreedyLoop@RegExpMacroAssemblerX64@internal@v8@@UEAAXPEAVLabel@23@@Z
  ?CheckGrowSharedMemory@StackGuard@internal@v8@@QEAA_NXZ
  ?CheckHardwareSupportsSimd@wasm@internal@v8@@YA_NXZ
  ?CheckHeapObject@SimplifiedOperatorBuilder@compiler@internal@v8@@QEAAPEBVOperator@234@XZ
  ?CheckIf@JSGraphAssembler@compiler@internal@v8@@QEAAPEAVNode@234@PEAV5234@W4DeoptimizeReason@34@@Z
  ?CheckIf@SimplifiedOperatorBuilder@compiler@internal@v8@@QEAAPEBVOperator@234@W4DeoptimizeReason@34@AEBUFeedbackSource@234@@Z
  ?CheckIfConstructor@JSCallReducer@compiler@internal@v8@@AEAAXPEAVNode@234@@Z
  ?CheckIfElementsKind@JSCallReducer@compiler@internal@v8@@AEAAXPEAVNode@234@W4ElementsKind@34@0PEAPEAV5234@2@Z
  ?CheckInOrOf@?$ParserBase@VParser@internal@v8@@@internal@v8@@IEAA_NPEAW4VisitMode@ForEachStatement@23@@Z
  ?CheckInitializedImpl@Internals@internal@v8@@SAXPEAVIsolate@3@@Z
  ?CheckInstallBaselineCode@StackGuard@internal@v8@@QEAA_NXZ
  ?CheckInstallCode@StackGuard@internal@v8@@QEAA_NXZ
  ?CheckInstallMaglevCode@StackGuard@internal@v8@@QEAA_NXZ
  ?CheckInternalizedString@SimplifiedOperatorBuilder@compiler@internal@v8@@QEAAPEBVOperator@234@XZ
  ?CheckInterrupt@StackGuard@internal@v8@@AEAA_NW4InterruptFlag@123@@Z
  ?CheckIsolateLayout@Isolate@internal@v8@@AEAAXXZ
  ?CheckLogWasmCode@StackGuard@internal@v8@@QEAA_NXZ
  ?CheckMaps@SimplifiedOperatorBuilder@compiler@internal@v8@@QEAAPEBVOperator@234@V?$Flags@W4CheckMapsFlag@compiler@internal@v8@@H@base@4@V?$ZoneHandleSet@VMap@internal@v8@@@34@AEBUFeedbackSource@234@@Z
  ?CheckMemoryIsZeroed@GCInfoTable@internal@cppgc@@AEAAXPEA_K_K@Z
  ?CheckMinusZeroParametersOf@compiler@internal@v8@@YAAEBVCheckMinusZeroParameters@123@PEBVOperator@123@@Z
  ?CheckNoArrayBufferBackingStores@?$Deserializer@VIsolate@internal@v8@@@internal@v8@@IEAAXXZ
  ?CheckNoArrayBufferBackingStores@?$Deserializer@VLocalIsolate@internal@v8@@@internal@v8@@IEAAXXZ
  ?CheckNoDirtyFinalizationRegistries@StartupSerializer@internal@v8@@QEAAXXZ
  ?CheckNotAtStart@RegExpBytecodeGenerator@internal@v8@@UEAAXHPEAVLabel@23@@Z
  ?CheckNotAtStart@RegExpMacroAssemblerX64@internal@v8@@UEAAXHPEAVLabel@23@@Z
  ?CheckNotBackReference@RegExpBytecodeGenerator@internal@v8@@UEAAXH_NPEAVLabel@23@@Z
  ?CheckNotBackReference@RegExpMacroAssemblerX64@internal@v8@@UEAAXH_NPEAVLabel@23@@Z
  ?CheckNotBackReferenceIgnoreCase@RegExpBytecodeGenerator@internal@v8@@UEAAXH_N0PEAVLabel@23@@Z
  ?CheckNotBackReferenceIgnoreCase@RegExpMacroAssemblerX64@internal@v8@@UEAAXH_N0PEAVLabel@23@@Z
  ?CheckNotCharacter@RegExpBytecodeGenerator@internal@v8@@UEAAXIPEAVLabel@23@@Z
  ?CheckNotCharacter@RegExpMacroAssemblerX64@internal@v8@@UEAAXIPEAVLabel@23@@Z
  ?CheckNotCharacterAfterAnd@RegExpBytecodeGenerator@internal@v8@@UEAAXIIPEAVLabel@23@@Z
  ?CheckNotCharacterAfterAnd@RegExpMacroAssemblerX64@internal@v8@@UEAAXIIPEAVLabel@23@@Z
  ?CheckNotCharacterAfterMinusAnd@RegExpBytecodeGenerator@internal@v8@@UEAAXGGGPEAVLabel@23@@Z
  ?CheckNotCharacterAfterMinusAnd@RegExpMacroAssemblerX64@internal@v8@@UEAAXGGGPEAVLabel@23@@Z
  ?CheckNotTaggedHole@SimplifiedOperatorBuilder@compiler@internal@v8@@QEAAPEBVOperator@234@XZ
  ?CheckNumber@OperationTyper@compiler@internal@v8@@QEAA?AVType@234@V5234@@Z
  ?CheckNumber@SimplifiedOperatorBuilder@compiler@internal@v8@@QEAAPEBVOperator@234@AEBUFeedbackSource@234@@Z
  ?CheckObjectType@internal@v8@@YA_K_K00@Z
  ?CheckPageFlag@TurboAssembler@internal@v8@@QEAAXVRegister@23@0HW4Condition@23@PEAVLabel@23@W4Distance@623@@Z
  ?CheckParams@WriteBarrier@internal@cppgc@@SAXW4Type@123@AEBUParams@123@@Z
  ?CheckPointerImpl@SameThreadEnabledCheckingPolicyBase@internal@cppgc@@IEAAXPEBX_N1@Z
  ?CheckPosition@RegExpMacroAssemblerX64@internal@v8@@UEAAXHPEAVLabel@23@@Z
  ?CheckPossibleEvalCall@?$ParserBase@VParser@internal@v8@@@internal@v8@@IEAA?AW4PossiblyEval@Call@23@PEAVExpression@23@_NPEAVScope@23@@Z
  ?CheckPreemption@RegExpMacroAssemblerX64@internal@v8@@AEAAXXZ
  ?CheckReceiver@SimplifiedOperatorBuilder@compiler@internal@v8@@QEAAPEBVOperator@234@XZ
  ?CheckReceiverOrNullOrUndefined@SimplifiedOperatorBuilder@compiler@internal@v8@@QEAAPEBVOperator@234@XZ
  ?CheckRegion@RegionAllocator@base@v8@@QEAA_K_K@Z
  ?CheckRehashability@ContextSerializer@internal@v8@@AEAAXVHeapObject@23@@Z
  ?CheckSmi@SimplifiedOperatorBuilder@compiler@internal@v8@@QEAAPEBVOperator@234@AEBUFeedbackSource@234@@Z
  ?CheckSmi@TurboAssembler@internal@v8@@QEAA?AW4Condition@23@VOperand@23@@Z
  ?CheckSmi@TurboAssembler@internal@v8@@QEAA?AW4Condition@23@VRegister@23@@Z
  ?CheckSpecialCharacterClass@RegExpMacroAssemblerX64@internal@v8@@UEAA_NW4StandardCharacterSet@23@PEAVLabel@23@@Z
  ?CheckStackAlignment@TurboAssembler@internal@v8@@QEAAXXZ
  ?CheckStackGuardState@RegExpMacroAssemblerX64@internal@v8@@SAHPEA_K_K1@Z
  ?CheckStackLimit@RegExpMacroAssemblerX64@internal@v8@@AEAAXXZ
  ?CheckStackOverflow@?$ParserBase@VParser@internal@v8@@@internal@v8@@IEAAXXZ
  ?CheckStrictOctalLiteral@?$ParserBase@VParser@internal@v8@@@internal@v8@@IEAAXHH@Z
  ?CheckString@SimplifiedOperatorBuilder@compiler@internal@v8@@QEAAPEBVOperator@234@AEBUFeedbackSource@234@@Z
  ?CheckSubsample@CpuProfile@internal@v8@@QEAA_NVTimeDelta@base@3@@Z
  ?CheckSymbol@SimplifiedOperatorBuilder@compiler@internal@v8@@QEAAPEBVOperator@234@XZ
  ?CheckTemplateEscapes@?$ParserBase@VParser@internal@v8@@@internal@v8@@IEAA_N_N@Z
  ?CheckTerminateExecution@StackGuard@internal@v8@@QEAA_NXZ
  ?CheckValue@TracedReferenceBase@v8@@IEBAXXZ
  ?CheckWasmCodeGC@StackGuard@internal@v8@@QEAA_NXZ
  ?CheckedFloat64ToInt32@SimplifiedOperatorBuilder@compiler@internal@v8@@QEAAPEBVOperator@234@W4CheckForMinusZeroMode@234@AEBUFeedbackSource@234@@Z
  ?CheckedFloat64ToInt64@SimplifiedOperatorBuilder@compiler@internal@v8@@QEAAPEBVOperator@234@W4CheckForMinusZeroMode@234@AEBUFeedbackSource@234@@Z
  ?CheckedInt32Add@SimplifiedOperatorBuilder@compiler@internal@v8@@QEAAPEBVOperator@234@XZ
  ?CheckedInt32Div@SimplifiedOperatorBuilder@compiler@internal@v8@@QEAAPEBVOperator@234@XZ
  ?CheckedInt32Mod@SimplifiedOperatorBuilder@compiler@internal@v8@@QEAAPEBVOperator@234@XZ
  ?CheckedInt32Mul@SimplifiedOperatorBuilder@compiler@internal@v8@@QEAAPEBVOperator@234@W4CheckForMinusZeroMode@234@@Z
  ?CheckedInt32Sub@SimplifiedOperatorBuilder@compiler@internal@v8@@QEAAPEBVOperator@234@XZ
  ?CheckedInt32ToTaggedSigned@SimplifiedOperatorBuilder@compiler@internal@v8@@QEAAPEBVOperator@234@AEBUFeedbackSource@234@@Z
  ?CheckedInt64ToInt32@SimplifiedOperatorBuilder@compiler@internal@v8@@QEAAPEBVOperator@234@AEBUFeedbackSource@234@@Z
  ?CheckedInt64ToTaggedSigned@SimplifiedOperatorBuilder@compiler@internal@v8@@QEAAPEBVOperator@234@AEBUFeedbackSource@234@@Z
  ?CheckedTaggedSignedToInt32@SimplifiedOperatorBuilder@compiler@internal@v8@@QEAAPEBVOperator@234@AEBUFeedbackSource@234@@Z
  ?CheckedTaggedToArrayIndex@SimplifiedOperatorBuilder@compiler@internal@v8@@QEAAPEBVOperator@234@AEBUFeedbackSource@234@@Z
  ?CheckedTaggedToFloat64@SimplifiedOperatorBuilder@compiler@internal@v8@@QEAAPEBVOperator@234@W4CheckTaggedInputMode@234@AEBUFeedbackSource@234@@Z
  ?CheckedTaggedToInt32@SimplifiedOperatorBuilder@compiler@internal@v8@@QEAAPEBVOperator@234@W4CheckForMinusZeroMode@234@AEBUFeedbackSource@234@@Z
  ?CheckedTaggedToInt64@SimplifiedOperatorBuilder@compiler@internal@v8@@QEAAPEBVOperator@234@W4CheckForMinusZeroMode@234@AEBUFeedbackSource@234@@Z
  ?CheckedTaggedToTaggedPointer@SimplifiedOperatorBuilder@compiler@internal@v8@@QEAAPEBVOperator@234@AEBUFeedbackSource@234@@Z
  ?CheckedTaggedToTaggedSigned@SimplifiedOperatorBuilder@compiler@internal@v8@@QEAAPEBVOperator@234@AEBUFeedbackSource@234@@Z
  ?CheckedTruncateTaggedToWord32@SimplifiedOperatorBuilder@compiler@internal@v8@@QEAAPEBVOperator@234@W4CheckTaggedInputMode@234@AEBUFeedbackSource@234@@Z
  ?CheckedUint32Bounds@SimplifiedOperatorBuilder@compiler@internal@v8@@QEAAPEBVOperator@234@AEBUFeedbackSource@234@V?$Flags@W4CheckBoundsFlag@compiler@internal@v8@@H@base@4@@Z
  ?CheckedUint32Div@SimplifiedOperatorBuilder@compiler@internal@v8@@QEAAPEBVOperator@234@XZ
  ?CheckedUint32Mod@SimplifiedOperatorBuilder@compiler@internal@v8@@QEAAPEBVOperator@234@XZ
  ?CheckedUint32ToInt32@SimplifiedOperatorBuilder@compiler@internal@v8@@QEAAPEBVOperator@234@AEBUFeedbackSource@234@@Z
  ?CheckedUint32ToTaggedSigned@SimplifiedOperatorBuilder@compiler@internal@v8@@QEAAPEBVOperator@234@AEBUFeedbackSource@234@@Z
  ?CheckedUint64Bounds@SimplifiedOperatorBuilder@compiler@internal@v8@@QEAAPEBVOperator@234@AEBUFeedbackSource@234@V?$Flags@W4CheckBoundsFlag@compiler@internal@v8@@H@base@4@@Z
  ?CheckedUint64ToInt32@SimplifiedOperatorBuilder@compiler@internal@v8@@QEAAPEBVOperator@234@AEBUFeedbackSource@234@@Z
  ?CheckedUint64ToTaggedSigned@SimplifiedOperatorBuilder@compiler@internal@v8@@QEAAPEBVOperator@234@AEBUFeedbackSource@234@@Z
  ?Checkpoint@CommonOperatorBuilder@compiler@internal@v8@@QEAAPEBVOperator@234@XZ
  ?Checkpoint@GraphAssembler@compiler@internal@v8@@QEAAPEAVNode@234@VFrameState@234@@Z
  ?Checksum@internal@v8@@YAIV?$Vector@$$CBE@base@2@@Z
  ?Clamp@Bignum@base@v8@@AEAAXXZ
  ?Class@FieldType@internal@v8@@SA?AV123@VMap@23@@Z
  ?Class@FieldType@internal@v8@@SA?AV?$Handle@VFieldType@internal@v8@@@23@V?$Handle@VMap@internal@v8@@@23@PEAVIsolate@23@@Z
  ?ClassConstructor@Type@compiler@internal@v8@@SA?AV1234@XZ
  ?ClassFieldVariableName@?$ParserBase@VParser@internal@v8@@@internal@v8@@IEAAPEBVAstRawString@23@PEAVAstValueFactory@23@H@Z
  ?ClassFieldsSymbolConstantPoolEntry@BytecodeArrayBuilder@interpreter@internal@v8@@QEAA_KXZ
  ?ClassOf@ControlEquivalence@compiler@internal@v8@@QEAA_KPEAVNode@234@@Z
  ?ClassPropertyKindFor@?$ParserBase@VParser@internal@v8@@@internal@v8@@IEAA?AW4Kind@ClassLiteralProperty@23@W4ParsePropertyKind@23@@Z
  ?ClassifyArrowParameter@?$ParserBase@VParser@internal@v8@@@internal@v8@@IEAAXPEAV?$AccumulationScope@U?$ParserTypes@VParser@internal@v8@@@internal@v8@@@23@HPEAVExpression@23@@Z
  ?ClassifyParameter@?$ParserBase@VParser@internal@v8@@@internal@v8@@IEAAXPEBVAstRawString@23@HH@Z
  ?ClassifyPropertyIdentifier@?$ParserBase@VParser@internal@v8@@@internal@v8@@IEAA_NW4Value@Token@23@PEAUParsePropertyInfo@123@@Z
  ?CleanupOnStackReferencesBelowCurrentStackPosition@GlobalHandles@internal@v8@@QEAAXXZ
  ?Clear@?$OrderedHashTable@VOrderedHashMap@internal@v8@@$01@internal@v8@@SA?AV?$Handle@VOrderedHashMap@internal@v8@@@23@PEAVIsolate@23@V423@@Z
  ?Clear@?$OrderedHashTable@VOrderedHashSet@internal@v8@@$00@internal@v8@@SA?AV?$Handle@VOrderedHashSet@internal@v8@@@23@PEAVIsolate@23@V423@@Z
  ?Clear@?$OrderedHashTable@VOrderedNameDictionary@internal@v8@@$02@internal@v8@@SA?AV?$Handle@VOrderedNameDictionary@internal@v8@@@23@PEAVIsolate@23@V423@@Z
  ?Clear@ActiveSystemPages@base@heap@@QEAA_KXZ
  ?Clear@AddressToTraceMap@internal@v8@@QEAAXXZ
  ?Clear@BackingStore@internal@v8@@AEAAXXZ
  ?Clear@BitVector@internal@v8@@QEAAXXZ
  ?Clear@CodeMap@internal@v8@@QEAAXXZ
  ?Clear@CodeObjectRegistry@internal@v8@@QEAAXXZ
  ?Clear@CompilationCache@internal@v8@@QEAAXXZ
  ?Clear@FeedbackNexus@internal@v8@@QEAA_NXZ
  ?Clear@FreeList@internal@cppgc@@QEAAXXZ
  ?Clear@IdentityMapBase@internal@v8@@IEAAXXZ
  ?Clear@Map@v8@@QEAAXXZ
  ?Clear@MarkingWorklists@internal@v8@@QEAAXXZ
  ?Clear@NativeContextStats@internal@v8@@QEAAXXZ
  ?Clear@OSROptimizedCodeCache@internal@v8@@SAXPEAVIsolate@23@VNativeContext@23@@Z
  ?Clear@ObjectStartBitmap@internal@cppgc@@QEAAXXZ
  ?Clear@SegmentBase@internal@base@heap@@QEAAXXZ
  ?Clear@Set@v8@@QEAAXXZ
  ?Clear@StubCache@internal@v8@@QEAAXXZ
  ?Clear@WeakCodeRegistry@internal@v8@@QEAAXXZ
  ?ClearAllBreakPoints@Debug@internal@v8@@AEAAXXZ
  ?ClearAllDebugInfos@Debug@internal@v8@@AEAAXAEBV?$function@$$A6AXV?$Handle@VDebugInfo@internal@v8@@@internal@v8@@@Z@std@@@Z
  ?ClearAllDebuggerHints@Debug@internal@v8@@AEAAXXZ
  ?ClearAllUsedNodes@CrossThreadPersistentRegion@internal@cppgc@@QEAAXXZ
  ?ClearAllUsedNodes@PersistentRegionBase@internal@cppgc@@QEAAXXZ
  ?ClearAllWorklistsForTesting@MarkerBase@internal@cppgc@@QEAAXXZ
  ?ClearAllocatorState@PagedSpace@internal@v8@@QEAAXXZ
  ?ClearApiInterrupt@StackGuard@internal@v8@@QEAAXXZ
  ?ClearBlockById@Schedule@compiler@internal@v8@@QEAAXVId@BasicBlock@234@@Z
  ?ClearBreakInfo@DebugInfo@internal@v8@@QEAAXPEAVIsolate@23@@Z
  ?ClearBreakOnNextFunctionCall@Debug@internal@v8@@QEAAXXZ
  ?ClearBreakOnNextFunctionCall@debug@v8@@YAXPEAVIsolate@2@@Z
  ?ClearBreakPoint@Debug@internal@v8@@QEAAXV?$Handle@VBreakPoint@internal@v8@@@23@@Z
  ?ClearBreakPoint@WasmScript@internal@v8@@SA_NV?$Handle@VScript@internal@v8@@@23@HV?$Handle@VBreakPoint@internal@v8@@@23@@Z
  ?ClearBreakPointById@WasmScript@internal@v8@@SA_NV?$Handle@VScript@internal@v8@@@23@H@Z
  ?ClearBreakPoints@Debug@internal@v8@@AEAAXV?$Handle@VDebugInfo@internal@v8@@@23@@Z
  ?ClearCachesForTesting@Isolate@v8@@QEAAXXZ
  ?ClearCodeMap@ProfilerCodeObserver@internal@v8@@QEAAXXZ
  ?ClearCodesInRange@CodeMap@internal@v8@@QEAAX_K0@Z
  ?ClearDataTableEntry@SwissNameDictionary@internal@v8@@AEAAXPEAVIsolate@23@H@Z
  ?ClearDebugBreak@BreakIterator@internal@v8@@QEAAXXZ
  ?ClearDeoptMarkedAllocationSites@StackGuard@internal@v8@@QEAAXXZ
  ?ClearEmbeddedBlob@Isolate@internal@v8@@AEAAXXZ
  ?ClearEntry@?$Dictionary@VGlobalDictionary@internal@v8@@VGlobalDictionaryShape@23@@internal@v8@@QEAAXVInternalIndex@23@@Z
  ?ClearEntry@?$Dictionary@VNameDictionary@internal@v8@@VNameDictionaryShape@23@@internal@v8@@QEAAXVInternalIndex@23@@Z
  ?ClearEntry@?$Dictionary@VNumberDictionary@internal@v8@@VNumberDictionaryShape@23@@internal@v8@@QEAAXVInternalIndex@23@@Z
  ?ClearEntry@?$Dictionary@VSimpleNumberDictionary@internal@v8@@VSimpleNumberDictionaryShape@23@@internal@v8@@QEAAXVInternalIndex@23@@Z
  ?ClearEntry@GlobalDictionary@internal@v8@@QEAAXVInternalIndex@23@@Z
  ?ClearEntry@OSROptimizedCodeCache@internal@v8@@AEAAXHPEAVIsolate@23@@Z
  ?ClearForThread@WriteBarrier@internal@v8@@SAXPEAVMarkingBarrier@23@@Z
  ?ClearGC@StackGuard@internal@v8@@QEAAXXZ
  ?ClearGrowSharedMemory@StackGuard@internal@v8@@QEAAXXZ
  ?ClearInputs@Node@compiler@internal@v8@@AEAAXHH@Z
  ?ClearInstallBaselineCode@StackGuard@internal@v8@@QEAAXXZ
  ?ClearInstallCode@StackGuard@internal@v8@@QEAAXXZ
  ?ClearInstallMaglevCode@StackGuard@internal@v8@@QEAAXXZ
  ?ClearInterrupt@StackGuard@internal@v8@@AEAAXW4InterruptFlag@123@@Z
  ?ClearInvalidSlots@TypedSlotSet@internal@v8@@QEAAXAEBV?$map@IIU?$less@I@std@@V?$allocator@U?$pair@$$CBII@std@@@2@@std@@@Z
  ?ClearKeptObjects@Isolate@internal@v8@@QEAAXXZ
  ?ClearKeptObjects@Isolate@v8@@QEAAXXZ
  ?ClearLiteral@UnoptimizedCompilationInfo@internal@v8@@QEAAXXZ
  ?ClearLogWasmCode@StackGuard@internal@v8@@QEAAXXZ
  ?ClearMemoryChunkData@ConcurrentMarking@internal@v8@@QEAAXPEAVMemoryChunk@23@@Z
  ?ClearMentionedObjectCache@StringStream@internal@v8@@SAXPEAVIsolate@23@@Z
  ?ClearObjectIds@HeapProfiler@v8@@QEAAXXZ
  ?ClearOneShot@Debug@internal@v8@@AEAAXXZ
  ?ClearPredecessors@BasicBlock@compiler@internal@v8@@QEAAXXZ
  ?ClearReconstructableDataForSerialization@Snapshot@internal@v8@@SAXPEAVIsolate@23@_N@Z
  ?ClearRegisters@RegExpBytecodeGenerator@internal@v8@@UEAAXHH@Z
  ?ClearRegisters@RegExpMacroAssemblerX64@internal@v8@@UEAAXHH@Z
  ?ClearSegment@DateCache@internal@v8@@AEAAXPEAUDST@123@@Z
  ?ClearSerializerData@Isolate@internal@v8@@QEAAXXZ
  ?ClearSideEffectChecks@Debug@internal@v8@@QEAAXV?$Handle@VDebugInfo@internal@v8@@@23@@Z
  ?ClearStepping@Debug@internal@v8@@QEAAXXZ
  ?ClearStepping@DebugInfo@wasm@internal@v8@@QEAAXPEAVIsolate@34@@Z
  ?ClearStepping@DebugInfo@wasm@internal@v8@@QEAAXPEAVWasmFrame@34@@Z
  ?ClearStringPaddingIfNeeded@ReadOnlySpace@internal@v8@@QEAAXXZ
  ?ClearSuccessors@BasicBlock@compiler@internal@v8@@QEAAXXZ
  ?ClearTerminateExecution@StackGuard@internal@v8@@QEAAXXZ
  ?ClearWasmCodeGC@StackGuard@internal@v8@@QEAAXXZ
  ?ClearWeak@api_internal@v8@@YAPEAXPEA_K@Z
  ?ClearWeakness@GlobalHandles@internal@v8@@SAPEAXPEA_K@Z
  ?ClearedTypedSlot@TypedSlotSet@internal@v8@@CA?AUTypedSlot@TypedSlots@23@XZ
  ?ClobbersDoubleRegisters@Instruction@compiler@internal@v8@@QEBA_NXZ
  ?ClobbersRegisters@Instruction@compiler@internal@v8@@QEBA_NXZ
  ?ClobbersTemps@Instruction@compiler@internal@v8@@QEBA_NXZ
  ?Clone@Node@compiler@internal@v8@@SAPEAV1234@PEAVZone@34@IPEBV1234@@Z
  ?Clone@Object@v8@@QEAA?AV?$Local@VObject@v8@@@2@XZ
  ?CloneNode@Graph@compiler@internal@v8@@QEAAPEAVNode@234@PEBV5234@@Z
  ?CloneObject@BytecodeArrayBuilder@interpreter@internal@v8@@QEAAAEAV1234@VRegister@234@HH@Z
  ?CloneObject@JSOperatorBuilder@compiler@internal@v8@@QEAAPEBVOperator@234@AEBUFeedbackSource@234@H@Z
  ?CloneScript@Factory@internal@v8@@QEAA?AV?$Handle@VScript@internal@v8@@@23@V423@@Z
  ?CloneSharedFunctionInfo@?$FactoryBase@VFactory@internal@v8@@@internal@v8@@QEAA?AV?$Handle@VSharedFunctionInfo@internal@v8@@@23@V423@@Z
  ?CloneSharedFunctionInfo@?$FactoryBase@VLocalFactory@internal@v8@@@internal@v8@@QEAA?AV?$Handle@VSharedFunctionInfo@internal@v8@@@23@V423@@Z
  ?Close@AllowCompilation@internal@v8@@SAXPEAVIsolate@23@_N@Z
  ?Close@AllowDeoptimization@internal@v8@@SAXPEAVIsolate@23@_N@Z
  ?Close@AllowExceptions@internal@v8@@SAXPEAVIsolate@23@_N@Z
  ?Close@AllowJavascriptExecution@internal@v8@@SAXPEAVIsolate@23@_N@Z
  ?Close@DisallowCompilation@internal@v8@@SAXPEAVIsolate@23@_N@Z
  ?Close@DisallowDeoptimization@internal@v8@@SAXPEAVIsolate@23@_N@Z
  ?Close@DisallowExceptions@internal@v8@@SAXPEAVIsolate@23@_N@Z
  ?Close@DisallowJavascriptExecution@internal@v8@@SAXPEAVIsolate@23@_N@Z
  ?Close@DumpOnJavascriptExecution@internal@v8@@SAXPEAVIsolate@23@_N@Z
  ?Close@NoDumpOnJavascriptExecution@internal@v8@@SAXPEAVIsolate@23@_N@Z
  ?Close@NoThrowOnJavascriptExecution@internal@v8@@SAXPEAVIsolate@23@_N@Z
  ?Close@ThrowOnJavascriptExecution@internal@v8@@SAXPEAVIsolate@23@_N@Z
  ?CloseAndMakeIterable@LocalAllocationBuffer@internal@v8@@QEAA?AVLinearAllocationArea@23@XZ
  ?CloseMainThreadScope@LocalHandleScope@internal@v8@@CAXPEAVLocalHeap@23@PEA_K1@Z
  ?CloseTemplateLiteral@Parser@internal@v8@@AEAAPEAVExpression@23@PEAPEAVTemplateLiteral@123@HPEAV423@@Z
  ?Cmp@MacroAssembler@internal@v8@@QEAAXVOperand@23@V?$Handle@VObject@internal@v8@@@23@@Z
  ?Cmp@MacroAssembler@internal@v8@@QEAAXVRegister@23@V?$Handle@VObject@internal@v8@@@23@@Z
  ?Cmp@TurboAssembler@internal@v8@@QEAAXVOperand@23@VSmi@23@@Z
  ?Cmp@TurboAssembler@internal@v8@@QEAAXVRegister@23@H@Z
  ?Cmp@TurboAssembler@internal@v8@@QEAAXVRegister@23@VSmi@23@@Z
  ?CmpInstanceType@MacroAssembler@internal@v8@@QEAAXVRegister@23@W4InstanceType@23@@Z
  ?CmpInstanceTypeRange@MacroAssembler@internal@v8@@QEAAXVRegister@23@0W4InstanceType@23@1@Z
  ?CmpObjectType@MacroAssembler@internal@v8@@QEAAXVRegister@23@W4InstanceType@23@0@Z
  ?Cmpeqsd@TurboAssembler@internal@v8@@QEAAXVXMMRegister@23@0@Z
  ?Cmpeqss@TurboAssembler@internal@v8@@QEAAXVXMMRegister@23@0@Z
  ?CodeCreateEvent@CodeEventLogger@internal@v8@@UEAAXW4LogEventsAndTags@CodeEventListener@23@PEBVWasmCode@wasm@23@V?$Vector@$$CBD@base@3@PEBDHH@Z
  ?CodeCreateEvent@CodeEventLogger@internal@v8@@UEAAXW4LogEventsAndTags@CodeEventListener@23@V?$Handle@VAbstractCode@internal@v8@@@23@PEBD@Z
  ?CodeCreateEvent@CodeEventLogger@internal@v8@@UEAAXW4LogEventsAndTags@CodeEventListener@23@V?$Handle@VAbstractCode@internal@v8@@@23@V?$Handle@VName@internal@v8@@@23@@Z
  ?CodeCreateEvent@CodeEventLogger@internal@v8@@UEAAXW4LogEventsAndTags@CodeEventListener@23@V?$Handle@VAbstractCode@internal@v8@@@23@V?$Handle@VSharedFunctionInfo@internal@v8@@@23@V?$Handle@VName@internal@v8@@@23@@Z
  ?CodeCreateEvent@CodeEventLogger@internal@v8@@UEAAXW4LogEventsAndTags@CodeEventListener@23@V?$Handle@VAbstractCode@internal@v8@@@23@V?$Handle@VSharedFunctionInfo@internal@v8@@@23@V?$Handle@VName@internal@v8@@@23@HH@Z
  ?CodeCreateEvent@ProfilerListener@internal@v8@@UEAAXW4LogEventsAndTags@CodeEventListener@23@PEBVWasmCode@wasm@23@V?$Vector@$$CBD@base@3@PEBDHH@Z
  ?CodeCreateEvent@ProfilerListener@internal@v8@@UEAAXW4LogEventsAndTags@CodeEventListener@23@V?$Handle@VAbstractCode@internal@v8@@@23@PEBD@Z
  ?CodeCreateEvent@ProfilerListener@internal@v8@@UEAAXW4LogEventsAndTags@CodeEventListener@23@V?$Handle@VAbstractCode@internal@v8@@@23@V?$Handle@VName@internal@v8@@@23@@Z
  ?CodeCreateEvent@ProfilerListener@internal@v8@@UEAAXW4LogEventsAndTags@CodeEventListener@23@V?$Handle@VAbstractCode@internal@v8@@@23@V?$Handle@VSharedFunctionInfo@internal@v8@@@23@V?$Handle@VName@internal@v8@@@23@@Z
  ?CodeCreateEvent@ProfilerListener@internal@v8@@UEAAXW4LogEventsAndTags@CodeEventListener@23@V?$Handle@VAbstractCode@internal@v8@@@23@V?$Handle@VSharedFunctionInfo@internal@v8@@@23@V?$Handle@VName@internal@v8@@@23@HH@Z
  ?CodeDeoptEvent@CodeEventLogger@internal@v8@@UEAAXV?$Handle@VCode@internal@v8@@@23@W4DeoptimizeKind@23@_KH@Z
  ?CodeDeoptEvent@ProfilerListener@internal@v8@@UEAAXV?$Handle@VCode@internal@v8@@@23@W4DeoptimizeKind@23@_KH@Z
  ?CodeDependencyChangeEvent@CodeEventLogger@internal@v8@@UEAAXV?$Handle@VCode@internal@v8@@@23@V?$Handle@VSharedFunctionInfo@internal@v8@@@23@PEBD@Z
  ?CodeDependencyChangeEvent@ProfilerListener@internal@v8@@UEAAXV?$Handle@VCode@internal@v8@@@23@V?$Handle@VSharedFunctionInfo@internal@v8@@@23@PEBD@Z
  ?CodeDisableOptEvent@ProfilerListener@internal@v8@@UEAAXV?$Handle@VAbstractCode@internal@v8@@@23@V?$Handle@VSharedFunctionInfo@internal@v8@@@23@@Z
  ?CodeEntry@TurboAssembler@internal@v8@@QEAAXXZ
  ?CodeEventHandler@ProfilerCodeObserver@internal@v8@@UEAAXAEBVCodeEventsContainer@23@@Z
  ?CodeEventHandler@ProfilerEventsProcessor@internal@v8@@UEAAXAEBVCodeEventsContainer@23@@Z
  ?CodeEventHandlerInternal@ProfilerCodeObserver@internal@v8@@AEAAXAEBVCodeEventsContainer@23@@Z
  ?CodeMoveEvent@ProfilerListener@internal@v8@@UEAAXVAbstractCode@23@0@Z
  ?CodeMovingGCEvent@CodeEventLogger@internal@v8@@UEAAXXZ
  ?CodeMovingGCEvent@ProfilerListener@internal@v8@@UEAAXXZ
  ?CodeObject@TurboAssemblerBase@internal@v8@@QEBA?AV?$Handle@VHeapObject@internal@v8@@@23@XZ
  ?CodePageGuardSize@MemoryChunkLayout@internal@v8@@SA_KXZ
  ?CodePageGuardStartOffset@MemoryChunkLayout@internal@v8@@SA_KXZ
  ?CodeSweepEvent@ProfilerListener@internal@v8@@QEAAXXZ
  ?CodeTargetAlign@Assembler@internal@v8@@QEAAXXZ
  ?CollapseNaryExpression@Parser@internal@v8@@AEAA_NPEAPEAVExpression@23@PEAV423@W4Value@Token@23@HAEBUSourceRange@23@@Z
  ?Collect@FeedbackNexus@internal@v8@@QEAAXV?$Handle@VString@internal@v8@@@23@H@Z
  ?Collect@TypeProfile@debug@v8@@SA?AV123@PEAVIsolate@3@@Z
  ?CollectAllAvailableGarbage@Heap@internal@v8@@QEAAXW4GarbageCollectionReason@23@@Z
  ?CollectAllGarbage@Heap@internal@v8@@QEAAXHW4GarbageCollectionReason@23@W4GCCallbackFlags@3@@Z
  ?CollectArrayAndObjectPrototypes@JSHeapBroker@compiler@internal@v8@@AEAAXXZ
  ?CollectBestEffort@Coverage@debug@v8@@SA?AV123@PEAVIsolate@3@@Z
  ?CollectControlProjections@NodeProperties@compiler@internal@v8@@SAXPEAVNode@234@PEAPEAV5234@_K@Z
  ?CollectCustomSpaceStatisticsAtLastGC@CppHeap@internal@v8@@QEAAXV?$vector@UCustomSpaceIndex@cppgc@@V?$allocator@UCustomSpaceIndex@cppgc@@@std@@@std@@V?$unique_ptr@VCustomSpaceStatisticsReceiver@v8@@U?$default_delete@VCustomSpaceStatisticsReceiver@v8@@@std@@@5@@Z
  ?CollectCustomSpaceStatisticsAtLastGC@CppHeap@v8@@QEAAXV?$vector@UCustomSpaceIndex@cppgc@@V?$allocator@UCustomSpaceIndex@cppgc@@@std@@@std@@V?$unique_ptr@VCustomSpaceStatisticsReceiver@v8@@U?$default_delete@VCustomSpaceStatisticsReceiver@v8@@@std@@@4@@Z
  ?CollectDeoptInfo@ProfileNode@internal@v8@@QEAAXPEAVCodeEntry@23@@Z
  ?CollectGarbage@GCInvoker@internal@cppgc@@UEAAXUConfig@GarbageCollector@23@@Z
  ?CollectGarbage@Heap@internal@cppgc@@UEAAXUConfig@GarbageCollector@23@@Z
  ?CollectGarbage@Heap@internal@v8@@QEAA_NW4AllocationSpace@23@W4GarbageCollectionReason@23@W4GCCallbackFlags@3@@Z
  ?CollectGarbageForTesting@CppHeap@internal@v8@@QEAAXW4CollectionType@MarkingConfig@MarkerBase@2cppgc@@W4EmbedderStackState@7@@Z
  ?CollectGarbageForTesting@CppHeap@v8@@QEAAXW4EmbedderStackState@cppgc@@@Z
  ?CollectGarbageInYoungGenerationForTesting@CppHeap@v8@@QEAAXW4EmbedderStackState@cppgc@@@Z
  ?CollectGlobalObjectsTags@V8HeapExplorer@internal@v8@@QEAAXXZ
  ?CollectNonLocals@DeclarationScope@internal@v8@@QEAA?AV?$Handle@VStringSet@internal@v8@@@23@PEAVIsolate@23@V423@@Z
  ?CollectNonLocals@Scope@internal@v8@@AEAAXPEAVDeclarationScope@23@PEAVIsolate@23@PEAV?$Handle@VStringSet@internal@v8@@@23@@Z
  ?CollectPrecise@Coverage@debug@v8@@SA?AV123@PEAVIsolate@3@@Z
  ?CollectSample@CpuProfiler@internal@v8@@QEAAXXZ
  ?CollectSample@CpuProfiler@internal@v8@@SAXPEAVIsolate@23@@Z
  ?CollectSample@CpuProfiler@v8@@SAXPEAVIsolate@2@@Z
  ?CollectSharedGarbage@Heap@internal@v8@@QEAAXW4GarbageCollectionReason@23@@Z
  ?CollectSourcePositions@Compiler@internal@v8@@SA_NPEAVIsolate@23@V?$Handle@VSharedFunctionInfo@internal@v8@@@23@@Z
  ?CollectSourcePositionsForAllBytecodeArrays@Isolate@internal@v8@@QEAAXXZ
  ?CollectStatistics@CppHeap@v8@@QEAA?AUHeapStatistics@cppgc@@W4DetailLevel@34@@Z
  ?CollectStatistics@FreeList@internal@cppgc@@QEAAXAEAUFreeListStatistics@HeapStatistics@3@@Z
  ?CollectStatistics@HeapBase@internal@cppgc@@QEAA?AUHeapStatistics@3@W4DetailLevel@43@@Z
  ?CollectTypeProfile@BytecodeArrayBuilder@interpreter@internal@v8@@QEAAAEAV1234@H@Z
  ?CollectValueProjections@NodeProperties@compiler@internal@v8@@SAXPEAVNode@234@PEAPEAV5234@_K@Z
  ?ColumnOffset@ScriptOrigin@v8@@QEBAHXZ
  ?CombineSpeedsInBytesPerMillisecond@GCTracer@internal@v8@@SANNN@Z
  ?CombineSurrogatePair@Scanner@internal@v8@@AEAA_NXZ
  ?CombinedMarkCompactSpeedInBytesPerMillisecond@GCTracer@internal@v8@@QEAANXZ
  ?Comment@CodeAssembler@compiler@internal@v8@@QEAAXPEBD@Z
  ?Comment@CodeAssembler@compiler@internal@v8@@QEAAXV?$basic_string@DU?$char_traits@D@std@@V?$allocator@D@2@@std@@@Z
  ?Comment@MachineOperatorBuilder@compiler@internal@v8@@QEAAPEBVOperator@234@PEBD@Z
  ?Comment@RawMachineAssembler@compiler@internal@v8@@QEAAXAEBV?$basic_string@DU?$char_traits@D@std@@V?$allocator@D@2@@std@@@Z
  ?CommentForOffHeapTrampoline@TurboAssemblerBase@internal@v8@@QEAA?AV?$basic_string@DU?$char_traits@D@std@@V?$allocator@D@2@@std@@PEBDW4Builtin@23@@Z
  ?Commit@CompilationDependencies@compiler@internal@v8@@QEAA_NV?$Handle@VCode@internal@v8@@@34@@Z
  ?Commit@WasmCodeManager@wasm@internal@v8@@AEAAXVAddressRegion@base@4@@Z
  ?CommitFromSpaceIfNeeded@NewSpace@internal@v8@@QEAA_NXZ
  ?CommitPageSize@BoundedPageAllocator@base@v8@@UEAA_KXZ
  ?CommitPageSize@OS@base@v8@@CA_KXZ
  ?CommitPageSize@PageAllocator@base@v8@@UEAA_KXZ
  ?CommitPageSize@internal@v8@@YA_KXZ
  ?CommitReservedEntry@ConstantArrayBuilder@interpreter@internal@v8@@QEAA_KW4OperandSize@234@VSmi@34@@Z
  ?CommitSpillMoves@TopLevelLiveRange@compiler@internal@v8@@QEAAXPEAVTopTierRegisterAllocationData@234@AEBVInstructionOperand@234@@Z
  ?CommittedMemory@BaseSpace@internal@v8@@UEBA_KXZ
  ?CommittedMemory@NewSpace@internal@v8@@UEBA_KXZ
  ?CommittedPhysicalMemory@LargeObjectSpace@internal@v8@@UEBA_KXZ
  ?CommittedPhysicalMemory@MemoryChunk@internal@v8@@QEBA_KXZ
  ?CommittedPhysicalMemory@NewSpace@internal@v8@@UEBA_KXZ
  ?CommittedPhysicalMemory@PagedSpace@internal@v8@@UEBA_KXZ
  ?CommittedPhysicalMemory@ReadOnlySpace@internal@v8@@UEBA_KXZ
  ?Compact@OSROptimizedCodeCache@internal@v8@@SAXPEAVIsolate@23@V?$Handle@VNativeContext@internal@v8@@@23@@Z
  ?Compact@PrototypeUsers@internal@v8@@SA?AVWeakArrayList@23@V?$Handle@VWeakArrayList@internal@v8@@@23@PEAVHeap@23@P6AXVHeapObject@23@HH@ZW4AllocationType@23@@Z
  ?Compact@WeakArrayList@internal@v8@@QEAAXPEAVIsolate@23@@Z
  ?CompactSpacesIfEnabled@Compactor@internal@cppgc@@QEAA?AW4CompactableSpaceHandling@SweepingConfig@Sweeper@23@XZ
  ?CompactWeakArrayList@Factory@internal@v8@@QEAA?AV?$Handle@VWeakArrayList@internal@v8@@@23@V423@HW4AllocationType@23@@Z
  ?CompactionSpeedInBytesPerMillisecond@GCTracer@internal@v8@@QEBANXZ
  ?Compare@Bignum@base@v8@@SAHAEBV123@0@Z
  ?Compare@InstructionOperand@compiler@internal@v8@@QEBA_NAEBV1234@@Z
  ?Compare@Object@internal@v8@@SA?AV?$Maybe@W4ComparisonResult@internal@v8@@@3@PEAVIsolate@23@V?$Handle@VObject@internal@v8@@@23@1@Z
  ?CompareCanonicalized@InstructionOperand@compiler@internal@v8@@QEBA_NAEBV1234@@Z
  ?CompareExchangeStatus@Cancelable@internal@v8@@AEAA_NW4Status@123@0PEAW44123@@Z
  ?CompareMaps@SimplifiedOperatorBuilder@compiler@internal@v8@@QEAAPEBVOperator@234@V?$ZoneHandleSet@VMap@internal@v8@@@34@@Z
  ?CompareNil@BytecodeArrayBuilder@interpreter@internal@v8@@QEAAAEAV1234@W4Value@Token@34@W4NilValue@1234@@Z
  ?CompareNull@BytecodeArrayBuilder@interpreter@internal@v8@@QEAAAEAV1234@XZ
  ?CompareOperation@BytecodeArrayBuilder@interpreter@internal@v8@@QEAAAEAV1234@W4Value@Token@34@VRegister@234@H@Z
  ?CompareRange@MacroAssembler@internal@v8@@QEAAXVRegister@23@II@Z
  ?CompareReference@BytecodeArrayBuilder@interpreter@internal@v8@@QEAAAEAV1234@VRegister@234@@Z
  ?CompareRoot@TurboAssembler@internal@v8@@QEAAXVOperand@23@W4RootIndex@23@@Z
  ?CompareRoot@TurboAssembler@internal@v8@@QEAAXVRegister@23@W4RootIndex@23@@Z
  ?CompareStrings@Intl@internal@v8@@SAHPEAVIsolate@23@AEBVCollator@icu_73@@V?$Handle@VString@internal@v8@@@23@2W4CompareStringsOptions@123@@Z
  ?CompareStrings@LiveEdit@internal@v8@@SAXPEAVIsolate@23@V?$Handle@VString@internal@v8@@@23@1PEAV?$vector@USourceChangeRange@internal@v8@@V?$allocator@USourceChangeRange@internal@v8@@@std@@@std@@@Z
  ?CompareToDouble@BigInt@internal@v8@@SA?AW4ComparisonResult@23@V?$Handle@VBigInt@internal@v8@@@23@N@Z
  ?CompareTypeOf@BytecodeArrayBuilder@interpreter@internal@v8@@QEAAAEAV1234@W4LiteralFlag@TestTypeOfFlags@234@@Z
  ?CompareUndefined@BytecodeArrayBuilder@interpreter@internal@v8@@QEAAAEAV1234@XZ
  ?CompareUndetectable@BytecodeArrayBuilder@interpreter@internal@v8@@QEAAAEAV1234@XZ
  ?Compile@Compiler@internal@v8@@SA_NPEAVIsolate@23@V?$Handle@VJSFunction@internal@v8@@@23@W4ClearExceptionFlag@123@PEAVIsCompiledScope@23@@Z
  ?Compile@Compiler@internal@v8@@SA_NPEAVIsolate@23@V?$Handle@VSharedFunctionInfo@internal@v8@@@23@W4ClearExceptionFlag@123@PEAVIsCompiledScope@23@W4CreateSourcePositions@23@@Z
  ?Compile@Script@v8@@SA?AV?$MaybeLocal@VScript@v8@@@2@V?$Local@VContext@v8@@@2@V?$Local@VString@v8@@@2@PEAVScriptOrigin@2@@Z
  ?Compile@ScriptCompiler@v8@@SA?AV?$MaybeLocal@VScript@v8@@@2@V?$Local@VContext@v8@@@2@PEAVSource@12@W4CompileOptions@12@W4NoCacheReason@12@@Z
  ?Compile@ScriptCompiler@v8@@SA?AV?$MaybeLocal@VScript@v8@@@2@V?$Local@VContext@v8@@@2@PEAVStreamedSource@12@V?$Local@VString@v8@@@2@AEBVScriptOrigin@2@@Z
  ?Compile@WasmModuleObject@v8@@SA?AV?$MaybeLocal@VWasmModuleObject@v8@@@2@PEAVIsolate@2@V?$MemorySpan@$$CBE@2@@Z
  ?CompileBaseline@Compiler@internal@v8@@SA_NPEAVIsolate@23@V?$Handle@VJSFunction@internal@v8@@@23@W4ClearExceptionFlag@123@PEAVIsCompiledScope@23@@Z
  ?CompileCWasmEntry@compiler@internal@v8@@YA?AV?$Handle@VCode@internal@v8@@@23@PEAVIsolate@23@PEBV?$Signature@VValueType@wasm@internal@v8@@@23@PEBUWasmModule@wasm@23@@Z
  ?CompileError@ErrorThrower@wasm@internal@v8@@QEAAXPEBDZZ
  ?CompileError_string@Factory@internal@v8@@QEAA?AV?$Handle@VString@internal@v8@@@23@XZ
  ?CompileError_string@LocalFactory@internal@v8@@QEAA?AV?$Handle@VString@internal@v8@@@23@XZ
  ?CompileFailed@ErrorThrower@wasm@internal@v8@@QEAAXAEBVWasmError@234@@Z
  ?CompileForLiveEdit@Compiler@internal@v8@@SA?AV?$MaybeHandle@VSharedFunctionInfo@internal@v8@@@23@PEAVParseInfo@23@V?$Handle@VScript@internal@v8@@@23@PEAVIsolate@23@@Z
  ?CompileForTesting@RegExp@internal@v8@@SA_NPEAVIsolate@23@PEAVZone@23@PEAURegExpCompileData@23@V?$Flags@W4RegExpFlag@internal@v8@@H@base@3@V?$Handle@VString@internal@v8@@@23@4_N@Z
  ?CompileFunction@ScriptCompiler@v8@@SA?AV?$MaybeLocal@VFunction@v8@@@2@V?$Local@VContext@v8@@@2@PEAVSource@12@_KQEAV?$Local@VString@v8@@@2@2QEAV?$Local@VObject@v8@@@2@W4CompileOptions@12@W4NoCacheReason@12@@Z
  ?CompileFunction@WasmEngine@wasm@internal@v8@@QEAAXPEAVIsolate@34@PEAVNativeModule@234@IW4ExecutionTier@234@@Z
  ?CompileFunctionInContext@ScriptCompiler@v8@@SA?AV?$MaybeLocal@VFunction@v8@@@2@V?$Local@VContext@v8@@@2@PEAVSource@12@_KQEAV?$Local@VString@v8@@@2@2QEAV?$Local@VObject@v8@@@2@W4CompileOptions@12@W4NoCacheReason@12@PEAV?$Local@VScriptOrModule@v8@@@2@@Z
  ?CompileFunctionInternal@ScriptCompiler@v8@@CA?AV?$MaybeLocal@VFunction@v8@@@2@V?$Local@VContext@v8@@@2@PEAVSource@12@_KQEAV?$Local@VString@v8@@@2@2QEAV?$Local@VObject@v8@@@2@W4CompileOptions@12@W4NoCacheReason@12@PEAV?$Local@VScriptOrModule@v8@@@2@@Z
  ?CompileImportWrapper@wasm@internal@v8@@YAPEAVWasmCode@123@PEAVNativeModule@123@PEAVCounters@23@W4WasmImportCallKind@compiler@23@PEBV?$Signature@VValueType@wasm@internal@v8@@@23@HW4Suspend@123@PEAVModificationScope@WasmImportWrapperCache@123@@Z
  ?CompileJSToWasmWrapper@JSToWasmWrapperCompilationUnit@wasm@internal@v8@@SA?AV?$Handle@VCode@internal@v8@@@34@PEAVIsolate@34@PEBV?$Signature@VValueType@wasm@internal@v8@@@34@PEBUWasmModule@234@_N@Z
  ?CompileJsToWasmWrappers@wasm@internal@v8@@YAXPEAVIsolate@23@PEBUWasmModule@123@PEAV?$Handle@VFixedArray@internal@v8@@@23@@Z
  ?CompileMaglev@Compiler@internal@v8@@SA_NPEAVIsolate@23@V?$Handle@VJSFunction@internal@v8@@@23@W4ConcurrencyMode@23@PEAVIsCompiledScope@23@@Z
  ?CompileModule@ScriptCompiler@v8@@SA?AV?$MaybeLocal@VModule@v8@@@2@PEAVIsolate@2@PEAVSource@12@W4CompileOptions@12@W4NoCacheReason@12@@Z
  ?CompileModule@ScriptCompiler@v8@@SA?AV?$MaybeLocal@VModule@v8@@@2@V?$Local@VContext@v8@@@2@PEAVStreamedSource@12@V?$Local@VString@v8@@@2@AEBVScriptOrigin@2@@Z
  ?CompileNext@OptimizingCompileDispatcher@internal@v8@@AEAAXPEAVTurbofanCompilationJob@23@PEAVLocalIsolate@23@@Z
  ?CompileOptimized@Compiler@internal@v8@@SAXPEAVIsolate@23@V?$Handle@VJSFunction@internal@v8@@@23@W4ConcurrencyMode@23@W4CodeKind@23@@Z
  ?CompileOptimizedOSR@Compiler@internal@v8@@SA?AV?$MaybeHandle@VCode@internal@v8@@@23@PEAVIsolate@23@V?$Handle@VJSFunction@internal@v8@@@23@VBytecodeOffset@23@PEAVUnoptimizedFrame@23@W4ConcurrencyMode@23@@Z
  ?CompileSharedWithBaseline@Compiler@internal@v8@@SA_NPEAVIsolate@23@V?$Handle@VSharedFunctionInfo@internal@v8@@@23@W4ClearExceptionFlag@123@PEAVIsCompiledScope@23@@Z
  ?CompileSpecificJSToWasmWrapper@JSToWasmWrapperCompilationUnit@wasm@internal@v8@@SA?AV?$Handle@VCode@internal@v8@@@34@PEAVIsolate@34@PEBV?$Signature@VValueType@wasm@internal@v8@@@34@PEBUWasmModule@234@@Z
  ?CompileToNativeModule@wasm@internal@v8@@YA?AV?$shared_ptr@VNativeModule@wasm@internal@v8@@@std@@PEAVIsolate@23@AEBVWasmFeatures@123@PEAVErrorThrower@123@V?$shared_ptr@$$CBUWasmModule@wasm@internal@v8@@@5@AEBUModuleWireBytes@123@PEAV?$Handle@VFixedArray@internal@v8@@@23@HVContextId@Recorder@metrics@3@@Z
  ?CompileToplevel@Compiler@internal@v8@@SA?AV?$MaybeHandle@VSharedFunctionInfo@internal@v8@@@23@PEAVParseInfo@23@V?$Handle@VScript@internal@v8@@@23@PEAVIsolate@23@PEAVIsCompiledScope@23@@Z
  ?CompileUnboundInternal@ScriptCompiler@v8@@CA?AV?$MaybeLocal@VUnboundScript@v8@@@2@PEAVIsolate@2@PEAVSource@12@W4CompileOptions@12@W4NoCacheReason@12@@Z
  ?CompileUnboundScript@ScriptCompiler@v8@@SA?AV?$MaybeLocal@VUnboundScript@v8@@@2@PEAVIsolate@2@PEAVSource@12@W4CompileOptions@12@W4NoCacheReason@12@@Z
  ?CompileWasmFunction@WasmCompilationUnit@wasm@internal@v8@@SAXPEAVIsolate@34@PEAVNativeModule@234@PEAVWasmFeatures@234@PEBUWasmFunction@234@W4ExecutionTier@234@@Z
  ?CompileWasmImportCallWrapper@compiler@internal@v8@@YA?AUWasmCompilationResult@wasm@23@PEAUCompilationEnv@523@W4WasmImportCallKind@123@PEBV?$Signature@VValueType@wasm@internal@v8@@@23@_NHW4Suspend@523@@Z
  ?CompiledWithConcurrentBaseline@CodeBuilder@Factory@internal@v8@@QEBA_NXZ
  ?CompleteInobjectSlackTracking@MapUpdater@internal@v8@@SAXPEAVIsolate@23@VMap@23@@Z
  ?Compress@SnapshotCompression@internal@v8@@SA?AVSnapshotData@23@PEBV423@@Z
  ?CompressBlock@MoveOptimizer@compiler@internal@v8@@AEAAXPEAVInstructionBlock@234@@Z
  ?CompressGaps@MoveOptimizer@compiler@internal@v8@@AEAAXPEAVInstruction@234@@Z
  ?CompressMoves@MoveOptimizer@compiler@internal@v8@@AEAAXPEAVParallelMove@234@PEAV?$ZoneVector@PEAVMoveOperands@compiler@internal@v8@@@34@@Z
  ?CompressedHeapConstant@CommonOperatorBuilder@compiler@internal@v8@@QEAAPEBVOperator@234@AEBV?$Handle@VHeapObject@internal@v8@@@34@@Z
  ?Compute@GCIdleTimeHandler@internal@v8@@QEAA?AW4GCIdleTimeAction@23@NVGCIdleTimeHeapState@23@@Z
  ?ComputeAndSetHash@String@internal@v8@@AEAAIAEBVSharedStringAccessGuardIfNeeded@23@@Z
  ?ComputeAndSetHash@String@internal@v8@@AEAAIXZ
  ?ComputeAssemblyOrder@InstructionSequence@compiler@internal@v8@@AEAAXXZ
  ?ComputeBranchInfo@CodeGenerator@compiler@internal@v8@@AEAA?AVRpoNumber@234@PEAUBranchInfo@234@PEAVInstruction@234@@Z
  ?ComputeCallFrequency@FeedbackNexus@internal@v8@@QEAAMXZ
  ?ComputeCapacity@HashTableBase@internal@v8@@SAHH@Z
  ?ComputeCapacityWithShrink@?$HashTable@VCompilationCacheTable@internal@v8@@VCompilationCacheShape@23@@internal@v8@@KAHHH@Z
  ?ComputeCapacityWithShrink@?$HashTable@VEphemeronHashTable@internal@v8@@VObjectHashTableShape@23@@internal@v8@@KAHHH@Z
  ?ComputeCapacityWithShrink@?$HashTable@VGlobalDictionary@internal@v8@@VGlobalDictionaryShape@23@@internal@v8@@KAHHH@Z
  ?ComputeCapacityWithShrink@?$HashTable@VNameDictionary@internal@v8@@VNameDictionaryShape@23@@internal@v8@@KAHHH@Z
  ?ComputeCapacityWithShrink@?$HashTable@VNameToIndexHashTable@internal@v8@@VNameToIndexShape@23@@internal@v8@@KAHHH@Z
  ?ComputeCapacityWithShrink@?$HashTable@VNumberDictionary@internal@v8@@VNumberDictionaryShape@23@@internal@v8@@KAHHH@Z
  ?ComputeCapacityWithShrink@?$HashTable@VObjectHashSet@internal@v8@@VObjectHashSetShape@23@@internal@v8@@KAHHH@Z
  ?ComputeCapacityWithShrink@?$HashTable@VObjectHashTable@internal@v8@@VObjectHashTableShape@23@@internal@v8@@KAHHH@Z
  ?ComputeCapacityWithShrink@?$HashTable@VRegisteredSymbolTable@internal@v8@@VRegisteredSymbolTableShape@23@@internal@v8@@KAHHH@Z
  ?ComputeCapacityWithShrink@?$HashTable@VSimpleNumberDictionary@internal@v8@@VSimpleNumberDictionaryShape@23@@internal@v8@@KAHHH@Z
  ?ComputeCapacityWithShrink@?$HashTable@VStringSet@internal@v8@@VStringSetShape@23@@internal@v8@@KAHHH@Z
  ?ComputeCodeStartAddress@TurboAssembler@internal@v8@@QEAAXVRegister@23@@Z
  ?ComputeConfiguration@LookupIterator@internal@v8@@CA?AW4Configuration@123@PEAVIsolate@23@W44123@V?$Handle@VName@internal@v8@@@23@@Z
  ?ComputeDiscardMemoryArea@MemoryAllocator@internal@v8@@SA?AVAddressRegion@base@3@_K0@Z
  ?ComputeForwarding@JumpThreading@compiler@internal@v8@@SA_NPEAVZone@34@PEAV?$ZoneVector@VRpoNumber@compiler@internal@v8@@@34@PEAVInstructionSequence@234@_N@Z
  ?ComputeIncoming@Linkage@compiler@internal@v8@@SAPEAVCallDescriptor@234@PEAVZone@34@PEAVOptimizedCompilationInfo@34@@Z
  ?ComputeInternalizationStrategyForString@Factory@internal@v8@@QEAA?AW4StringTransitionStrategy@23@V?$Handle@VString@internal@v8@@@23@PEAV?$MaybeHandle@VMap@internal@v8@@@23@@Z
  ?ComputeLocation@Isolate@internal@v8@@QEAA_NPEAVMessageLocation@23@@Z
  ?ComputeLocationFromDetailedStackTrace@Isolate@internal@v8@@QEAA_NPEAVMessageLocation@23@V?$Handle@VObject@internal@v8@@@23@@Z
  ?ComputeLocationFromException@Isolate@internal@v8@@QEAA_NPEAVMessageLocation@23@V?$Handle@VObject@internal@v8@@@23@@Z
  ?ComputeLocationFromSimpleStackTrace@Isolate@internal@v8@@QEAA_NPEAVMessageLocation@23@V?$Handle@VObject@internal@v8@@@23@@Z
  ?ComputeLoopState@CsaLoadElimination@compiler@internal@v8@@AEBAPEBUAbstractState@1234@PEAVNode@234@PEBU51234@@Z
  ?ComputeLoopState@LoadElimination@compiler@internal@v8@@AEBAPEBVAbstractState@1234@PEAVNode@234@PEBV51234@@Z
  ?ComputeLoopStateForStoreField@LoadElimination@compiler@internal@v8@@AEBAPEBVAbstractState@1234@PEAVNode@234@PEBV51234@AEBUFieldAccess@234@@Z
  ?ComputeParamCounts@CallDescriptor@compiler@internal@v8@@AEBAXXZ
  ?ComputeSamplingInterval@CpuProfiler@internal@v8@@AEBA?AVTimeDelta@base@3@XZ
  ?ComputeSchedule@Scheduler@compiler@internal@v8@@SAPEAVSchedule@234@PEAVZone@34@PEAVGraph@234@V?$Flags@W4Flag@Scheduler@compiler@internal@v8@@H@base@4@PEAVTickCounter@34@PEBVProfileDataFromFile@34@@Z
  ?ComputeSharingStrategyForString@Factory@internal@v8@@QEAA?AW4StringTransitionStrategy@23@V?$Handle@VString@internal@v8@@@23@PEAV?$MaybeHandle@VMap@internal@v8@@@23@@Z
  ?ComputeSpecialRPO@Scheduler@compiler@internal@v8@@SAPEAV?$ZoneVector@PEAVBasicBlock@compiler@internal@v8@@@34@PEAVZone@34@PEAVSchedule@234@@Z
  ?ComputeSpecialRPONumbering@Scheduler@compiler@internal@v8@@AEAAXXZ
  ?ComputeStepSizeInBytes@IncrementalMarking@internal@v8@@AEAA_KW4StepOrigin@23@@Z
  ?Concat@String@v8@@SA?AV?$Local@VString@v8@@@2@PEAVIsolate@2@V32@1@Z
  ?ConcatenateBytes@WasmCode@wasm@internal@v8@@AEAA?AV?$unique_ptr@$$BY0A@$$CBEU?$default_delete@$$BY0A@$$CBE@std@@@std@@V?$initializer_list@V?$Vector@$$CBE@base@v8@@@6@@Z
  ?ConfigureCloneObject@FeedbackNexus@internal@v8@@QEAAXV?$Handle@VMap@internal@v8@@@23@0@Z
  ?ConfigureDefaults@ResourceConstraints@v8@@QEAAX_K0@Z
  ?ConfigureDefaultsFromHeapSize@ResourceConstraints@v8@@QEAAX_K0@Z
  ?ConfigureFlags@OptimizedCompilationInfo@internal@v8@@AEAAXXZ
  ?ConfigureHandlerMode@FeedbackNexus@internal@v8@@QEAAXAEBVMaybeObjectHandle@23@@Z
  ?ConfigureLexicalVarMode@FeedbackNexus@internal@v8@@QEAA_NHH_N@Z
  ?ConfigureMegaDOM@FeedbackNexus@internal@v8@@QEAAXAEBVMaybeObjectHandle@23@@Z
  ?ConfigureMegamorphic@FeedbackNexus@internal@v8@@QEAA_NW4IcCheckType@23@@Z
  ?ConfigureMegamorphic@FeedbackNexus@internal@v8@@QEAA_NXZ
  ?ConfigureMonomorphic@FeedbackNexus@internal@v8@@QEAAXV?$Handle@VName@internal@v8@@@23@V?$Handle@VMap@internal@v8@@@23@AEBVMaybeObjectHandle@23@@Z
  ?ConfigurePolymorphic@FeedbackNexus@internal@v8@@QEAAXV?$Handle@VName@internal@v8@@@23@AEBV?$vector@U?$pair@V?$Handle@VMap@internal@v8@@@internal@v8@@VMaybeObjectHandle@23@@std@@V?$allocator@U?$pair@V?$Handle@VMap@internal@v8@@@internal@v8@@VMaybeObjectHandle@23@@std@@@2@@std@@@Z
  ?ConfigurePropertyCellMode@FeedbackNexus@internal@v8@@QEAAXV?$Handle@VPropertyCell@internal@v8@@@23@@Z
  ?ConfigureUninitialized@FeedbackNexus@internal@v8@@QEAAXXZ
  ?ConnectUnreachableToEnd@GraphAssembler@compiler@internal@v8@@QEAAXXZ
  ?Constant@JSGraph@compiler@internal@v8@@QEAAPEAVNode@234@AEBVObjectRef@234@@Z
  ?Constant@JSGraph@compiler@internal@v8@@QEAAPEAVNode@234@N@Z
  ?Constant@JSGraphAssembler@compiler@internal@v8@@QEAA?AV?$TNode@VObject@internal@v8@@@34@AEBVObjectRef@234@@Z
  ?Constant@Type@compiler@internal@v8@@SA?AV1234@NPEAVZone@34@@Z
  ?Constant@Type@compiler@internal@v8@@SA?AV1234@PEAVJSHeapBroker@234@V?$Handle@VObject@internal@v8@@@34@PEAVZone@34@@Z
  ?ConstantPoolEntryFor@BytecodeJumpTable@interpreter@internal@v8@@QEAA_KH@Z
  ?Construct@BytecodeArrayBuilder@interpreter@internal@v8@@QEAAAEAV1234@VRegister@234@VRegisterList@234@H@Z
  ?Construct@CodeFactory@internal@v8@@SA?AVCallable@23@PEAVIsolate@23@@Z
  ?Construct@JSOperatorBuilder@compiler@internal@v8@@QEAAPEBVOperator@234@IAEBVCallFrequency@234@AEBUFeedbackSource@234@@Z
  ?ConstructForwardVarargs@CodeFactory@internal@v8@@SA?AVCallable@23@PEAVIsolate@23@@Z
  ?ConstructForwardVarargs@JSOperatorBuilder@compiler@internal@v8@@QEAAPEBVOperator@234@_KI@Z
  ?ConstructFunction@CodeFactory@internal@v8@@SA?AVCallable@23@PEAVIsolate@23@@Z
  ?ConstructFunctionForwardVarargs@CodeFactory@internal@v8@@SA?AVCallable@23@PEAVIsolate@23@@Z
  ?ConstructNewMap@MapUpdater@internal@v8@@AEAA?AW4State@123@XZ
  ?ConstructNewMapWithIntegrityLevelTransition@MapUpdater@internal@v8@@AEAA?AW4State@123@XZ
  ?ConstructSource@WebSnapshotSerializer@internal@v8@@AEAAXXZ
  ?ConstructVarargs@CodeFactory@internal@v8@@SA?AVCallable@23@PEAVIsolate@23@@Z
  ?ConstructWithArrayLike@JSOperatorBuilder@compiler@internal@v8@@QEAAPEBVOperator@234@AEBVCallFrequency@234@AEBUFeedbackSource@234@@Z
  ?ConstructWithSpread@BytecodeArrayBuilder@interpreter@internal@v8@@QEAAAEAV1234@VRegister@234@VRegisterList@234@H@Z
  ?ConstructWithSpread@CodeFactory@internal@v8@@SA?AVCallable@23@PEAVIsolate@23@@Z
  ?ConstructWithSpread@JSOperatorBuilder@compiler@internal@v8@@QEAAPEBVOperator@234@IAEBVCallFrequency@234@AEBUFeedbackSource@234@@Z
  ?Consume@?$ParserBase@VParser@internal@v8@@@internal@v8@@IEAAXW4Value@Token@23@@Z
  ?ConsumeCComment@AsmJsScanner@internal@v8@@AEAA_NXZ
  ?ConsumeCPPComment@AsmJsScanner@internal@v8@@AEAAXXZ
  ?ConsumeCompareOrShift@AsmJsScanner@internal@v8@@AEAAXI@Z
  ?ConsumeIdentifier@AsmJsScanner@internal@v8@@AEAAXI@Z
  ?ConsumeNumber@AsmJsScanner@internal@v8@@AEAAXI@Z
  ?ConsumeString@AsmJsScanner@internal@v8@@AEAAXI@Z
  ?Contains@AddressSpaceReservation@base@v8@@QEBA_NPEAX_K@Z
  ?Contains@BitVector@internal@v8@@QEBA_NH@Z
  ?Contains@CodeObjectRegistry@internal@v8@@QEBA_N_K@Z
  ?Contains@Heap@internal@v8@@QEBA_NVHeapObject@23@@Z
  ?Contains@LargeObjectSpace@internal@v8@@QEBA_NVHeapObject@23@@Z
  ?Contains@MemoryRegion@internal@cppgc@@QEBA_NAEBV123@@Z
  ?Contains@MemoryRegion@internal@cppgc@@QEBA_NPEBE@Z
  ?Contains@NewSpace@internal@v8@@QEBA_NVHeapObject@23@@Z
  ?Contains@NewSpace@internal@v8@@QEBA_NVObject@23@@Z
  ?Contains@PagedSpace@internal@v8@@QEBA_NVObject@23@@Z
  ?Contains@PagedSpace@internal@v8@@QEBA_N_K@Z
  ?Contains@ReadOnlyHeap@internal@v8@@SA_NVHeapObject@23@@Z
  ?Contains@ReadOnlyHeap@internal@v8@@SA_N_K@Z
  ?Contains@Type@compiler@internal@v8@@CA_NPEBVRangeType@234@0@Z
  ?ContainsAsmModule@Scope@internal@v8@@QEBA_NXZ
  ?ContainsCall@InstructionSequence@compiler@internal@v8@@QEBA_NXZ
  ?ContainsCode@Heap@internal@v8@@QEBA_NVHeapObject@23@@Z
  ?ContainsForTesting@FreeList@internal@cppgc@@QEBA_NUBlock@123@@Z
  ?ContainsLabel@?$ParserBase@VParser@internal@v8@@@internal@v8@@IEAA_NPEBV?$ZoneList@PEBVAstRawString@internal@v8@@@23@PEBVAstRawString@23@@Z
  ?ContainsLocal@BytecodeLoopAssignments@compiler@internal@v8@@QEBA_NH@Z
  ?ContainsOnlyOneByte@String@v8@@QEBA_NXZ
  ?ContainsParameter@BytecodeLoopAssignments@compiler@internal@v8@@QEBA_NH@Z
  ?ContainsSlow@ArrayBufferList@internal@v8@@QEBA_NPEAVArrayBufferExtension@23@@Z
  ?ContainsSlow@LargeObjectSpace@internal@v8@@QEBA_N_K@Z
  ?ContainsSlow@NewSpace@internal@v8@@QEBA_N_K@Z
  ?ContainsSlow@PagedSpace@internal@v8@@QEBA_N_K@Z
  ?Context@Local@MarkingWorklists@internal@v8@@QEBA_KXZ
  ?ContextAccessOf@compiler@internal@v8@@YAAEBVContextAccess@123@PEBVOperator@123@@Z
  ?ContextChainLength@Scope@internal@v8@@QEBAHPEAV123@@Z
  ?ContextChainLengthUntilOutermostSloppyEval@Scope@internal@v8@@QEBAHXZ
  ?ContextDisposedNotification@Isolate@v8@@QEAAH_N@Z
  ?ContextHeaderLength@Scope@internal@v8@@QEBAHXZ
  ?ContextId@Script@debug@v8@@QEBA?AV?$Maybe@H@3@XZ
  ?ContextLocalCount@Scope@internal@v8@@QEBAHXZ
  ?ContextRegister@CallInterfaceDescriptor@internal@v8@@SA?AVRegister@23@XZ
  ?Continuations@RawMachineAssembler@compiler@internal@v8@@QEAAXPEAVNode@234@PEAVRawMachineLabel@234@1@Z
  ?Continue@ConsStringIterator@internal@v8@@AEAA?AVString@23@PEAH@Z
  ?Continue@LoopBuilder@interpreter@internal@v8@@QEAAXXZ
  ?ContinueIfNull@LoopBuilder@interpreter@internal@v8@@QEAAXXZ
  ?ContinueIfUndefined@LoopBuilder@interpreter@internal@v8@@QEAAXXZ
  ?ContributeToSweepingMain@PagedSpace@internal@v8@@IEAA_NHHHW4AllocationOrigin@23@@Z
  ?ControlInputCount@Operator@compiler@internal@v8@@QEBAHXZ
  ?ControlOutputCount@Operator@compiler@internal@v8@@QEBAHXZ
  ?ConvertBinaryToNaryOperationSourceRange@Parser@internal@v8@@AEAAXPEAVBinaryOperation@23@PEAVNaryOperation@23@@Z
  ?ConvertPlainPrimitiveToNumber@TypedOptimization@compiler@internal@v8@@AEAAPEAVNode@234@PEAV5234@@Z
  ?ConvertReceiver@OperationTyper@compiler@internal@v8@@QEAA?AVType@234@V5234@@Z
  ?ConvertReceiver@SimplifiedOperatorBuilder@compiler@internal@v8@@QEAAPEBVOperator@234@W4ConvertReceiverMode@34@@Z
  ?ConvertTaggedHoleToUndefined@JSGraphAssembler@compiler@internal@v8@@QEAA?AV?$TNode@VObject@internal@v8@@@34@V534@@Z
  ?ConvertTaggedHoleToUndefined@OperationTyper@compiler@internal@v8@@QEAA?AVType@234@V5234@@Z
  ?ConvertTaggedHoleToUndefined@SimplifiedOperatorBuilder@compiler@internal@v8@@QEAAPEBVOperator@234@XZ
  ?ConvertToIndex@Object@internal@v8@@CA?AV?$MaybeHandle@VObject@internal@v8@@@23@PEAVIsolate@23@V?$Handle@VObject@internal@v8@@@23@W4MessageTemplate@23@@Z
  ?ConvertToInteger@Object@internal@v8@@CA?AV?$MaybeHandle@VObject@internal@v8@@@23@PEAVIsolate@23@V?$Handle@VObject@internal@v8@@@23@@Z
  ?ConvertToKeysArray@OrderedHashSet@internal@v8@@SA?AV?$Handle@VFixedArray@internal@v8@@@23@PEAVIsolate@23@V?$Handle@VOrderedHashSet@internal@v8@@@23@W4GetKeysConversion@23@@Z
  ?ConvertToLength@Object@internal@v8@@CA?AV?$MaybeHandle@VObject@internal@v8@@@23@PEAVIsolate@23@V?$Handle@VObject@internal@v8@@@23@@Z
  ?ConvertToString@Object@internal@v8@@CA?AV?$MaybeHandle@VString@internal@v8@@@23@PEAVIsolate@23@V?$Handle@VObject@internal@v8@@@23@@Z
  ?ConvertUsesToOperand@LiveRange@compiler@internal@v8@@QEAAXAEBVInstructionOperand@234@0@Z
  ?Copy@Buffer@node@@YA?AV?$MaybeLocal@VObject@v8@@@v8@@PEAVIsolate@4@PEBD_K@Z
  ?Copy@RegExpBytecodeGenerator@internal@v8@@AEAAXPEAE@Z
  ?CopyAndRelocate@NativeModuleDeserializer@wasm@internal@v8@@AEAAXAEBUDeserializationUnit@234@@Z
  ?CopyBytecodeArray@Factory@internal@v8@@QEAA?AV?$Handle@VBytecodeArray@internal@v8@@@23@V423@@Z
  ?CopyCanonicalHandlesForTesting@JSHeapBroker@compiler@internal@v8@@AEAAXV?$unique_ptr@V?$IdentityMap@PEA_KVZoneAllocationPolicy@internal@v8@@@internal@v8@@U?$default_delete@V?$IdentityMap@PEA_KVZoneAllocationPolicy@internal@v8@@@internal@v8@@@std@@@std@@@Z
  ?CopyCode@Factory@internal@v8@@QEAA?AV?$Handle@VCode@internal@v8@@@23@V423@@Z
  ?CopyCodePages@Isolate@v8@@QEAA_K_KPEAUMemoryRange@2@@Z
  ?CopyContents@ArrayBufferView@v8@@QEAA_KPEAX_K@Z
  ?CopyFixedArray@Factory@internal@v8@@QEAA?AV?$Handle@VFixedArray@internal@v8@@@23@V423@@Z
  ?CopyFixedArrayAndGrow@Factory@internal@v8@@QEAA?AV?$Handle@VFixedArray@internal@v8@@@23@V423@H@Z
  ?CopyFixedArrayUpTo@Factory@internal@v8@@QEAA?AV?$Handle@VFixedArray@internal@v8@@@23@V423@HW4AllocationType@23@@Z
  ?CopyFixedArrayWithMap@Factory@internal@v8@@QEAA?AV?$Handle@VFixedArray@internal@v8@@@23@V423@V?$Handle@VMap@internal@v8@@@23@@Z
  ?CopyFixedDoubleArray@Factory@internal@v8@@QEAA?AV?$Handle@VFixedDoubleArray@internal@v8@@@23@V423@@Z
  ?CopyForPreventExtensions@Map@internal@v8@@SA?AV?$Handle@VMap@internal@v8@@@23@PEAVIsolate@23@V423@W4PropertyAttributes@23@V?$Handle@VSymbol@internal@v8@@@23@PEBD_N@Z
  ?CopyFrom@BitVector@internal@v8@@QEAAXAEBV123@@Z
  ?CopyGlobal@GlobalHandles@internal@v8@@SA?AV?$Handle@VObject@internal@v8@@@23@PEA_K@Z
  ?CopyGlobalReference@api_internal@v8@@YAPEA_KPEA_K@Z
  ?CopyInitialMap@Map@internal@v8@@SA?AV?$Handle@VMap@internal@v8@@@23@PEAVIsolate@23@V423@HHH@Z
  ?CopyInsertDescriptor@Map@internal@v8@@SA?AV?$Handle@VMap@internal@v8@@@23@PEAVIsolate@23@V423@PEAVDescriptor@23@W4TransitionFlag@23@@Z
  ?CopyJSObject@Factory@internal@v8@@QEAA?AV?$Handle@VJSObject@internal@v8@@@23@V423@@Z
  ?CopyJSObjectWithAllocationSite@Factory@internal@v8@@QEAA?AV?$Handle@VJSObject@internal@v8@@@23@V423@V?$Handle@VAllocationSite@internal@v8@@@23@@Z
  ?CopyPropertyArrayAndGrow@Factory@internal@v8@@QEAA?AV?$Handle@VPropertyArray@internal@v8@@@23@V423@H@Z
  ?CopyTableEntries@WasmInstanceObject@internal@v8@@SA_NPEAVIsolate@23@V?$Handle@VWasmInstanceObject@internal@v8@@@23@IIIII@Z
  ?CopyTo@FixedArray@internal@v8@@QEBAXHV123@HH@Z
  ?CopyToHeap@ByteData@PreparseDataBuilder@internal@v8@@QEAA?AV?$Handle@VPreparseData@internal@v8@@@34@PEAVIsolate@34@H@Z
  ?CopyToLocalHeap@ByteData@PreparseDataBuilder@internal@v8@@QEAA?AV?$Handle@VPreparseData@internal@v8@@@34@PEAVLocalIsolate@34@H@Z
  ?CopyToZone@ByteData@PreparseDataBuilder@internal@v8@@QEAAPEAVZonePreparseData@34@PEAVZone@34@H@Z
  ?CopyTracedReference@GlobalHandles@internal@v8@@SAXPEBQEB_KPEAPEA_K@Z
  ?CopyTracedReference@internal@v8@@YAXPEBQEB_KPEAPEA_K@Z
  ?CopyWasmMemory@BackingStore@internal@v8@@QEAA?AV?$unique_ptr@VBackingStore@internal@v8@@U?$default_delete@VBackingStore@internal@v8@@@std@@@std@@PEAVIsolate@23@_K1@Z
  ?CopyWeakArrayListAndGrow@Factory@internal@v8@@QEAA?AV?$Handle@VWeakArrayList@internal@v8@@@23@V423@HW4AllocationType@23@@Z
  ?CopyWeakFixedArrayAndGrow@Factory@internal@v8@@QEAA?AV?$Handle@VWeakFixedArray@internal@v8@@@23@V423@H@Z
  ?CopyWithConstant@Map@internal@v8@@SA?AV?$MaybeHandle@VMap@internal@v8@@@23@PEAVIsolate@23@V?$Handle@VMap@internal@v8@@@23@V?$Handle@VName@internal@v8@@@23@V?$Handle@VObject@internal@v8@@@23@W4PropertyAttributes@23@W4TransitionFlag@23@@Z
  ?CopyWithField@Map@internal@v8@@SA?AV?$MaybeHandle@VMap@internal@v8@@@23@PEAVIsolate@23@V?$Handle@VMap@internal@v8@@@23@V?$Handle@VName@internal@v8@@@23@V?$Handle@VFieldType@internal@v8@@@23@W4PropertyAttributes@23@W4PropertyConstness@23@VRepresentation@23@W4TransitionFlag@23@@Z
  ?Count@BitVector@internal@v8@@QEBAHXZ
  ?Count@BlockData@Coverage@debug@v8@@QEBAIXZ
  ?Count@FunctionData@Coverage@debug@v8@@QEBAIXZ
  ?CountTotalPages@PagedSpace@internal@v8@@QEBAHXZ
  ?CountUsage@Isolate@internal@v8@@QEAAXW4UseCounterFeature@13@@Z
  ?CountUsage@Isolate@internal@v8@@QEAAXW4UseCounterFeature@13@H@Z
  ?CountUsage@Parser@internal@v8@@AEAAXW4UseCounterFeature@Isolate@3@@Z
  ?Covers@LiveRange@compiler@internal@v8@@QEBA_NVLifetimePosition@234@@Z
  ?Create@ArrayBufferAllocator@node@@SA?AV?$unique_ptr@VArrayBufferAllocator@node@@U?$default_delete@VArrayBufferAllocator@node@@@std@@@std@@_N@Z
  ?Create@CppHeap@v8@@SA?AV?$unique_ptr@VCppHeap@v8@@U?$default_delete@VCppHeap@v8@@@std@@@std@@PEAVPlatform@2@AEBUCppHeapCreateParams@2@@Z
  ?Create@EternalHandles@internal@v8@@QEAAXPEAVIsolate@23@VObject@23@PEAH@Z
  ?Create@ExternalReference@internal@v8@@SA?AV123@PEAVApiFunction@3@W4Type@123@@Z
  ?Create@ExternalReference@internal@v8@@SA?AV123@PEAVIsolate@23@PEAVApiFunction@3@W4Type@123@PEA_KPEBQEBVCFunctionInfo@3@I@Z
  ?Create@ExternalReference@internal@v8@@SA?AV123@_KW4Type@123@@Z
  ?Create@GlobalHandles@internal@v8@@QEAA?AV?$Handle@VObject@internal@v8@@@23@VObject@23@@Z
  ?Create@GlobalHandles@internal@v8@@QEAA?AV?$Handle@VObject@internal@v8@@@23@_K@Z
  ?Create@Heap@cppgc@@SA?AV?$unique_ptr@VHeap@cppgc@@U?$default_delete@VHeap@cppgc@@@std@@@std@@V?$shared_ptr@VPlatform@cppgc@@@4@UHeapOptions@12@@Z
  ?Create@JSOperatorBuilder@compiler@internal@v8@@QEAAPEBVOperator@234@XZ
  ?Create@LargePage@internal@cppgc@@SAPEAV123@AEAVPageBackend@23@AEAVLargePageSpace@23@_K@Z
  ?Create@LivenessBrokerFactory@internal@cppgc@@SA?AVLivenessBroker@3@XZ
  ?Create@Map@internal@v8@@SA?AV?$Handle@VMap@internal@v8@@@23@PEAVIsolate@23@H@Z
  ?Create@MultiIsolatePlatform@node@@SA?AV?$unique_ptr@VMultiIsolatePlatform@node@@U?$default_delete@VMultiIsolatePlatform@node@@@std@@@std@@HPEAVTracingController@v8@@PEAVPageAllocator@6@@Z
  ?Create@NormalPage@internal@cppgc@@SAPEAV123@AEAVPageBackend@23@AEAVNormalPageSpace@23@@Z
  ?Create@PropertyIterator@debug@v8@@SA?AV?$unique_ptr@VPropertyIterator@debug@v8@@U?$default_delete@VPropertyIterator@debug@v8@@@std@@@std@@V?$Local@VContext@v8@@@3@V?$Local@VObject@v8@@@3@_N@Z
  ?Create@StackTraceIterator@debug@v8@@SA?AV?$unique_ptr@VStackTraceIterator@debug@v8@@U?$default_delete@VStackTraceIterator@debug@v8@@@std@@@std@@PEAVIsolate@3@H@Z
  ?Create@TracedValue@tracing@v8@@SA?AV?$unique_ptr@VTracedValue@tracing@v8@@U?$default_delete@VTracedValue@tracing@v8@@@std@@@std@@XZ
  ?CreateAddressSpaceReservation@OS@base@v8@@CA?AV?$Optional@VAddressSpaceReservation@base@v8@@@23@PEAX_K1W4MemoryPermission@123@@Z
  ?CreateAndSetEmbeddedBlob@Isolate@internal@v8@@AEAAXXZ
  ?CreateArguments@BytecodeArrayBuilder@interpreter@internal@v8@@QEAAAEAV1234@W4CreateArgumentsType@34@@Z
  ?CreateArguments@JSOperatorBuilder@compiler@internal@v8@@QEAAPEBVOperator@234@W4CreateArgumentsType@34@@Z
  ?CreateArray@JSOperatorBuilder@compiler@internal@v8@@QEAAPEBVOperator@234@_KV?$Optional@VAllocationSiteRef@compiler@internal@v8@@@base@4@@Z
  ?CreateArrayBufferAllocator@node@@YAPEAVArrayBufferAllocator@1@XZ
  ?CreateArrayFromIterable@BytecodeArrayBuilder@interpreter@internal@v8@@QEAAAEAV1234@XZ
  ?CreateArrayFromIterable@JSOperatorBuilder@compiler@internal@v8@@QEAAPEBVOperator@234@XZ
  ?CreateArrayIterator@JSOperatorBuilder@compiler@internal@v8@@QEAAPEBVOperator@234@W4IterationKind@34@@Z
  ?CreateArrayLiteral@BytecodeArrayBuilder@interpreter@internal@v8@@QEAAAEAV1234@_KHH@Z
  ?CreateArrayOfSize@FeedbackNexus@internal@v8@@AEAA?AV?$Handle@VWeakFixedArray@internal@v8@@@23@H@Z
  ?CreateAsyncCompileJob@WasmEngine@wasm@internal@v8@@AEAAPEAVAsyncCompileJob@234@PEAVIsolate@34@AEBVWasmFeatures@234@V?$unique_ptr@$$BY0A@EU?$default_delete@$$BY0A@E@std@@@std@@_KV?$Handle@VContext@internal@v8@@@34@PEBDV?$shared_ptr@VCompilationResultResolver@wasm@internal@v8@@@9@H@Z
  ?CreateAsyncFunctionObject@JSOperatorBuilder@compiler@internal@v8@@QEAAPEBVOperator@234@H@Z
  ?CreateAsyncStreamingDecoder@StreamingDecoder@wasm@internal@v8@@SA?AV?$unique_ptr@VStreamingDecoder@wasm@internal@v8@@U?$default_delete@VStreamingDecoder@wasm@internal@v8@@@std@@@std@@V?$unique_ptr@VStreamingProcessor@wasm@internal@v8@@U?$default_delete@VStreamingProcessor@wasm@internal@v8@@@std@@@6@@Z
  ?CreateBlackArea@Page@internal@v8@@QEAAX_K0@Z
  ?CreateBlackAreaBackground@Page@internal@v8@@QEAAX_K0@Z
  ?CreateBlob@SnapshotCreator@v8@@QEAA?AVStartupData@2@W4FunctionCodeHandling@12@@Z
  ?CreateBlockContext@BytecodeArrayBuilder@interpreter@internal@v8@@QEAAAEAV1234@PEBVScope@34@@Z
  ?CreateBlockContext@JSOperatorBuilder@compiler@internal@v8@@QEAAPEBVOperator@234@AEBVScopeInfoRef@234@@Z
  ?CreateBoundFunction@JSOperatorBuilder@compiler@internal@v8@@QEAAPEBVOperator@234@_KAEBVMapRef@234@@Z
  ?CreateBreakInfo@Debug@internal@v8@@QEAAXV?$Handle@VSharedFunctionInfo@internal@v8@@@23@@Z
  ?CreateCanonicalEmptySwissNameDictionary@Factory@internal@v8@@QEAA?AV?$Handle@VSwissNameDictionary@internal@v8@@@23@XZ
  ?CreateCatchContext@BytecodeArrayBuilder@interpreter@internal@v8@@QEAAAEAV1234@VRegister@234@PEBVScope@34@@Z
  ?CreateCatchContext@JSOperatorBuilder@compiler@internal@v8@@QEAAPEBVOperator@234@AEBVScopeInfoRef@234@@Z
  ?CreateClassFunctionMap@Factory@internal@v8@@QEAA?AV?$Handle@VMap@internal@v8@@@23@V?$Handle@VJSFunction@internal@v8@@@23@@Z
  ?CreateClosure@BytecodeArrayBuilder@interpreter@internal@v8@@QEAAAEAV1234@_KHH@Z
  ?CreateClosure@JSOperatorBuilder@compiler@internal@v8@@QEAAPEBVOperator@234@AEBVSharedFunctionInfoRef@234@AEBVCodeRef@234@W4AllocationType@34@@Z
  ?CreateClosureFromBuiltinSharedFunctionInfo@JSCallReducer@compiler@internal@v8@@AEAAPEAVNode@234@VSharedFunctionInfoRef@234@PEAV5234@11@Z
  ?CreateCodeCache@ScriptCompiler@v8@@SAPEAUCachedData@12@V?$Local@VUnboundModuleScript@v8@@@2@@Z
  ?CreateCodeCache@ScriptCompiler@v8@@SAPEAUCachedData@12@V?$Local@VUnboundScript@v8@@@2@@Z
  ?CreateCodeCacheForFunction@ScriptCompiler@v8@@SAPEAUCachedData@12@V?$Local@VFunction@v8@@@2@@Z
  ?CreateCollectionIterator@JSOperatorBuilder@compiler@internal@v8@@QEAAPEBVOperator@234@W4CollectionKind@34@W4IterationKind@34@@Z
  ?CreateCompilationEnv@NativeModule@wasm@internal@v8@@QEBA?AUCompilationEnv@234@XZ
  ?CreateConcurrentMarkingVisitor@ConcurrentMarker@internal@cppgc@@UEBA?AV?$unique_ptr@VVisitor@cppgc@@U?$default_delete@VVisitor@cppgc@@@std@@@std@@AEAVConcurrentMarkingState@23@@Z
  ?CreateContextWorklists@MarkingWorklists@internal@v8@@QEAAXAEBV?$vector@_KV?$allocator@_K@std@@@std@@@Z
  ?CreateCppMarkingState@CppHeap@internal@v8@@QEAA?AV?$unique_ptr@VCppMarkingState@internal@v8@@U?$default_delete@VCppMarkingState@internal@v8@@@std@@@std@@XZ
  ?CreateCppMarkingStateForMutatorThread@CppHeap@internal@v8@@QEAA?AV?$unique_ptr@VCppMarkingState@internal@v8@@U?$default_delete@VCppMarkingState@internal@v8@@@std@@@std@@XZ
  ?CreateDataProperty@Object@v8@@QEAA?AV?$Maybe@_N@2@V?$Local@VContext@v8@@@2@IV?$Local@VValue@v8@@@2@@Z
  ?CreateDataProperty@Object@v8@@QEAA?AV?$Maybe@_N@2@V?$Local@VContext@v8@@@2@V?$Local@VName@v8@@@2@V?$Local@VValue@v8@@@2@@Z
  ?CreateDelayedStringConstant@JSNativeContextSpecialization@compiler@internal@v8@@AEAA?AV?$Optional@PEBVStringConstantBase@internal@v8@@@base@4@PEAVNode@234@@Z
  ?CreateEmptyArrayLiteral@BytecodeArrayBuilder@interpreter@internal@v8@@QEAAAEAV1234@H@Z
  ?CreateEmptyJumpTableInRegionLocked@NativeModule@wasm@internal@v8@@AEAAPEAVWasmCode@234@HVAddressRegion@base@4@@Z
  ?CreateEmptyLiteralArray@JSOperatorBuilder@compiler@internal@v8@@QEAAPEBVOperator@234@AEBUFeedbackSource@234@@Z
  ?CreateEmptyLiteralObject@JSOperatorBuilder@compiler@internal@v8@@QEAAPEBVOperator@234@XZ
  ?CreateEmptyObjectLiteral@BytecodeArrayBuilder@interpreter@internal@v8@@QEAAAEAV1234@XZ
  ?CreateEntriesForRuntimeCallStats@ProfilerCodeObserver@internal@v8@@AEAAXXZ
  ?CreateEnvironment@node@@YAPEAVEnvironment@1@PEAVIsolateData@1@V?$Local@VContext@v8@@@v8@@AEBV?$vector@V?$basic_string@DU?$char_traits@D@std@@V?$allocator@D@2@@std@@V?$allocator@V?$basic_string@DU?$char_traits@D@std@@V?$allocator@D@2@@std@@@2@@std@@2W4Flags@EnvironmentFlags@1@UThreadId@1@V?$unique_ptr@UInspectorParentHandle@node@@U?$default_delete@UInspectorParentHandle@node@@@std@@@7@@Z
  ?CreateEvalContext@BytecodeArrayBuilder@interpreter@internal@v8@@QEAAAEAV1234@PEBVScope@34@H@Z
  ?CreateFillerObjectAt@Heap@internal@v8@@AEAA?AVHeapObject@23@_KHW4ClearFreedMemoryMode@23@@Z
  ?CreateFillerObjectAt@Heap@internal@v8@@QEAA?AVHeapObject@23@_KHW4ClearRecordedSlots@23@@Z
  ?CreateFillerObjectAt@LocalHeap@internal@v8@@QEAAX_KHW4ClearRecordedSlots@23@@Z
  ?CreateForEachStatementTDZ@Parser@internal@v8@@AEAAPEAVBlock@23@PEAV423@AEBUForInfo@?$ParserBase@VParser@internal@v8@@@23@@Z
  ?CreateForEmptyFunction@ScopeInfo@internal@v8@@SA?AV?$Handle@VScopeInfo@internal@v8@@@23@PEAVIsolate@23@@Z
  ?CreateForFunction@ScopeIterator@debug@v8@@SA?AV?$unique_ptr@VScopeIterator@debug@v8@@U?$default_delete@VScopeIterator@debug@v8@@@std@@@std@@PEAVIsolate@3@V?$Local@VFunction@v8@@@3@@Z
  ?CreateForGeneratorObject@ScopeIterator@debug@v8@@SA?AV?$unique_ptr@VScopeIterator@debug@v8@@U?$default_delete@VScopeIterator@debug@v8@@@std@@@std@@PEAVIsolate@3@V?$Local@VObject@v8@@@3@@Z
  ?CreateForWithScope@ScopeInfo@internal@v8@@SA?AV?$Handle@VScopeInfo@internal@v8@@@23@PEAVIsolate@23@V?$MaybeHandle@VScopeInfo@internal@v8@@@23@@Z
  ?CreateFrameAccessState@CodeGenerator@compiler@internal@v8@@AEAAXPEAVFrame@234@@Z
  ?CreateFrameStateFunctionInfo@CommonOperatorBuilder@compiler@internal@v8@@QEAAPEBVFrameStateFunctionInfo@234@W4FrameStateType@234@HHV?$Handle@VSharedFunctionInfo@internal@v8@@@34@@Z
  ?CreateFreeList@FreeList@internal@v8@@SAPEAV123@XZ
  ?CreateFunctionContext@BytecodeArrayBuilder@interpreter@internal@v8@@QEAAAEAV1234@PEBVScope@34@H@Z
  ?CreateFunctionContext@JSOperatorBuilder@compiler@internal@v8@@QEAAPEBVOperator@234@AEBVScopeInfoRef@234@HW4ScopeType@34@@Z
  ?CreateGeneratorObject@JSOperatorBuilder@compiler@internal@v8@@QEAAPEBVOperator@234@XZ
  ?CreateHandle@HandleScope@v8@@KAPEA_KPEAVIsolate@internal@2@_K@Z
  ?CreateHistogram@Histogram@internal@v8@@AEBAPEAXXZ
  ?CreateInitializerFunction@Parser@internal@v8@@AEAAPEAVFunctionLiteral@23@PEBDPEAVDeclarationScope@23@PEAVStatement@23@@Z
  ?CreateIsolateData@node@@YAPEAVIsolateData@1@PEAVIsolate@v8@@PEAUuv_loop_s@@PEAVMultiIsolatePlatform@1@PEAVArrayBufferAllocator@1@@Z
  ?CreateIterResultObject@JSOperatorBuilder@compiler@internal@v8@@QEAAPEBVOperator@234@XZ
  ?CreateJSFunction@WebSnapshotDeserializer@internal@v8@@AEAA?AV?$Handle@VJSFunction@internal@v8@@@23@HIIIII@Z
  ?CreateJSToWasmFrameStateFunctionInfo@CommonOperatorBuilder@compiler@internal@v8@@QEAAPEBVFrameStateFunctionInfo@234@W4FrameStateType@234@HHV?$Handle@VSharedFunctionInfo@internal@v8@@@34@PEBV?$Signature@VValueType@wasm@internal@v8@@@34@@Z
  ?CreateKeyValueArray@JSOperatorBuilder@compiler@internal@v8@@QEAAPEBVOperator@234@XZ
  ?CreateLiteralArray@JSOperatorBuilder@compiler@internal@v8@@QEAAPEBVOperator@234@AEBVArrayBoilerplateDescriptionRef@234@AEBUFeedbackSource@234@HH@Z
  ?CreateLiteralObject@JSOperatorBuilder@compiler@internal@v8@@QEAAPEBVOperator@234@AEBVObjectBoilerplateDescriptionRef@234@AEBUFeedbackSource@234@HH@Z
  ?CreateLiteralRegExp@JSOperatorBuilder@compiler@internal@v8@@QEAAPEBVOperator@234@AEBVStringRef@234@AEBUFeedbackSource@234@H@Z
  ?CreateMaterializedEquivalent@BytecodeRegisterOptimizer@interpreter@internal@v8@@AEAAXPEAVRegisterInfo@1234@@Z
  ?CreateMessage@Exception@v8@@SA?AV?$Local@VMessage@v8@@@2@PEAVIsolate@2@V?$Local@VValue@v8@@@2@@Z
  ?CreateMessage@Isolate@internal@v8@@QEAA?AV?$Handle@VJSMessageObject@internal@v8@@@23@V?$Handle@VObject@internal@v8@@@23@PEAVMessageLocation@23@@Z
  ?CreateMessageFromException@Isolate@internal@v8@@QEAA?AV?$Handle@VJSMessageObject@internal@v8@@@23@V?$Handle@VObject@internal@v8@@@23@@Z
  ?CreateMessageFromException@debug@v8@@YA?AV?$Local@VMessage@v8@@@2@PEAVIsolate@2@V?$Local@VValue@v8@@@2@@Z
  ?CreateMessageOrAbort@Isolate@internal@v8@@QEAA?AV?$Handle@VJSMessageObject@internal@v8@@@23@V?$Handle@VObject@internal@v8@@@23@PEAVMessageLocation@23@@Z
  ?CreateNewBuffer@AsyncStreamingDecoder@wasm@internal@v8@@AEAAPEAVSectionBuffer@1234@IE_KV?$Vector@$$CBE@base@4@@Z
  ?CreateNodeFromPredecessors@RawMachineAssembler@compiler@internal@v8@@AEAAPEAVNode@234@AEBV?$vector@PEAVBasicBlock@compiler@internal@v8@@V?$allocator@PEAVBasicBlock@compiler@internal@v8@@@std@@@std@@AEBV?$vector@PEAVNode@compiler@internal@v8@@V?$allocator@PEAVNode@compiler@internal@v8@@@std@@@7@PEBVOperator@234@1@Z
  ?CreateObject@JSOperatorBuilder@compiler@internal@v8@@QEAAPEBVOperator@234@XZ
  ?CreateObjectLiteral@BytecodeArrayBuilder@interpreter@internal@v8@@QEAAAEAV1234@_KHH@Z
  ?CreatePlatform@node@@YAPEAVMultiIsolatePlatform@1@HPEAVTracingController@v8@@@Z
  ?CreatePrivateNameVariable@Parser@internal@v8@@AEAAPEAVVariable@23@PEAVClassScope@23@W4VariableMode@23@W4IsStaticFlag@23@PEBVAstRawString@23@@Z
  ?CreatePromise@JSOperatorBuilder@compiler@internal@v8@@QEAAPEBVOperator@234@XZ
  ?CreateRange@TypeCache@compiler@internal@v8@@AEAA?AVType@234@NN@Z
  ?CreateRegExpLiteral@BytecodeArrayBuilder@interpreter@internal@v8@@QEAAAEAV1234@PEBVAstRawString@34@HH@Z
  ?CreateReservedEntry@ConstantArrayBuilder@interpreter@internal@v8@@QEAA?AW4OperandSize@234@XZ
  ?CreateScopeInfo@WebSnapshotDeserializer@internal@v8@@AEAA?AV?$Handle@VScopeInfo@internal@v8@@@23@I_NW4ContextType@WebSnapshotSerializerDeserializer@23@@Z
  ?CreateSharedMemoryHandleForTesting@OS@base@v8@@SA_J_K@Z
  ?CreateSloppyFunctionMap@Factory@internal@v8@@QEAA?AV?$Handle@VMap@internal@v8@@@23@W4FunctionMode@23@V?$MaybeHandle@VJSFunction@internal@v8@@@23@@Z
  ?CreateSnapshotDataBlobInternal@internal@v8@@YA?AVStartupData@2@W4FunctionCodeHandling@SnapshotCreator@2@PEBDPEAVIsolate@2@@Z
  ?CreateStackFrameInfo@FrameSummary@internal@v8@@QEBA?AV?$Handle@VStackFrameInfo@internal@v8@@@23@XZ
  ?CreateStrictFunctionMap@Factory@internal@v8@@QEAA?AV?$Handle@VMap@internal@v8@@@23@W4FunctionMode@23@V?$Handle@VJSFunction@internal@v8@@@23@@Z
  ?CreateStringIterator@JSOperatorBuilder@compiler@internal@v8@@QEAAPEBVOperator@234@XZ
  ?CreateSubReservation@AddressSpaceReservation@base@v8@@QEAA?AV?$Optional@VAddressSpaceReservation@base@v8@@@23@PEAX_KW4MemoryPermission@OS@23@@Z
  ?CreateSyncStreamingDecoder@StreamingDecoder@wasm@internal@v8@@SA?AV?$unique_ptr@VStreamingDecoder@wasm@internal@v8@@U?$default_delete@VStreamingDecoder@wasm@internal@v8@@@std@@@std@@PEAVIsolate@34@AEBVWasmFeatures@234@V?$Handle@VContext@internal@v8@@@34@PEBDV?$shared_ptr@VCompilationResultResolver@wasm@internal@v8@@@6@@Z
  ?CreateSyntheticContextVariable@Parser@internal@v8@@AEAAPEAVVariable@23@PEBVAstRawString@23@@Z
  ?CreateSyntheticModule@Module@v8@@SA?AV?$Local@VModule@v8@@@2@PEAVIsolate@2@V?$Local@VString@v8@@@2@AEBV?$vector@V?$Local@VString@v8@@@v8@@V?$allocator@V?$Local@VString@v8@@@v8@@@std@@@std@@P6A?AV?$MaybeLocal@VValue@v8@@@2@V?$Local@VContext@v8@@@2@V32@@Z@Z
  ?CreateThreadLocalKey@Thread@base@v8@@SAHXZ
  ?CreateTimezoneCache@OS@base@v8@@SAPEAVTimezoneCache@23@XZ
  ?CreateTraced@GlobalHandles@internal@v8@@QEAA?AV?$Handle@VObject@internal@v8@@@23@VObject@23@PEA_KW4GlobalHandleStoreMode@23@@Z
  ?CreateTraced@GlobalHandles@internal@v8@@QEAA?AV?$Handle@VObject@internal@v8@@@23@VObject@23@PEA_KW4GlobalHandleStoreMode@23@_N@Z
  ?CreateTraced@GlobalHandles@internal@v8@@QEAA?AV?$Handle@VObject@internal@v8@@@23@_KPEA_KW4GlobalHandleStoreMode@23@@Z
  ?CreateTypedArray@JSOperatorBuilder@compiler@internal@v8@@QEAAPEBVOperator@234@XZ
  ?CreateWithContext@BytecodeArrayBuilder@interpreter@internal@v8@@QEAAAEAV1234@VRegister@234@PEBVScope@34@@Z
  ?CreateWithContext@JSOperatorBuilder@compiler@internal@v8@@QEAAPEBVOperator@234@AEBVScopeInfoRef@234@@Z
  ?CreationContext@Object@v8@@QEAA?AV?$Local@VContext@v8@@@2@XZ
  ?CreationContext@Object@v8@@SA?AV?$Local@VContext@v8@@@2@AEBV?$PersistentBase@VObject@v8@@@2@@Z
  ?CtrlTable@SwissNameDictionary@internal@v8@@AEAAPEACXZ
  ?CtrlTableSize@SwissNameDictionary@internal@v8@@SAHH@Z
  ?CtrlTableStartOffset@SwissNameDictionary@internal@v8@@SAHH@Z
  ?Current@Isolate@internal@v8@@SAPEAV123@XZ
  ?Current@LocalHeap@internal@v8@@SAPEAV123@XZ
  ?Current@SourceLocation@cppgc@@SA?AV12@XZ
  ?CurrentAllocationThroughputInBytesPerMillisecond@GCTracer@internal@v8@@QEBANXZ
  ?CurrentBlock@RawMachineAssembler@compiler@internal@v8@@AEAAPEAVBasicBlock@234@XZ
  ?CurrentEmbeddedBlobCode@Isolate@internal@v8@@SAPEBEXZ
  ?CurrentEmbeddedBlobCodeSize@Isolate@internal@v8@@SAIXZ
  ?CurrentEmbeddedBlobData@Isolate@internal@v8@@SAPEBEXZ
  ?CurrentEmbeddedBlobDataSize@Isolate@internal@v8@@SAIXZ
  ?CurrentEmbeddedBlobIsBinaryEmbedded@Isolate@internal@v8@@SA_NXZ
  ?CurrentEmbedderAllocationThroughputInBytesPerMillisecond@GCTracer@internal@v8@@QEBANXZ
  ?CurrentEpoch@GCTracer@internal@v8@@QEBAIW4ScopeId@Scope@123@@Z
  ?CurrentFrameCount@Debug@internal@v8@@AEAAHXZ
  ?CurrentLiteralAsCString@Scanner@internal@v8@@QEBAPEBDPEAVZone@23@@Z
  ?CurrentLocalHeap@Isolate@internal@v8@@QEAAPEAVLocalHeap@23@XZ
  ?CurrentMarkCompactMutatorUtilization@GCTracer@internal@v8@@QEBANXZ
  ?CurrentMarkingBarrier@WriteBarrier@internal@v8@@SAPEAVMarkingBarrier@23@PEAVHeap@23@@Z
  ?CurrentMatches@Scanner@internal@v8@@QEBA_NW4Value@Token@23@@Z
  ?CurrentOldGenerationAllocationThroughputInBytesPerMillisecond@GCTracer@internal@v8@@QEBANXZ
  ?CurrentPerIsolateThreadData@Isolate@internal@v8@@SAPEAVPerIsolateThreadData@123@XZ
  ?CurrentRawSymbol@Scanner@internal@v8@@QEBAPEBVAstRawString@23@PEAVAstValueFactory@23@@Z
  ?CurrentScriptNameOrSourceURL@Isolate@internal@v8@@QEAA?AV?$Handle@VString@internal@v8@@@23@XZ
  ?CurrentScriptNameOrSourceURL@StackTrace@v8@@SA?AV?$Local@VString@v8@@@2@PEAVIsolate@2@@Z
  ?CurrentSourcePosition@BytecodeArrayBuilder@interpreter@internal@v8@@AEAA?AVBytecodeSourceInfo@234@W4Bytecode@234@@Z
  ?CurrentStackTrace@StackTrace@v8@@SA?AV?$Local@VStackTrace@v8@@@2@PEAVIsolate@2@HW4StackTraceOptions@12@@Z
  ?CurrentSymbol@Scanner@internal@v8@@QEBAPEBVAstRawString@23@PEAVAstValueFactory@23@@Z
  ?CurrentTimeToMarkingTask@IncrementalMarking@internal@v8@@AEBANXZ
  ?CustomSpace@RawHeap@internal@cppgc@@QEAAPEAVBaseSpace@23@UCustomSpaceIndex@3@@Z
  ?CustomSpace@RawHeap@internal@cppgc@@QEBAPEBVBaseSpace@23@UCustomSpaceIndex@3@@Z
  ?Cvtlsi2sd@TurboAssembler@internal@v8@@QEAAXVXMMRegister@23@VOperand@23@@Z
  ?Cvtlsi2sd@TurboAssembler@internal@v8@@QEAAXVXMMRegister@23@VRegister@23@@Z
  ?Cvtlsi2ss@TurboAssembler@internal@v8@@QEAAXVXMMRegister@23@VOperand@23@@Z
  ?Cvtlsi2ss@TurboAssembler@internal@v8@@QEAAXVXMMRegister@23@VRegister@23@@Z
  ?Cvtlui2sd@TurboAssembler@internal@v8@@QEAAXVXMMRegister@23@VOperand@23@@Z
  ?Cvtlui2sd@TurboAssembler@internal@v8@@QEAAXVXMMRegister@23@VRegister@23@@Z
  ?Cvtlui2ss@TurboAssembler@internal@v8@@QEAAXVXMMRegister@23@VOperand@23@@Z
  ?Cvtlui2ss@TurboAssembler@internal@v8@@QEAAXVXMMRegister@23@VRegister@23@@Z
  ?Cvtqsi2sd@TurboAssembler@internal@v8@@QEAAXVXMMRegister@23@VOperand@23@@Z
  ?Cvtqsi2sd@TurboAssembler@internal@v8@@QEAAXVXMMRegister@23@VRegister@23@@Z
  ?Cvtqsi2ss@TurboAssembler@internal@v8@@QEAAXVXMMRegister@23@VOperand@23@@Z
  ?Cvtqsi2ss@TurboAssembler@internal@v8@@QEAAXVXMMRegister@23@VRegister@23@@Z
  ?Cvtqui2sd@TurboAssembler@internal@v8@@QEAAXVXMMRegister@23@VOperand@23@@Z
  ?Cvtqui2sd@TurboAssembler@internal@v8@@QEAAXVXMMRegister@23@VRegister@23@@Z
  ?Cvtqui2ss@TurboAssembler@internal@v8@@QEAAXVXMMRegister@23@VOperand@23@@Z
  ?Cvtqui2ss@TurboAssembler@internal@v8@@QEAAXVXMMRegister@23@VRegister@23@@Z
  ?Cvtsd2ss@TurboAssembler@internal@v8@@QEAAXVXMMRegister@23@0@Z
  ?Cvtsd2ss@TurboAssembler@internal@v8@@QEAAXVXMMRegister@23@VOperand@23@@Z
  ?Cvtss2sd@TurboAssembler@internal@v8@@QEAAXVXMMRegister@23@0@Z
  ?Cvtss2sd@TurboAssembler@internal@v8@@QEAAXVXMMRegister@23@VOperand@23@@Z
  ?Cvttsd2si@TurboAssembler@internal@v8@@QEAAXVRegister@23@VOperand@23@@Z
  ?Cvttsd2si@TurboAssembler@internal@v8@@QEAAXVRegister@23@VXMMRegister@23@@Z
  ?Cvttsd2siq@TurboAssembler@internal@v8@@QEAAXVRegister@23@VOperand@23@@Z
  ?Cvttsd2siq@TurboAssembler@internal@v8@@QEAAXVRegister@23@VXMMRegister@23@@Z
  ?Cvttsd2uiq@TurboAssembler@internal@v8@@QEAAXVRegister@23@VOperand@23@PEAVLabel@23@@Z
  ?Cvttsd2uiq@TurboAssembler@internal@v8@@QEAAXVRegister@23@VXMMRegister@23@PEAVLabel@23@@Z
  ?Cvttss2si@TurboAssembler@internal@v8@@QEAAXVRegister@23@VOperand@23@@Z
  ?Cvttss2si@TurboAssembler@internal@v8@@QEAAXVRegister@23@VXMMRegister@23@@Z
  ?Cvttss2siq@TurboAssembler@internal@v8@@QEAAXVRegister@23@VOperand@23@@Z
  ?Cvttss2siq@TurboAssembler@internal@v8@@QEAAXVRegister@23@VXMMRegister@23@@Z
  ?Cvttss2uiq@TurboAssembler@internal@v8@@QEAAXVRegister@23@VOperand@23@PEAVLabel@23@@Z
  ?Cvttss2uiq@TurboAssembler@internal@v8@@QEAAXVRegister@23@VXMMRegister@23@PEAVLabel@23@@Z
  ?DCheckImpl@internal@cppgc@@YAXPEBDAEBVSourceLocation@2@@Z
  ?DFSPop@ControlEquivalence@compiler@internal@v8@@AEAAXAEAV?$ZoneStack@UDFSStackEntry@ControlEquivalence@compiler@internal@v8@@@34@PEAVNode@234@@Z
  ?DFSPush@ControlEquivalence@compiler@internal@v8@@AEAAXAEAV?$ZoneStack@UDFSStackEntry@ControlEquivalence@compiler@internal@v8@@@34@PEAVNode@234@1W4DFSDirection@1234@@Z
  ?DOM@ReasonEnum@Paused@API@Debugger@protocol@v8_inspector@@3PEBDEB
  ?Data@ArrayBuffer@v8@@QEBAPEAXXZ
  ?Data@BackingStore@v8@@QEBAPEAXXZ
  ?Data@Buffer@node@@YAPEADV?$Local@VObject@v8@@@v8@@@Z
  ?Data@Buffer@node@@YAPEADV?$Local@VValue@v8@@@v8@@@Z
  ?Data@SharedArrayBuffer@v8@@QEBAPEAXXZ
  ?DataAlign@Assembler@internal@v8@@QEAAXH@Z
  ?DataConstant@Descriptor@internal@v8@@SA?AV123@PEAVIsolate@23@V?$Handle@VName@internal@v8@@@23@HV?$Handle@VObject@internal@v8@@@23@W4PropertyAttributes@23@@Z
  ?DataConstant@Descriptor@internal@v8@@SA?AV123@V?$Handle@VName@internal@v8@@@23@V?$Handle@VObject@internal@v8@@@23@W4PropertyAttributes@23@@Z
  ?DataField@Descriptor@internal@v8@@SA?AV123@PEAVIsolate@23@V?$Handle@VName@internal@v8@@@23@HW4PropertyAttributes@23@VRepresentation@23@@Z
  ?DataField@Descriptor@internal@v8@@SA?AV123@V?$Handle@VName@internal@v8@@@23@HW4PropertyAttributes@23@W4PropertyConstness@23@VRepresentation@23@AEBVMaybeObjectHandle@23@@Z
  ?DataTableEndOffset@SwissNameDictionary@internal@v8@@SAHH@Z
  ?DataTableSize@SwissNameDictionary@internal@v8@@SAHH@Z
  ?DataTableStartOffset@SwissNameDictionary@internal@v8@@SAHXZ
  ?DateNow@SimplifiedOperatorBuilder@compiler@internal@v8@@QEAAPEBVOperator@234@XZ
  ?DateTimeConfigurationChangeNotification@Isolate@v8@@QEAAXW4TimeZoneDetection@12@@Z
  ?Date_string@Factory@internal@v8@@QEAA?AV?$Handle@VString@internal@v8@@@23@XZ
  ?Date_string@LocalFactory@internal@v8@@QEAA?AV?$Handle@VString@internal@v8@@@23@XZ
  ?DaylightSavingsOffsetInMs@DateCache@internal@v8@@AEAAH_J@Z
  ?DaysFromTime@DateCache@internal@v8@@SAH_J@Z
  ?DaysFromYearMonth@DateCache@internal@v8@@QEAAHHH@Z
  ?Dead@CommonOperatorBuilder@compiler@internal@v8@@QEAAPEBVOperator@234@XZ
  ?Dead@MachineGraph@compiler@internal@v8@@QEAAPEAVNode@234@XZ
  ?DeadValue@CommonOperatorBuilder@compiler@internal@v8@@QEAAPEBVOperator@234@W4MachineRepresentation@34@@Z
  ?DeadValue@DeadCodeElimination@compiler@internal@v8@@AEAAPEAVNode@234@PEAV5234@W4MachineRepresentation@34@@Z
  ?DebugBreak@CodeAssembler@compiler@internal@v8@@QEAAXXZ
  ?DebugBreak@GraphAssembler@compiler@internal@v8@@QEAAPEAVNode@234@XZ
  ?DebugBreak@MachineOperatorBuilder@compiler@internal@v8@@QEAAPEBVOperator@234@XZ
  ?DebugBreak@OS@base@v8@@SAXXZ
  ?DebugBreak@RawMachineAssembler@compiler@internal@v8@@QEAAXXZ
  ?DebugBreak@TurboAssembler@internal@v8@@QEAAXXZ
  ?DebugCommand@ReasonEnum@Paused@API@Debugger@protocol@v8_inspector@@3PEBDEB
  ?DebugName@CallInterfaceDescriptor@internal@v8@@QEBAPEBDXZ
  ?DebugName@WasmCode@wasm@internal@v8@@AEBA?AV?$basic_string@DU?$char_traits@D@std@@V?$allocator@D@2@@std@@XZ
  ?Debugger@BytecodeArrayBuilder@interpreter@internal@v8@@QEAAAEAV1234@XZ
  ?Debugger@JSOperatorBuilder@compiler@internal@v8@@QEAAPEBVOperator@234@XZ
  ?DecRef@CodeEntryStorage@internal@v8@@QEAAXPEAVCodeEntry@23@@Z
  ?DecRef@WasmCode@wasm@internal@v8@@QEAA_NXZ
  ?DecRefOnDeadCode@WasmCode@wasm@internal@v8@@QEAA_NXZ
  ?DecRefOnLiveCode@WasmCode@wasm@internal@v8@@QEAAXXZ
  ?DecRefOnPotentiallyDeadCode@WasmCode@wasm@internal@v8@@AEAA_NXZ
  ?DecideCondition@CommonOperatorReducer@compiler@internal@v8@@AEAA?AW4Decision@234@QEAVNode@234@@Z
  ?Declare@Parser@internal@v8@@AEAAXPEAVDeclaration@23@PEBVAstRawString@23@W4VariableKind@23@W4VariableMode@23@W4InitializationFlag@23@PEAVScope@23@PEA_NHH@Z
  ?Declare@Scope@internal@v8@@AEAAPEAVVariable@23@PEAVZone@23@PEBVAstRawString@23@W4VariableMode@23@W4VariableKind@23@W4InitializationFlag@23@W4MaybeAssignedFlag@23@PEA_N@Z
  ?DeclareAndBindVariable@Parser@internal@v8@@AEAAXPEAVVariableProxy@23@W4VariableKind@23@W4VariableMode@23@PEAVScope@23@PEA_NH@Z
  ?DeclareArguments@DeclarationScope@internal@v8@@QEAAXPEAVAstValueFactory@23@@Z
  ?DeclareArrowFunctionFormalParameters@Parser@internal@v8@@AEAAXPEAUParserFormalParameters@23@PEAVExpression@23@AEBULocation@Scanner@23@@Z
  ?DeclareBoundVariable@Parser@internal@v8@@AEAAPEAVVariableProxy@23@PEBVAstRawString@23@W4VariableMode@23@H@Z
  ?DeclareBrandVariable@ClassScope@internal@v8@@QEAAPEAVVariable@23@PEAVAstValueFactory@23@W4IsStaticFlag@23@H@Z
  ?DeclareCatchVariableName@Parser@internal@v8@@AEAAPEAVVariable@23@PEAVScope@23@PEBVAstRawString@23@@Z
  ?DeclareCatchVariableName@Scope@internal@v8@@QEAAPEAVVariable@23@PEBVAstRawString@23@@Z
  ?DeclareClass@Parser@internal@v8@@AEAAPEAVStatement@23@PEBVAstRawString@23@PEAVExpression@23@PEAV?$ZoneList@PEBVAstRawString@internal@v8@@@23@HH@Z
  ?DeclareClassVariable@ClassScope@internal@v8@@QEAAPEAVVariable@23@PEAVAstValueFactory@23@PEBVAstRawString@23@H@Z
  ?DeclareClassVariable@Parser@internal@v8@@AEAAXPEAVClassScope@23@PEBVAstRawString@23@PEAUClassInfo@?$ParserBase@VParser@internal@v8@@@23@H@Z
  ?DeclareDefaultFunctionVariables@DeclarationScope@internal@v8@@QEAAXPEAVAstValueFactory@23@@Z
  ?DeclareDynamicGlobal@DeclarationScope@internal@v8@@QEAAPEAVVariable@23@PEBVAstRawString@23@W4VariableKind@23@PEAVScope@23@@Z
  ?DeclareFormalParameters@Parser@internal@v8@@AEAAXPEAUParserFormalParameters@23@@Z
  ?DeclareFunction@Parser@internal@v8@@AEAAPEAVStatement@23@PEBVAstRawString@23@PEAVFunctionLiteral@23@W4VariableMode@23@W4VariableKind@23@HHPEAV?$ZoneList@PEBVAstRawString@internal@v8@@@23@@Z
  ?DeclareFunctionNameVar@Parser@internal@v8@@AEAAXPEBVAstRawString@23@W4FunctionSyntaxKind@23@PEAVDeclarationScope@23@@Z
  ?DeclareFunctionVar@DeclarationScope@internal@v8@@QEAAPEAVVariable@23@PEBVAstRawString@23@PEAVScope@23@@Z
  ?DeclareGeneratorObjectVar@DeclarationScope@internal@v8@@QEAAPEAVVariable@23@PEBVAstRawString@23@@Z
  ?DeclareHomeObjectVariable@Scope@internal@v8@@QEAAPEAVVariable@23@PEAVAstValueFactory@23@@Z
  ?DeclareIdentifier@Parser@internal@v8@@AEAAXPEBVAstRawString@23@H@Z
  ?DeclareLabel@?$ParserBase@VParser@internal@v8@@@internal@v8@@IEAAXPEAPEAV?$ZoneList@PEBVAstRawString@internal@v8@@@23@0PEBVAstRawString@23@@Z
  ?DeclareLocal@Scope@internal@v8@@QEAAPEAVVariable@23@PEBVAstRawString@23@W4VariableMode@23@W4VariableKind@23@PEA_NW4InitializationFlag@23@@Z
  ?DeclareNative@Parser@internal@v8@@AEAAPEAVStatement@23@PEBVAstRawString@23@H@Z
  ?DeclareParameter@DeclarationScope@internal@v8@@QEAAPEAVVariable@23@PEBVAstRawString@23@W4VariableMode@23@_N2PEAVAstValueFactory@23@H@Z
  ?DeclarePrivateClassMember@Parser@internal@v8@@AEAAXPEAVClassScope@23@PEBVAstRawString@23@PEAVClassLiteralProperty@23@W4Kind@623@_NPEAUClassInfo@?$ParserBase@VParser@internal@v8@@@23@@Z
  ?DeclarePrivateName@ClassScope@internal@v8@@QEAAPEAVVariable@23@PEBVAstRawString@23@W4VariableMode@23@W4IsStaticFlag@23@PEA_N@Z
  ?DeclarePublicClassField@Parser@internal@v8@@AEAAXPEAVClassScope@23@PEAVClassLiteralProperty@23@_N2PEAUClassInfo@?$ParserBase@VParser@internal@v8@@@23@@Z
  ?DeclarePublicClassMethod@Parser@internal@v8@@AEAAXPEBVAstRawString@23@PEAVClassLiteralProperty@23@_NPEAUClassInfo@?$ParserBase@VParser@internal@v8@@@23@@Z
  ?DeclareSloppyBlockFunction@DeclarationScope@internal@v8@@QEAAXPEAVSloppyBlockFunctionStatement@23@@Z
  ?DeclareStaticHomeObjectVariable@Scope@internal@v8@@QEAAPEAVVariable@23@PEAVAstValueFactory@23@@Z
  ?DeclareThis@DeclarationScope@internal@v8@@QEAAXPEAVAstValueFactory@23@@Z
  ?DeclareUnboundVariable@Parser@internal@v8@@AEAAXPEBVAstRawString@23@W4VariableMode@23@W4InitializationFlag@23@H@Z
  ?DeclareVariable@Parser@internal@v8@@AEAAPEAVVariable@23@PEBVAstRawString@23@W4VariableKind@23@W4VariableMode@23@W4InitializationFlag@23@PEAVScope@23@PEA_NHH@Z
  ?DeclareVariable@Scope@internal@v8@@QEAAPEAVVariable@23@PEAVDeclaration@23@PEBVAstRawString@23@HW4VariableMode@23@W4VariableKind@23@W4InitializationFlag@23@PEA_N55@Z
  ?DeclareVariableName@Scope@internal@v8@@QEAAPEAVVariable@23@PEBVAstRawString@23@W4VariableMode@23@PEA_NW4VariableKind@23@@Z
  ?Decode@BytecodeDecoder@interpreter@internal@v8@@SAAEAV?$basic_ostream@DU?$char_traits@D@std@@@std@@AEAV56@PEBE@Z
  ?Decode@Disassembler@internal@v8@@SAHPEAVIsolate@23@AEAV?$basic_ostream@DU?$char_traits@D@std@@@std@@PEAE2VCodeReference@23@_K@Z
  ?DecodeBytes@node@@YA_JPEAVIsolate@v8@@V?$Local@VValue@v8@@@3@W4encoding@1@@Z
  ?DecodeCustomSections@wasm@internal@v8@@YA?AV?$vector@UCustomSectionOffset@wasm@internal@v8@@V?$allocator@UCustomSectionOffset@wasm@internal@v8@@@std@@@std@@PEBE0@Z
  ?DecodeExternalPointerImpl@internal@v8@@YA_KPEBVIsolate@12@_KW4ExternalPointerTag@12@@Z
  ?DecodeI32ExceptionValue@internal@v8@@YAXV?$Handle@VFixedArray@internal@v8@@@12@PEAI1@Z
  ?DecodeI64ExceptionValue@internal@v8@@YAXV?$Handle@VFixedArray@internal@v8@@@12@PEAIPEA_K@Z
  ?DecodeLocalDecls@wasm@internal@v8@@YA_NAEBVWasmFeatures@123@PEAUBodyLocalDecls@123@PEBUWasmModule@123@PEBE3@Z
  ?DecodeMapping@WasmModuleSourceMap@wasm@internal@v8@@AEAA_NAEBV?$basic_string@DU?$char_traits@D@std@@V?$allocator@D@2@@std@@@Z
  ?DecodeRegisterListOperand@BytecodeDecoder@interpreter@internal@v8@@SA?AVRegisterList@234@_KIW4OperandType@234@W4OperandScale@234@@Z
  ?DecodeRegisterOperand@BytecodeDecoder@interpreter@internal@v8@@SA?AVRegister@234@_KW4OperandType@234@W4OperandScale@234@@Z
  ?DecodeSLeb128@EhFrameIterator@internal@v8@@CAHPEBEPEAH@Z
  ?DecodeSandboxedPointer@TurboAssembler@internal@v8@@QEAAXVRegister@23@@Z
  ?DecodeSignedOperand@BytecodeDecoder@interpreter@internal@v8@@SAH_KW4OperandType@234@W4OperandScale@234@@Z
  ?DecodeULeb128@EhFrameIterator@internal@v8@@CAIPEBEPEAH@Z
  ?DecodeUnsignedOperand@BytecodeDecoder@interpreter@internal@v8@@SAI_KW4OperandType@234@W4OperandScale@234@@Z
  ?DecodeWasmFunctionForTesting@wasm@internal@v8@@YA?AV?$Result@V?$unique_ptr@UWasmFunction@wasm@internal@v8@@U?$default_delete@UWasmFunction@wasm@internal@v8@@@std@@@std@@@123@AEBVWasmFeatures@123@PEAVZone@23@AEBUModuleWireBytes@123@PEBUWasmModule@123@PEBE4PEAVCounters@23@@Z
  ?DecodeWasmInitExprForTesting@wasm@internal@v8@@YA?AVConstantExpression@123@AEBVWasmFeatures@123@PEBE1VValueType@123@@Z
  ?DecodeWasmModule@wasm@internal@v8@@YA?AV?$Result@V?$shared_ptr@UWasmModule@wasm@internal@v8@@@std@@@123@AEBVWasmFeatures@123@PEBE1_NW4ModuleOrigin@123@PEAVCounters@23@V?$shared_ptr@VRecorder@metrics@internal@v8@@@std@@VContextId@Recorder@metrics@3@W4DecodingMethod@123@PEAVAccountingAllocator@23@@Z
  ?DecodeWasmSignatureForTesting@wasm@internal@v8@@YAPEBV?$Signature@VValueType@wasm@internal@v8@@@23@AEBVWasmFeatures@123@PEAVZone@23@PEBE2@Z
  ?DecodeWrite@node@@YA_JPEAVIsolate@v8@@PEAD_KV?$Local@VValue@v8@@@3@W4encoding@1@@Z
  ?Decommit@WasmCodeManager@wasm@internal@v8@@AEAAXVAddressRegion@base@4@@Z
  ?DecommitPages@AddressSpaceReservation@base@v8@@QEAA_NPEAX_K@Z
  ?DecommitPages@BoundedPageAllocator@base@v8@@UEAA_NPEAX_K@Z
  ?DecommitPages@OS@base@v8@@CA_NPEAX_K@Z
  ?DecommitPages@PageAllocator@base@v8@@UEAA_NPEAX_K@Z
  ?DecommitPages@VirtualAddressSpace@base@v8@@UEAA_N_K0@Z
  ?DecommitPages@VirtualAddressSubspace@base@v8@@UEAA_N_K0@Z
  ?Decompress@SnapshotCompression@internal@v8@@SA?AVSnapshotData@23@V?$Vector@$$CBE@base@3@@Z
  ?DecompressAnyTagged@TurboAssembler@internal@v8@@QEAAXVRegister@23@VOperand@23@@Z
  ?DecompressTaggedPointer@TurboAssembler@internal@v8@@QEAAXVRegister@23@0@Z
  ?DecompressTaggedPointer@TurboAssembler@internal@v8@@QEAAXVRegister@23@VOperand@23@@Z
  ?DecompressTaggedSigned@TurboAssembler@internal@v8@@QEAAXVRegister@23@VOperand@23@@Z
  ?Decorate@Graph@compiler@internal@v8@@QEAAXPEAVNode@234@@Z
  ?DecreaseAllocatedBytes@PagedSpace@internal@v8@@QEAAX_KPEAVPage@23@@Z
  ?DecreaseAllocatedSize@EmbedderHeapTracer@v8@@QEAAX_K@Z
  ?DecreaseAllocatedSize@LocalEmbedderHeapTracer@internal@v8@@QEAAX_K@Z
  ?DecreaseCapacity@PagedSpace@internal@v8@@QEAAX_K@Z
  ?DecreaseLimit@PagedSpace@internal@v8@@AEAAX_K@Z
  ?Decrement@JSOperatorBuilder@compiler@internal@v8@@QEAAPEBVOperator@234@AEBUFeedbackSource@234@@Z
  ?DecrementCommittedPhysicalMemory@PagedSpace@internal@v8@@QEAAX_K@Z
  ?DecrementCounter@MacroAssembler@internal@v8@@QEAAXPEAVStatsCounter@23@H@Z
  ?DecrementDiscardedMemory@StatsCollector@internal@cppgc@@QEAAX_K@Z
  ?DecrementExternalBackingStoreBytes@Space@internal@v8@@QEAAXW4ExternalBackingStoreType@23@_K@Z
  ?DecrementMicrotasksScopeDepth@MicrotaskQueue@internal@v8@@QEAAXXZ
  ?DecrementMicrotasksSuppressions@MicrotaskQueue@internal@v8@@QEAAXXZ
  ?DecrementRefCount@WasmCode@wasm@internal@v8@@SAXV?$Vector@QEAVWasmCode@wasm@internal@v8@@@base@4@@Z
  ?DecrementTracingIndentation@JSHeapBroker@compiler@internal@v8@@QEAAXXZ
  ?DecrementUnscheduledUseCount@Scheduler@compiler@internal@v8@@AEAAXPEAVNode@234@0@Z
  ?Default@AssemblerOptions@internal@v8@@SA?AU123@PEAVIsolate@23@@Z
  ?Default@MeasureMemoryDelegate@v8@@SA?AV?$unique_ptr@VMeasureMemoryDelegate@v8@@U?$default_delete@VMeasureMemoryDelegate@v8@@@std@@@std@@PEAVIsolate@2@V?$Local@VContext@v8@@@2@V?$Local@VResolver@Promise@v8@@@2@W4MeasureMemoryMode@2@@Z
  ?Default@RegisterConfiguration@internal@v8@@SAPEBV123@XZ
  ?DefaultConstructor@Parser@internal@v8@@AEAAPEAVFunctionLiteral@23@PEBVAstRawString@23@_NHH@Z
  ?DefaultForOffHeapTrampoline@AssemblerOptions@internal@v8@@SA?AU123@PEAVIsolate@23@@Z
  ?DefaultJSRegisterArray@CallInterfaceDescriptor@internal@v8@@KA?AV?$array@VRegister@internal@v8@@$03@std@@XZ
  ?DefaultLocale@Isolate@internal@v8@@QEAAAEBV?$basic_string@DU?$char_traits@D@std@@V?$allocator@D@2@@std@@XZ
  ?DefaultLocale@LocalIsolate@internal@v8@@QEAAAEBV?$basic_string@DU?$char_traits@D@std@@V?$allocator@D@2@@std@@XZ
  ?DefaultLowering@Int64Lowering@compiler@internal@v8@@AEAA_NPEAVNode@234@_N@Z
  ?DefaultNumberOption@internal@v8@@YA?AV?$Maybe@H@2@PEAVIsolate@12@V?$Handle@VObject@internal@v8@@@12@HHHV?$Handle@VString@internal@v8@@@12@@Z
  ?DefaultProcessExitHandler@node@@YAXPEAVEnvironment@1@H@Z
  ?DefaultRegisterArray@CallInterfaceDescriptor@internal@v8@@KA@XZ
  ?DefaultRepresentation@InstructionSequence@compiler@internal@v8@@SA?AW4MachineRepresentation@34@XZ
  ?DefaultSchedulerData@Scheduler@compiler@internal@v8@@AEAA?AUSchedulerData@1234@XZ
  ?DeferTraceToMutatorThreadIfConcurrent@ConcurrentMarkingVisitor@internal@cppgc@@MEAA_NPEBXP6AXPEAVVisitor@3@0@Z_K@Z
  ?DeferTraceToMutatorThreadIfConcurrent@ConcurrentUnifiedHeapMarkingVisitor@internal@v8@@MEAA_NPEBXP6AXPEAVVisitor@cppgc@@0@Z_K@Z
  ?DeferTraceToMutatorThreadIfConcurrent@Visitor@cppgc@@UEAA_NPEBXP6AXPEAV12@0@Z_K@Z
  ?DefineAccessor@JSObject@internal@v8@@SA?AV?$MaybeHandle@VObject@internal@v8@@@23@V?$Handle@VJSObject@internal@v8@@@23@V?$Handle@VName@internal@v8@@@23@V?$Handle@VObject@internal@v8@@@23@2W4PropertyAttributes@23@@Z
  ?DefineDeoptimizationLiteral@CodeGenerator@compiler@internal@v8@@AEAAHVDeoptimizationLiteral@234@@Z
  ?DefineKeyedOwnProperty@BytecodeArrayBuilder@interpreter@internal@v8@@QEAAAEAV1234@VRegister@234@0H@Z
  ?DefineKeyedOwnProperty@JSOperatorBuilder@compiler@internal@v8@@QEAAPEBVOperator@234@W4LanguageMode@34@AEBUFeedbackSource@234@@Z
  ?DefineKeyedOwnPropertyInLiteral@BytecodeArrayBuilder@interpreter@internal@v8@@QEAAAEAV1234@VRegister@234@0V?$Flags@W4DefineKeyedOwnPropertyInLiteralFlag@internal@v8@@H@base@4@H@Z
  ?DefineKeyedOwnPropertyInLiteral@JSOperatorBuilder@compiler@internal@v8@@QEAAPEBVOperator@234@AEBUFeedbackSource@234@@Z
  ?DefineNamedOwnIC@CodeFactory@internal@v8@@SA?AVCallable@23@PEAVIsolate@23@@Z
  ?DefineNamedOwnICInOptimizedCode@CodeFactory@internal@v8@@SA?AVCallable@23@PEAVIsolate@23@@Z
  ?DefineNamedOwnProperty@BytecodeArrayBuilder@interpreter@internal@v8@@QEAAAEAV1234@VRegister@234@PEBVAstRawString@34@H@Z
  ?DefineNamedOwnProperty@JSOperatorBuilder@compiler@internal@v8@@QEAAPEBVOperator@234@AEBVNameRef@234@AEBUFeedbackSource@234@@Z
  ?DefineObjectOwnProperty@Runtime@internal@v8@@SA?AV?$MaybeHandle@VObject@internal@v8@@@23@PEAVIsolate@23@V?$Handle@VObject@internal@v8@@@23@11W4StoreOrigin@23@@Z
  ?DefineOwnProperty@Object@v8@@QEAA?AV?$Maybe@_N@2@V?$Local@VContext@v8@@@2@V?$Local@VName@v8@@@2@V?$Local@VValue@v8@@@2@W4PropertyAttribute@2@@Z
  ?DefineProperty@Object@v8@@QEAA?AV?$Maybe@_N@2@V?$Local@VContext@v8@@@2@V?$Local@VName@v8@@@2@AEAVPropertyDescriptor@2@@Z
  ?DefinePropertyOrElementIgnoreAttributes@JSObject@internal@v8@@SA?AV?$MaybeHandle@VObject@internal@v8@@@23@V?$Handle@VJSObject@internal@v8@@@23@V?$Handle@VName@internal@v8@@@23@V?$Handle@VObject@internal@v8@@@23@W4PropertyAttributes@23@@Z
  ?Deinit@Isolate@internal@v8@@AEAAXXZ
  ?Delay@Recorder@metrics@internal@v8@@AEAAX$$QEAV?$unique_ptr@VDelayedEventBase@Recorder@metrics@internal@v8@@U?$default_delete@VDelayedEventBase@Recorder@metrics@internal@v8@@@std@@@std@@@Z
  ?DelayedStringConstant@CommonOperatorBuilder@compiler@internal@v8@@QEAAPEBVOperator@234@PEBVStringConstantBase@34@@Z
  ?Delete@?$OrderedHashTable@VOrderedHashMap@internal@v8@@$01@internal@v8@@SA_NPEAVIsolate@23@VOrderedHashMap@23@VObject@23@@Z
  ?Delete@?$OrderedHashTable@VOrderedHashSet@internal@v8@@$00@internal@v8@@SA_NPEAVIsolate@23@VOrderedHashSet@23@VObject@23@@Z
  ?Delete@?$OrderedHashTable@VOrderedNameDictionary@internal@v8@@$02@internal@v8@@SA_NPEAVIsolate@23@VOrderedNameDictionary@23@VObject@23@@Z
  ?Delete@?$OrderedHashTableHandler@VSmallOrderedHashMap@internal@v8@@VOrderedHashMap@23@@internal@v8@@SA_NPEAVIsolate@23@V?$Handle@VHeapObject@internal@v8@@@23@V?$Handle@VObject@internal@v8@@@23@@Z
  ?Delete@?$OrderedHashTableHandler@VSmallOrderedHashSet@internal@v8@@VOrderedHashSet@23@@internal@v8@@SA_NPEAVIsolate@23@V?$Handle@VHeapObject@internal@v8@@@23@V?$Handle@VObject@internal@v8@@@23@@Z
  ?Delete@?$OrderedHashTableHandler@VSmallOrderedNameDictionary@internal@v8@@VOrderedNameDictionary@23@@internal@v8@@SA_NPEAVIsolate@23@V?$Handle@VHeapObject@internal@v8@@@23@V?$Handle@VObject@internal@v8@@@23@@Z
  ?Delete@?$SmallOrderedHashTable@VSmallOrderedHashMap@internal@v8@@@internal@v8@@SA_NPEAVIsolate@23@VSmallOrderedHashMap@23@VObject@23@@Z
  ?Delete@?$SmallOrderedHashTable@VSmallOrderedHashSet@internal@v8@@@internal@v8@@SA_NPEAVIsolate@23@VSmallOrderedHashSet@23@VObject@23@@Z
  ?Delete@BytecodeArrayBuilder@interpreter@internal@v8@@QEAAAEAV1234@VRegister@234@W4LanguageMode@34@@Z
  ?Delete@CpuProfile@v8@@QEAAXXZ
  ?Delete@HeapSnapshot@v8@@QEAAXXZ
  ?Delete@Isolate@internal@v8@@SAXPEAV123@@Z
  ?Delete@LookupIterator@internal@v8@@QEAAXXZ
  ?Delete@Map@v8@@QEAA?AV?$Maybe@_N@2@V?$Local@VContext@v8@@@2@V?$Local@VValue@v8@@@2@@Z
  ?Delete@Object@v8@@QEAA?AV?$Maybe@_N@2@V?$Local@VContext@v8@@@2@I@Z
  ?Delete@Object@v8@@QEAA?AV?$Maybe@_N@2@V?$Local@VContext@v8@@@2@V?$Local@VValue@v8@@@2@@Z
  ?Delete@Set@v8@@QEAA?AV?$Maybe@_N@2@V?$Local@VContext@v8@@@2@V?$Local@VValue@v8@@@2@@Z
  ?Delete@SmallOrderedHashMap@internal@v8@@SA_NPEAVIsolate@23@V123@VObject@23@@Z
  ?Delete@SmallOrderedHashSet@internal@v8@@SA_NPEAVIsolate@23@V123@VObject@23@@Z
  ?DeleteAll@Zone@internal@v8@@AEAAXXZ
  ?DeleteAllHeapSnapshots@HeapProfiler@v8@@QEAAXXZ
  ?DeleteAllProfiles@CpuProfiler@internal@v8@@QEAAXXZ
  ?DeleteCodeAfter@WasmFunctionBuilder@wasm@internal@v8@@QEAAX_K@Z
  ?DeleteCompileJobsOnContext@WasmEngine@wasm@internal@v8@@QEAAXV?$Handle@VContext@internal@v8@@@34@@Z
  ?DeleteCompileJobsOnIsolate@WasmEngine@wasm@internal@v8@@QEAAXPEAVIsolate@34@@Z
  ?DeleteEntry@?$Dictionary@VGlobalDictionary@internal@v8@@VGlobalDictionaryShape@23@@internal@v8@@SA?AV?$Handle@VGlobalDictionary@internal@v8@@@23@PEAVIsolate@23@V423@VInternalIndex@23@@Z
  ?DeleteEntry@?$Dictionary@VNameDictionary@internal@v8@@VNameDictionaryShape@23@@internal@v8@@SA?AV?$Handle@VNameDictionary@internal@v8@@@23@PEAVIsolate@23@V423@VInternalIndex@23@@Z
  ?DeleteEntry@?$Dictionary@VNumberDictionary@internal@v8@@VNumberDictionaryShape@23@@internal@v8@@SA?AV?$Handle@VNumberDictionary@internal@v8@@@23@PEAVIsolate@23@V423@VInternalIndex@23@@Z
  ?DeleteEntry@?$Dictionary@VSimpleNumberDictionary@internal@v8@@VSimpleNumberDictionaryShape@23@@internal@v8@@SA?AV?$Handle@VSimpleNumberDictionary@internal@v8@@@23@PEAVIsolate@23@V423@VInternalIndex@23@@Z
  ?DeleteEntry@IdentityMapBase@internal@v8@@IEAA_N_KPEA_K@Z
  ?DeleteEntry@OrderedNameDictionary@internal@v8@@SA?AV?$Handle@VOrderedNameDictionary@internal@v8@@@23@PEAVIsolate@23@V423@VInternalIndex@23@@Z
  ?DeleteEntry@OrderedNameDictionaryHandler@internal@v8@@SA?AV?$Handle@VHeapObject@internal@v8@@@23@PEAVIsolate@23@V423@VInternalIndex@23@@Z
  ?DeleteEntry@SmallOrderedNameDictionary@internal@v8@@SA?AV?$Handle@VSmallOrderedNameDictionary@internal@v8@@@23@PEAVIsolate@23@V423@VInternalIndex@23@@Z
  ?DeleteEntry@SwissNameDictionary@internal@v8@@SA?AV?$Handle@VSwissNameDictionary@internal@v8@@@23@PEAVIsolate@23@V423@VInternalIndex@23@@Z
  ?DeleteExtensions@HandleScope@internal@v8@@SAXPEAVIsolate@23@@Z
  ?DeleteIndex@IdentityMapBase@internal@v8@@AEAA_NHPEA_K@Z
  ?DeleteJob@LazyCompileDispatcher@internal@v8@@AEAAXPEAUJob@123@@Z
  ?DeleteJob@LazyCompileDispatcher@internal@v8@@AEAAXPEAUJob@123@AEBV?$LockGuard@VMutex@base@v8@@$0A@@base@3@@Z
  ?DeleteObjectProperty@Runtime@internal@v8@@SA?AV?$Maybe@_N@3@PEAVIsolate@23@V?$Handle@VJSReceiver@internal@v8@@@23@V?$Handle@VObject@internal@v8@@@23@W4LanguageMode@23@@Z
  ?DeletePrivate@Object@v8@@QEAA?AV?$Maybe@_N@2@V?$Local@VContext@v8@@@2@V?$Local@VPrivate@v8@@@2@@Z
  ?DeleteProfile@CpuProfiler@internal@v8@@QEAAXPEAVCpuProfile@23@@Z
  ?DeleteProperty@JSOperatorBuilder@compiler@internal@v8@@QEAAPEBVOperator@234@XZ
  ?DeleteProperty@JSReceiver@internal@v8@@SA?AV?$Maybe@_N@3@V?$Handle@VJSReceiver@internal@v8@@@23@V?$Handle@VName@internal@v8@@@23@W4LanguageMode@23@@Z
  ?DeletePropertyOrElement@JSReceiver@internal@v8@@SA?AV?$Maybe@_N@3@V?$Handle@VJSReceiver@internal@v8@@@23@V?$Handle@VName@internal@v8@@@23@W4LanguageMode@23@@Z
  ?DeleteThreadLocalKey@Thread@base@v8@@SAXH@Z
  ?DeleteUnresolved@Scope@internal@v8@@QEAAXPEAVVariableProxy@23@@Z
  ?Deoptimize@CommonOperatorBuilder@compiler@internal@v8@@QEAAPEBVOperator@234@W4DeoptimizeReason@34@AEBUFeedbackSource@234@@Z
  ?DeoptimizeAll@Deoptimizer@internal@v8@@SAXPEAVIsolate@23@@Z
  ?DeoptimizeFunction@Debug@internal@v8@@QEAAXV?$Handle@VSharedFunctionInfo@internal@v8@@@23@@Z
  ?DeoptimizeIf@CommonOperatorBuilder@compiler@internal@v8@@QEAAPEBVOperator@234@W4DeoptimizeReason@34@AEBUFeedbackSource@234@@Z
  ?DeoptimizeIf@GraphAssembler@compiler@internal@v8@@QEAAPEAVNode@234@W4DeoptimizeReason@34@AEBUFeedbackSource@234@PEAV5234@2@Z
  ?DeoptimizeIfNot@GraphAssembler@compiler@internal@v8@@QEAAPEAVNode@234@W4DeoptimizeReason@34@AEBUFeedbackSource@234@PEAV5234@2@Z
  ?DeoptimizeReasonToString@internal@v8@@YAPEBDW4DeoptimizeReason@12@@Z
  ?DeoptimizeUnless@CommonOperatorBuilder@compiler@internal@v8@@QEAAPEBVOperator@234@W4DeoptimizeReason@34@AEBUFeedbackSource@234@@Z
  ?DependOnArrayBufferDetachingProtector@CompilationDependencies@compiler@internal@v8@@QEAA_NXZ
  ?DependOnArrayIteratorProtector@CompilationDependencies@compiler@internal@v8@@QEAA_NXZ
  ?DependOnArraySpeciesProtector@CompilationDependencies@compiler@internal@v8@@QEAA_NXZ
  ?DependOnConsistentJSFunctionView@CompilationDependencies@compiler@internal@v8@@QEAAXAEBVJSFunctionRef@234@@Z
  ?DependOnConstantInDictionaryPrototypeChain@CompilationDependencies@compiler@internal@v8@@QEAAXAEBVMapRef@234@AEBVNameRef@234@AEBVObjectRef@234@W4PropertyKind@34@@Z
  ?DependOnElementsKind@CompilationDependencies@compiler@internal@v8@@QEAAXAEBVAllocationSiteRef@234@@Z
  ?DependOnElementsKinds@CompilationDependencies@compiler@internal@v8@@QEAAXAEBVAllocationSiteRef@234@@Z
  ?DependOnFieldConstness@CompilationDependencies@compiler@internal@v8@@QEAA?AW4PropertyConstness@34@AEBVMapRef@234@VInternalIndex@34@@Z
  ?DependOnGlobalProperty@CompilationDependencies@compiler@internal@v8@@QEAAXAEBVPropertyCellRef@234@@Z
  ?DependOnInitialMap@CompilationDependencies@compiler@internal@v8@@QEAA?AVMapRef@234@AEBVJSFunctionRef@234@@Z
  ?DependOnInitialMapInstanceSizePrediction@CompilationDependencies@compiler@internal@v8@@QEAA?AVSlackTrackingPrediction@234@AEBVJSFunctionRef@234@@Z
  ?DependOnNoElementsProtector@CompilationDependencies@compiler@internal@v8@@QEAA_NXZ
  ?DependOnObjectSlotValue@CompilationDependencies@compiler@internal@v8@@QEAAXAEBVHeapObjectRef@234@HAEBVObjectRef@234@@Z
  ?DependOnOwnConstantDataProperty@CompilationDependencies@compiler@internal@v8@@QEAAXAEBVJSObjectRef@234@AEBVMapRef@234@VRepresentation@34@VFieldIndex@34@AEBVObjectRef@234@@Z
  ?DependOnOwnConstantDictionaryProperty@CompilationDependencies@compiler@internal@v8@@QEAAXAEBVJSObjectRef@234@VInternalIndex@34@AEBVObjectRef@234@@Z
  ?DependOnOwnConstantElement@CompilationDependencies@compiler@internal@v8@@QEAAXAEBVJSObjectRef@234@IAEBVObjectRef@234@@Z
  ?DependOnPretenureMode@CompilationDependencies@compiler@internal@v8@@QEAA?AW4AllocationType@34@AEBVAllocationSiteRef@234@@Z
  ?DependOnPromiseHookProtector@CompilationDependencies@compiler@internal@v8@@QEAA_NXZ
  ?DependOnPromiseSpeciesProtector@CompilationDependencies@compiler@internal@v8@@QEAA_NXZ
  ?DependOnPromiseThenProtector@CompilationDependencies@compiler@internal@v8@@QEAA_NXZ
  ?DependOnProtector@CompilationDependencies@compiler@internal@v8@@QEAA_NAEBVPropertyCellRef@234@@Z
  ?DependOnPrototypeProperty@CompilationDependencies@compiler@internal@v8@@QEAA?AVObjectRef@234@AEBVJSFunctionRef@234@@Z
  ?DependOnStableMap@CompilationDependencies@compiler@internal@v8@@QEAAXAEBVMapRef@234@@Z
  ?DependOnStablePrototypeChains@CompilationDependencies@compiler@internal@v8@@QEAAXAEBV?$ZoneVector@VMapRef@compiler@internal@v8@@@34@W4WhereToStart@34@V?$Optional@VJSObjectRef@compiler@internal@v8@@@base@4@@Z
  ?Description@Symbol@v8@@QEBA?AV?$Local@VValue@v8@@@2@PEAVIsolate@2@@Z
  ?Deserialize@ContextDeserializer@internal@v8@@AEAA?AV?$MaybeHandle@VObject@internal@v8@@@23@PEAVIsolate@23@V?$Handle@VJSGlobalProxy@internal@v8@@@23@UDeserializeInternalFieldsCallback@3@@Z
  ?Deserialize@WebSnapshotDeserializer@internal@v8@@QEAA_NV?$MaybeHandle@VFixedArray@internal@v8@@@23@_N@Z
  ?DeserializeArrays@WebSnapshotDeserializer@internal@v8@@AEAAXXZ
  ?DeserializeClasses@WebSnapshotDeserializer@internal@v8@@AEAAXXZ
  ?DeserializeContext@ContextDeserializer@internal@v8@@SA?AV?$MaybeHandle@VContext@internal@v8@@@23@PEAVIsolate@23@PEBVSnapshotData@23@_NV?$Handle@VJSGlobalProxy@internal@v8@@@23@UDeserializeInternalFieldsCallback@3@@Z
  ?DeserializeContexts@WebSnapshotDeserializer@internal@v8@@AEAAXXZ
  ?DeserializeDeferredObjects@?$Deserializer@VIsolate@internal@v8@@@internal@v8@@IEAAXXZ
  ?DeserializeDeferredObjects@?$Deserializer@VLocalIsolate@internal@v8@@@internal@v8@@IEAAXXZ
  ?DeserializeEmbedderFields@ContextDeserializer@internal@v8@@AEAAXUDeserializeInternalFieldsCallback@3@@Z
  ?DeserializeExports@WebSnapshotDeserializer@internal@v8@@AEAAX_N@Z
  ?DeserializeFunctions@WebSnapshotDeserializer@internal@v8@@AEAAXXZ
  ?DeserializeMaps@WebSnapshotDeserializer@internal@v8@@AEAAXXZ
  ?DeserializeNativeModule@wasm@internal@v8@@YA?AV?$MaybeHandle@VWasmModuleObject@internal@v8@@@23@PEAVIsolate@23@V?$Vector@$$CBE@base@3@1V?$Vector@$$CBD@73@@Z
  ?DeserializeObjects@WebSnapshotDeserializer@internal@v8@@AEAAXXZ
  ?DeserializeReceiver@DeclarationScope@internal@v8@@QEAAXPEAVAstValueFactory@23@@Z
  ?DeserializeScript@WebSnapshotDeserializer@internal@v8@@AEAA_NXZ
  ?DeserializeSnapshot@WebSnapshotDeserializer@internal@v8@@AEAA_N_N@Z
  ?DeserializeStrings@WebSnapshotDeserializer@internal@v8@@AEAAXXZ
  ?Destroy@BasePage@internal@cppgc@@SAXPEAV123@@Z
  ?Destroy@GlobalHandles@internal@v8@@SAXPEA_K@Z
  ?Destroy@LargePage@internal@cppgc@@SAXPEAV123@@Z
  ?Destroy@NormalPage@internal@cppgc@@SAXPEAV123@@Z
  ?DestroySharedMemoryHandle@OS@base@v8@@SAX_J@Z
  ?DestroyTracedReference@GlobalHandles@internal@v8@@SAXPEA_K@Z
  ?DesugarBindingInForEachStatement@Parser@internal@v8@@AEAAXPEAUForInfo@?$ParserBase@VParser@internal@v8@@@23@PEAPEAVBlock@23@PEAPEAVExpression@23@@Z
  ?DesugarLexicalBindingsInForStatement@Parser@internal@v8@@AEAAPEAVStatement@23@PEAVForStatement@23@PEAV423@PEAVExpression@23@11PEAVScope@23@AEBUForInfo@?$ParserBase@VParser@internal@v8@@@23@@Z
  ?Detach@ArrayBuffer@v8@@QEAAXXZ
  ?Detach@JSArrayBuffer@internal@v8@@QEAAX_N@Z
  ?Detach@PersistentHandlesScope@internal@v8@@QEAA?AV?$unique_ptr@VPersistentHandles@internal@v8@@U?$default_delete@VPersistentHandles@internal@v8@@@std@@@std@@XZ
  ?DetachAt@LiveRange@compiler@internal@v8@@QEAAPEAVUsePosition@234@VLifetimePosition@234@PEAV1234@PEAVZone@34@W4HintConnectionOption@1234@@Z
  ?DetachCanonicalHandles@CanonicalHandleScope@internal@v8@@IEAA?AV?$unique_ptr@V?$IdentityMap@PEA_KVZoneAllocationPolicy@internal@v8@@@internal@v8@@U?$default_delete@V?$IdentityMap@PEA_KVZoneAllocationPolicy@internal@v8@@@internal@v8@@@std@@@std@@XZ
  ?DetachCanonicalHandles@JSHeapBroker@compiler@internal@v8@@AEAA?AV?$unique_ptr@V?$IdentityMap@PEA_KVZoneAllocationPolicy@internal@v8@@@internal@v8@@U?$default_delete@V?$IdentityMap@PEA_KVZoneAllocationPolicy@internal@v8@@@internal@v8@@@std@@@std@@XZ
  ?DetachCanonicalHandles@OptimizedCompilationInfo@internal@v8@@QEAA?AV?$unique_ptr@V?$IdentityMap@PEA_KVZoneAllocationPolicy@internal@v8@@@internal@v8@@U?$default_delete@V?$IdentityMap@PEA_KVZoneAllocationPolicy@internal@v8@@@internal@v8@@@std@@@std@@XZ
  ?DetachCppHeap@Heap@internal@v8@@QEAAXXZ
  ?DetachCppHeap@Isolate@v8@@QEAAXXZ
  ?DetachFromSharedIsolate@Isolate@internal@v8@@AEAAXXZ
  ?DetachGlobal@Context@v8@@QEAAXXZ
  ?DetachGlobal@Isolate@internal@v8@@QEAAXV?$Handle@VContext@internal@v8@@@23@@Z
  ?DetachIsolate@CppHeap@internal@v8@@QEAAXXZ
  ?DetachLocalIsolate@JSHeapBroker@compiler@internal@v8@@QEAAXPEAVOptimizedCompilationInfo@34@@Z
  ?DetachPersistentHandles@JSHeapBroker@compiler@internal@v8@@AEAA?AV?$unique_ptr@VPersistentHandles@internal@v8@@U?$default_delete@VPersistentHandles@internal@v8@@@std@@@std@@XZ
  ?DetachPersistentHandles@LocalHeap@internal@v8@@QEAA?AV?$unique_ptr@VPersistentHandles@internal@v8@@U?$default_delete@VPersistentHandles@internal@v8@@@std@@@std@@XZ
  ?DetachPersistentHandles@OptimizedCompilationInfo@internal@v8@@QEAA?AV?$unique_ptr@VPersistentHandles@internal@v8@@U?$default_delete@VPersistentHandles@internal@v8@@@std@@@std@@XZ
  ?DetailsAt@?$Dictionary@VGlobalDictionary@internal@v8@@VGlobalDictionaryShape@23@@internal@v8@@QEAA?AVPropertyDetails@23@VInternalIndex@23@@Z
  ?DetailsAt@?$Dictionary@VNameDictionary@internal@v8@@VNameDictionaryShape@23@@internal@v8@@QEAA?AVPropertyDetails@23@VInternalIndex@23@@Z
  ?DetailsAt@?$Dictionary@VNumberDictionary@internal@v8@@VNumberDictionaryShape@23@@internal@v8@@QEAA?AVPropertyDetails@23@VInternalIndex@23@@Z
  ?DetailsAt@?$Dictionary@VSimpleNumberDictionary@internal@v8@@VSimpleNumberDictionaryShape@23@@internal@v8@@QEAA?AVPropertyDetails@23@VInternalIndex@23@@Z
  ?DetailsAt@OrderedNameDictionary@internal@v8@@QEAA?AVPropertyDetails@23@VInternalIndex@23@@Z
  ?DetailsAt@OrderedNameDictionaryHandler@internal@v8@@SA?AVPropertyDetails@23@VHeapObject@23@VInternalIndex@23@@Z
  ?DetailsAt@SwissNameDictionary@internal@v8@@AEAA?AVPropertyDetails@23@H@Z
  ?DetailsAt@SwissNameDictionary@internal@v8@@QEAA?AVPropertyDetails@23@VInternalIndex@23@@Z
  ?DetailsAtPut@?$Dictionary@VGlobalDictionary@internal@v8@@VGlobalDictionaryShape@23@@internal@v8@@QEAAXVInternalIndex@23@VPropertyDetails@23@@Z
  ?DetailsAtPut@?$Dictionary@VNameDictionary@internal@v8@@VNameDictionaryShape@23@@internal@v8@@QEAAXVInternalIndex@23@VPropertyDetails@23@@Z
  ?DetailsAtPut@?$Dictionary@VNumberDictionary@internal@v8@@VNumberDictionaryShape@23@@internal@v8@@QEAAXVInternalIndex@23@VPropertyDetails@23@@Z
  ?DetailsAtPut@?$Dictionary@VSimpleNumberDictionary@internal@v8@@VSimpleNumberDictionaryShape@23@@internal@v8@@QEAAXVInternalIndex@23@VPropertyDetails@23@@Z
  ?DetailsAtPut@OrderedNameDictionary@internal@v8@@QEAAXVInternalIndex@23@VPropertyDetails@23@@Z
  ?DetailsAtPut@OrderedNameDictionaryHandler@internal@v8@@SAXVHeapObject@23@VInternalIndex@23@VPropertyDetails@23@@Z
  ?DetailsAtPut@SwissNameDictionary@internal@v8@@AEAAXHVPropertyDetails@23@@Z
  ?DetailsAtPut@SwissNameDictionary@internal@v8@@QEAAXVInternalIndex@23@VPropertyDetails@23@@Z
  ?DetectableCallable@Type@compiler@internal@v8@@SA?AV1234@XZ
  ?DetectableObject@Type@compiler@internal@v8@@SA?AV1234@XZ
  ?DetectableReceiver@Type@compiler@internal@v8@@SA?AV1234@XZ
  ?DetectableReceiverOrNull@Type@compiler@internal@v8@@SA?AV1234@XZ
  ?DetermineParticipation@ControlEquivalence@compiler@internal@v8@@AEAAXPEAVNode@234@@Z
  ?DetermineParticipationEnqueue@ControlEquivalence@compiler@internal@v8@@AEAAXAEAV?$ZoneQueue@PEAVNode@compiler@internal@v8@@@34@PEAVNode@234@@Z
  ?DetermineStubCallMode@CodeGenerator@compiler@internal@v8@@AEBA?AW4StubCallMode@34@XZ
  ?DidAllocateDoubleRegisters@Frame@compiler@internal@v8@@QEBA_NXZ
  ?DidFinishModuleAsyncEvaluation@Isolate@internal@v8@@QEAAXI@Z
  ?DijkstraMarkingBarrier@WriteBarrier@internal@cppgc@@SAXAEBUParams@123@PEBX@Z
  ?DijkstraMarkingBarrierRange@WriteBarrier@internal@cppgc@@SAXAEBUParams@123@PEBX_K2P6AXPEAVVisitor@3@1@Z@Z
  ?DijkstraMarkingBarrierRangeSlow@WriteBarrier@internal@cppgc@@CAXAEAVHeapHandle@3@PEBX_K2P6AXPEAVVisitor@3@1@Z@Z
  ?DijkstraMarkingBarrierSlow@WriteBarrier@internal@cppgc@@CAXPEBX@Z
  ?DijkstraMarkingBarrierSlowWithSentinelCheck@WriteBarrier@internal@cppgc@@CAXPEBX@Z
  ?DirectorySeparator@OS@base@v8@@SADXZ
  ?Disable@CodeEventHandler@v8@@QEAAXXZ
  ?DisableEmbeddedBlobRefcounting@internal@v8@@YAXXZ
  ?DisableForTesting@HeapGrowing@internal@cppgc@@QEAAXXZ
  ?DisableHeapGrowingForTesting@Heap@internal@cppgc@@QEAAXXZ
  ?DisableInlineAllocation@Heap@internal@v8@@QEAAXXZ
  ?DisableInterrupts@StackGuard@internal@v8@@AEAAXXZ
  ?DisableIteration@IdentityMapBase@internal@v8@@IEAAXXZ
  ?DisableLogging@CpuProfiler@internal@v8@@AEAAXXZ
  ?DisableMarkingBarrier@GlobalHandles@internal@v8@@SAXPEAVIsolate@23@@Z
  ?DisableMemorySavingsMode@Isolate@internal@v8@@QEAAXXZ
  ?DisableMemorySavingsMode@Isolate@v8@@QEAAXXZ
  ?DisableScriptAndEval@CompilationCache@internal@v8@@QEAAXXZ
  ?DisableSignalStackDump@debug@base@v8@@YAXXZ
  ?Disassemble@BytecodeArray@internal@v8@@QEAAXAEAV?$basic_ostream@DU?$char_traits@D@std@@@std@@@Z
  ?Disassemble@Code@internal@v8@@QEAAXPEBDAEAV?$basic_ostream@DU?$char_traits@D@std@@@std@@PEAVIsolate@23@_K@Z
  ?Disassemble@Disassembler@disasm@@SAXPEAU_iobuf@@PEAE1W4UnimplementedOpcodeAction@12@@Z
  ?Disassemble@WasmCode@wasm@internal@v8@@QEBAXPEBDAEAV?$basic_ostream@DU?$char_traits@D@std@@@std@@_K@Z
  ?DiscardAllBaselineCode@Debug@internal@v8@@QEAAXXZ
  ?DiscardBaselineCode@Debug@internal@v8@@QEAAXVSharedFunctionInfo@23@@Z
  ?DiscardCompiled@SharedFunctionInfo@internal@v8@@SAXPEAVIsolate@23@V?$Handle@VSharedFunctionInfo@internal@v8@@@23@@Z
  ?DiscardPerThreadDataForThisThread@Isolate@internal@v8@@QEAAXXZ
  ?DiscardReservedEntry@ConstantArrayBuilder@interpreter@internal@v8@@QEAAXW4OperandSize@234@@Z
  ?DiscardSystemPages@AddressSpaceReservation@base@v8@@QEAA_NPEAX_K@Z
  ?DiscardSystemPages@BoundedPageAllocator@base@v8@@UEAA_NPEAX_K@Z
  ?DiscardSystemPages@OS@base@v8@@CA_NPEAX_K@Z
  ?DiscardSystemPages@PageAllocator@base@v8@@UEAA_NPEAX_K@Z
  ?DiscardSystemPages@VirtualAddressSpace@base@v8@@UEAA_N_K0@Z
  ?DiscardSystemPages@VirtualAddressSubspace@base@v8@@UEAA_N_K0@Z
  ?DiscardThreadSpecificMetadata@Isolate@v8@@QEAAXXZ
  ?Discover@WebSnapshotSerializer@internal@v8@@AEAAXV?$Handle@VHeapObject@internal@v8@@@23@@Z
  ?DiscoverArray@WebSnapshotSerializer@internal@v8@@AEAAXV?$Handle@VJSArray@internal@v8@@@23@@Z
  ?DiscoverClass@WebSnapshotSerializer@internal@v8@@AEAAXV?$Handle@VJSFunction@internal@v8@@@23@@Z
  ?DiscoverContext@WebSnapshotSerializer@internal@v8@@AEAAXV?$Handle@VContext@internal@v8@@@23@@Z
  ?DiscoverContextAndPrototype@WebSnapshotSerializer@internal@v8@@AEAAXV?$Handle@VJSFunction@internal@v8@@@23@@Z
  ?DiscoverFunction@WebSnapshotSerializer@internal@v8@@AEAAXV?$Handle@VJSFunction@internal@v8@@@23@@Z
  ?DiscoverMap@WebSnapshotSerializer@internal@v8@@AEAAXV?$Handle@VMap@internal@v8@@@23@@Z
  ?DiscoverObject@WebSnapshotSerializer@internal@v8@@AEAAXV?$Handle@VJSObject@internal@v8@@@23@@Z
  ?DiscoverSource@WebSnapshotSerializer@internal@v8@@AEAAXV?$Handle@VJSFunction@internal@v8@@@23@@Z
  ?DiscoverString@WebSnapshotSerializer@internal@v8@@AEAAXV?$Handle@VString@internal@v8@@@23@W4AllowInPlace@123@@Z
  ?DispatchCodeEvent@ProfilerListener@internal@v8@@AEAAXAEBVCodeEventsContainer@23@@Z
  ?Dispose@CpuProfiler@v8@@QEAAXXZ
  ?Dispose@ExternalStringResourceBase@String@v8@@MEAAXXZ
  ?Dispose@Isolate@v8@@QEAAXXZ
  ?Dispose@V8@v8@@SA_NXZ
  ?DisposeGlobal@api_internal@v8@@YAXPEA_K@Z
  ?DisposeOncePerProcess@Isolate@internal@v8@@SAXXZ
  ?DisposePlatform@V8@v8@@SAXXZ
  ?DisposeTracedReference@internal@v8@@YAXPEA_K@Z
  ?DisposeTurbofanCompilationJob@Compiler@internal@v8@@SAXPEAVTurbofanCompilationJob@23@_N@Z
  ?Divide@JSOperatorBuilder@compiler@internal@v8@@QEAAPEBVOperator@234@AEBUFeedbackSource@234@@Z
  ?DivideModuloIntBignum@Bignum@base@v8@@QEAAGAEBV123@@Z
  ?DoBackgroundWork@LazyCompileDispatcher@internal@v8@@AEAAXPEAVJobDelegate@3@@Z
  ?DoIdleWork@LazyCompileDispatcher@internal@v8@@AEAAXN@Z
  ?DoIntegerToUint8Clamped@SimplifiedLowering@compiler@internal@v8@@QEAAXPEAVNode@234@@Z
  ?DoIntegral32ToBit@SimplifiedLowering@compiler@internal@v8@@QEAAXPEAVNode@234@@Z
  ?DoJSToNumberOrNumericTruncatesToFloat64@SimplifiedLowering@compiler@internal@v8@@QEAAXPEAVNode@234@PEAVRepresentationSelector@234@@Z
  ?DoJSToNumberOrNumericTruncatesToWord32@SimplifiedLowering@compiler@internal@v8@@QEAAXPEAVNode@234@PEAVRepresentationSelector@234@@Z
  ?DoLdar@BytecodeRegisterOptimizer@interpreter@internal@v8@@QEAAXVRegister@234@@Z
  ?DoMax@SimplifiedLowering@compiler@internal@v8@@QEAAXPEAVNode@234@PEBVOperator@234@W4MachineRepresentation@34@@Z
  ?DoMin@SimplifiedLowering@compiler@internal@v8@@QEAAXPEAVNode@234@PEBVOperator@234@W4MachineRepresentation@34@@Z
  ?DoMov@BytecodeRegisterOptimizer@interpreter@internal@v8@@QEAAXVRegister@234@0@Z
  ?DoNumberToBit@SimplifiedLowering@compiler@internal@v8@@QEAAXPEAVNode@234@@Z
  ?DoNumberToUint8Clamped@SimplifiedLowering@compiler@internal@v8@@QEAAXPEAVNode@234@@Z
  ?DoOrderedNumberToBit@SimplifiedLowering@compiler@internal@v8@@QEAAXPEAVNode@234@@Z
  ?DoParseDeserializedFunction@Parser@internal@v8@@AEAAPEAVFunctionLiteral@23@PEAVIsolate@23@V?$MaybeHandle@VScopeInfo@internal@v8@@@23@PEAVParseInfo@23@HHHPEBVAstRawString@23@@Z
  ?DoParseFunction@Parser@internal@v8@@AEAAPEAVFunctionLiteral@23@PEAVIsolate@23@PEAVParseInfo@23@HHHPEBVAstRawString@23@@Z
  ?DoParseMemberExpressionContinuation@?$ParserBase@VParser@internal@v8@@@internal@v8@@IEAAPEAVExpression@23@PEAV423@@Z
  ?DoParseProgram@Parser@internal@v8@@AEAAPEAVFunctionLiteral@23@PEAVIsolate@23@PEAVParseInfo@23@@Z
  ?DoPromiseChecks@JSCallReducer@compiler@internal@v8@@AEAA_NPEAVMapInference@234@@Z
  ?DoSample@Sampler@sampler@v8@@QEAAXXZ
  ?DoSigned32ToUint8Clamped@SimplifiedLowering@compiler@internal@v8@@QEAAXPEAVNode@234@@Z
  ?DoStar@BytecodeRegisterOptimizer@interpreter@internal@v8@@QEAAXVRegister@234@@Z
  ?DoUnsigned32ToUint8Clamped@SimplifiedLowering@compiler@internal@v8@@QEAAXPEAVNode@234@@Z
  ?Done@BreakIterator@internal@v8@@QEBA_NXZ
  ?Done@EhFrameIterator@internal@v8@@QEBA_NXZ
  ?DotPrintForTesting@RegExp@internal@v8@@SAXPEBDPEAVRegExpNode@23@@Z
  ?Double@AsmType@wasm@internal@v8@@SAPEAV1234@XZ
  ?DoubleQ@AsmType@wasm@internal@v8@@SAPEAV1234@XZ
  ?DoubleToAscii@base@v8@@YAXNW4DtoaMode@12@HV?$Vector@D@12@PEAH22@Z
  ?DoubleToCString@internal@v8@@YAPEBDNV?$Vector@D@base@2@@Z
  ?DoubleValue@Scanner@internal@v8@@QEAANXZ
  ?Drop@MacroAssembler@internal@v8@@QEAAXH@Z
  ?Drop@RegExpMacroAssemblerX64@internal@v8@@AEAAXXZ
  ?DropArguments@TurboAssembler@internal@v8@@IEAAXVRegister@23@W4ArgumentsCountType@123@W4ArgumentsCountMode@123@@Z
  ?DropArguments@TurboAssembler@internal@v8@@QEAAXVRegister@23@0W4ArgumentsCountType@123@W4ArgumentsCountMode@123@@Z
  ?DropArgumentsAndPushNewReceiver@TurboAssembler@internal@v8@@QEAAXVRegister@23@00W4ArgumentsCountType@123@W4ArgumentsCountMode@123@@Z
  ?DropArgumentsAndPushNewReceiver@TurboAssembler@internal@v8@@QEAAXVRegister@23@VOperand@23@0W4ArgumentsCountType@123@W4ArgumentsCountMode@123@@Z
  ?DropOldData@StringTable@internal@v8@@QEAAXXZ
  ?DropUnderReturnAddress@MacroAssembler@internal@v8@@QEAAXHVRegister@23@@Z
  ?DumpAndResetStats@Isolate@internal@v8@@QEAAXXZ
  ?DumpAndResetStats@Isolate@v8@@QEAAXXZ
  ?DumpAndResetTurboStatistics@WasmEngine@wasm@internal@v8@@QEAAXXZ
  ?DumpAsyncTaskStacksStateForTest@v8_inspector@@YAXPEAVV8Inspector@1@@Z
  ?DumpTurboStatistics@WasmEngine@wasm@internal@v8@@QEAAXXZ
  ?DuplicateConditionIfNeeded@BranchConditionDuplicator@compiler@internal@v8@@QEAAXPEAVNode@234@@Z
  ?DuplicateNode@BranchConditionDuplicator@compiler@internal@v8@@QEAAPEAVNode@234@PEAV5234@@Z
  ?DynamicGrowingFactor@?$MemoryController@UGlobalMemoryTrait@internal@v8@@@internal@v8@@CANNNN@Z
  ?DynamicGrowingFactor@?$MemoryController@UV8HeapTrait@internal@v8@@@internal@v8@@CANNNN@Z
  ?EffectInputCount@Operator@compiler@internal@v8@@QEBAHXZ
  ?EffectOutputCount@Operator@compiler@internal@v8@@QEBAHXZ
  ?EffectPhi@CommonOperatorBuilder@compiler@internal@v8@@QEAAPEBVOperator@234@H@Z
  ?ElapsedTime@CompilationJob@internal@v8@@IEBA?AVTimeDelta@base@3@XZ
  ?ElementAccessOf@compiler@internal@v8@@YAAEBUElementAccess@123@PEBVOperator@123@@Z
  ?ElementAdded@HashTableBase@internal@v8@@QEAAXXZ
  ?ElementRemoved@HashTableBase@internal@v8@@QEAAXXZ
  ?ElementSizeInBytes@AsmType@wasm@internal@v8@@QEAAHXZ
  ?ElementSizeInBytes@internal@v8@@YAHW4MachineRepresentation@12@@Z
  ?ElementSizeInPointers@internal@v8@@YAHW4MachineRepresentation@12@@Z
  ?ElementSizeLog2Of@internal@v8@@YAHW4MachineRepresentation@12@@Z
  ?ElementsKindToByteSize@internal@v8@@YAHW4ElementsKind@12@@Z
  ?ElementsKindToShiftSize@internal@v8@@YAHW4ElementsKind@12@@Z
  ?ElementsRemoved@HashTableBase@internal@v8@@QEAAXH@Z
  ?Eliminate@MoveOperands@compiler@internal@v8@@QEAAXXZ
  ?EliminateLoopExit@LoopPeeler@compiler@internal@v8@@SAXPEAVNode@234@@Z
  ?EliminateLoopExits@LoopPeeler@compiler@internal@v8@@SAXPEAVGraph@234@PEAVZone@34@@Z
  ?EliminateRedundantPhiNodes@Schedule@compiler@internal@v8@@AEAAXXZ
  ?Else@ConditionalControlFlowBuilder@interpreter@internal@v8@@QEAAXXZ
  ?EmbedderAllocationThroughputInBytesPerMillisecond@GCTracer@internal@v8@@QEBANN@Z
  ?EmbedderSizeOfObjects@Heap@internal@v8@@QEBA_KXZ
  ?EmbedderSpeedInBytesPerMillisecond@GCTracer@internal@v8@@QEBANXZ
  ?EmbedderStep@IncrementalMarking@internal@v8@@QEAA?AW4StepResult@23@NPEAN@Z
  ?EmbedderWriteBarrier@LocalEmbedderHeapTracer@internal@v8@@QEAAXPEAVHeap@23@VJSObject@23@@Z
  ?Emit16@RegExpBytecodeGenerator@internal@v8@@AEAAXI@Z
  ?Emit32@RegExpBytecodeGenerator@internal@v8@@AEAAXI@Z
  ?Emit8@RegExpBytecodeGenerator@internal@v8@@AEAAXI@Z
  ?Emit@InstructionSelector@compiler@internal@v8@@QEAAPEAVInstruction@234@IVInstructionOperand@234@000000_KPEAV6234@@Z
  ?Emit@InstructionSelector@compiler@internal@v8@@QEAAPEAVInstruction@234@IVInstructionOperand@234@00000_KPEAV6234@@Z
  ?Emit@InstructionSelector@compiler@internal@v8@@QEAAPEAVInstruction@234@IVInstructionOperand@234@0000_KPEAV6234@@Z
  ?Emit@InstructionSelector@compiler@internal@v8@@QEAAPEAVInstruction@234@IVInstructionOperand@234@000_KPEAV6234@@Z
  ?Emit@InstructionSelector@compiler@internal@v8@@QEAAPEAVInstruction@234@IVInstructionOperand@234@00_KPEAV6234@@Z
  ?Emit@InstructionSelector@compiler@internal@v8@@QEAAPEAVInstruction@234@IVInstructionOperand@234@0_KPEAV6234@@Z
  ?Emit@InstructionSelector@compiler@internal@v8@@QEAAPEAVInstruction@234@IVInstructionOperand@234@_KPEAV6234@@Z
  ?Emit@InstructionSelector@compiler@internal@v8@@QEAAPEAVInstruction@234@I_KPEAVInstructionOperand@234@0101@Z
  ?Emit@InstructionSelector@compiler@internal@v8@@QEAAPEAVInstruction@234@PEAV5234@@Z
  ?Emit@LocalDeclEncoder@wasm@internal@v8@@QEBA_KPEAE@Z
  ?Emit@RegExpBytecodeGenerator@internal@v8@@AEAAXIH@Z
  ?Emit@RegExpBytecodeGenerator@internal@v8@@AEAAXII@Z
  ?Emit@SafepointTableBuilder@internal@v8@@QEAAXPEAVAssembler@23@H@Z
  ?Emit@WasmFunctionBuilder@wasm@internal@v8@@QEAAXW4WasmOpcode@234@@Z
  ?EmitAsyncDestroy@node@@YAXPEAVEnvironment@1@Uasync_context@1@@Z
  ?EmitAsyncDestroy@node@@YAXPEAVIsolate@v8@@Uasync_context@1@@Z
  ?EmitAsyncInit@node@@YA?AUasync_context@1@PEAVIsolate@v8@@V?$Local@VObject@v8@@@4@PEBDN@Z
  ?EmitAsyncInit@node@@YA?AUasync_context@1@PEAVIsolate@v8@@V?$Local@VObject@v8@@@4@V?$Local@VString@v8@@@4@N@Z
  ?EmitBeforeExit@node@@YAXPEAVEnvironment@1@@Z
  ?EmitBinarySearchSwitch@InstructionSelector@compiler@internal@v8@@AEAAXAEBVSwitchInfo@234@AEBVInstructionOperand@234@@Z
  ?EmitByte@WasmFunctionBuilder@wasm@internal@v8@@QEAAXE@Z
  ?EmitBytecode@BytecodeArrayWriter@interpreter@internal@v8@@AEAAXQEBVBytecodeNode@234@@Z
  ?EmitCode@WasmFunctionBuilder@wasm@internal@v8@@QEAAXPEBEI@Z
  ?EmitDecrementCounter@MacroAssembler@internal@v8@@QEAAXPEAVStatsCounter@23@H@Z
  ?EmitDirectCallIndex@WasmFunctionBuilder@wasm@internal@v8@@QEAAXI@Z
  ?EmitExit@node@@YAHPEAVEnvironment@1@@Z
  ?EmitF32Const@WasmFunctionBuilder@wasm@internal@v8@@QEAAXM@Z
  ?EmitF64Const@WasmFunctionBuilder@wasm@internal@v8@@QEAAXN@Z
  ?EmitFarJumpSlot@JumpTableAssembler@wasm@internal@v8@@AEAAX_K@Z
  ?EmitFunctionStartSourcePosition@BytecodeArrayBuilder@interpreter@internal@v8@@QEAAXH@Z
  ?EmitGetLocal@WasmFunctionBuilder@wasm@internal@v8@@QEAAXI@Z
  ?EmitI32Const@WasmFunctionBuilder@wasm@internal@v8@@QEAAXH@Z
  ?EmitI32V@WasmFunctionBuilder@wasm@internal@v8@@QEAAXH@Z
  ?EmitI64Const@WasmFunctionBuilder@wasm@internal@v8@@QEAAX_J@Z
  ?EmitIdentity@InstructionSelector@compiler@internal@v8@@QEAAXPEAVNode@234@@Z
  ?EmitIncrementCounter@MacroAssembler@internal@v8@@QEAAXPEAVStatsCounter@23@H@Z
  ?EmitJump@BreakableControlFlowBuilder@interpreter@internal@v8@@IEAAXPEAVBytecodeLabels@234@@Z
  ?EmitJump@BytecodeArrayWriter@interpreter@internal@v8@@AEAAXPEAVBytecodeNode@234@PEAVBytecodeLabel@234@@Z
  ?EmitJumpIfFalse@BreakableControlFlowBuilder@interpreter@internal@v8@@IEAAXW4ToBooleanMode@BytecodeArrayBuilder@234@PEAVBytecodeLabels@234@@Z
  ?EmitJumpIfNull@BreakableControlFlowBuilder@interpreter@internal@v8@@IEAAXPEAVBytecodeLabels@234@@Z
  ?EmitJumpIfTrue@BreakableControlFlowBuilder@interpreter@internal@v8@@IEAAXW4ToBooleanMode@BytecodeArrayBuilder@234@PEAVBytecodeLabels@234@@Z
  ?EmitJumpIfUndefined@BreakableControlFlowBuilder@interpreter@internal@v8@@IEAAXPEAVBytecodeLabels@234@@Z
  ?EmitJumpLoop@BytecodeArrayWriter@interpreter@internal@v8@@AEAAXPEAVBytecodeNode@234@PEAVBytecodeLoopHeader@234@@Z
  ?EmitJumpSlot@JumpTableAssembler@wasm@internal@v8@@AEAA_N_K@Z
  ?EmitJumpTableIfExists@SwitchBuilder@interpreter@internal@v8@@QEAAXHHAEAV?$map@HPEAVCaseClause@internal@v8@@U?$less@H@std@@V?$allocator@U?$pair@$$CBHPEAVCaseClause@internal@v8@@@std@@@5@@std@@@Z
  ?EmitLazyCompileJumpSlot@JumpTableAssembler@wasm@internal@v8@@AEAAXI_K@Z
  ?EmitOrLink@RegExpBytecodeGenerator@internal@v8@@AEAAXPEAVLabel@23@@Z
  ?EmitPrepareArguments@InstructionSelector@compiler@internal@v8@@AEAAXPEAV?$ZoneVector@UPushParameter@compiler@internal@v8@@@34@PEBVCallDescriptor@234@PEAVNode@234@@Z
  ?EmitPrepareResults@InstructionSelector@compiler@internal@v8@@AEAAXPEAV?$ZoneVector@UPushParameter@compiler@internal@v8@@@34@PEBVCallDescriptor@234@PEAVNode@234@@Z
  ?EmitProcessBeforeExit@node@@YA?AV?$Maybe@_N@v8@@PEAVEnvironment@1@@Z
  ?EmitProcessExit@node@@YA?AV?$Maybe@H@v8@@PEAVEnvironment@1@@Z
  ?EmitReturnEntry@HandlerTable@internal@v8@@SAXPEAVAssembler@23@HH@Z
  ?EmitReturnTableStart@HandlerTable@internal@v8@@SAHPEAVAssembler@23@@Z
  ?EmitSetLocal@WasmFunctionBuilder@wasm@internal@v8@@QEAAXI@Z
  ?EmitSwitch@BytecodeArrayWriter@interpreter@internal@v8@@AEAAXPEAVBytecodeNode@234@PEAVBytecodeJumpTable@234@@Z
  ?EmitTableSwitch@InstructionSelector@compiler@internal@v8@@AEAAXAEBVSwitchInfo@234@AEBVInstructionOperand@234@@Z
  ?EmitTeeLocal@WasmFunctionBuilder@wasm@internal@v8@@QEAAXI@Z
  ?EmitU32V@WasmFunctionBuilder@wasm@internal@v8@@QEAAXI@Z
  ?EmitValueType@WasmFunctionBuilder@wasm@internal@v8@@QEAAXVValueType@234@@Z
  ?EmitWithContinuation@InstructionSelector@compiler@internal@v8@@QEAAPEAVInstruction@234@IVInstructionOperand@234@00PEAVFlagsContinuation@234@@Z
  ?EmitWithContinuation@InstructionSelector@compiler@internal@v8@@QEAAPEAVInstruction@234@IVInstructionOperand@234@0PEAVFlagsContinuation@234@@Z
  ?EmitWithContinuation@InstructionSelector@compiler@internal@v8@@QEAAPEAVInstruction@234@IVInstructionOperand@234@PEAVFlagsContinuation@234@@Z
  ?EmitWithContinuation@InstructionSelector@compiler@internal@v8@@QEAAPEAVInstruction@234@I_KPEAVInstructionOperand@234@0101PEAVFlagsContinuation@234@@Z
  ?EmitWithContinuation@InstructionSelector@compiler@internal@v8@@QEAAPEAVInstruction@234@I_KPEAVInstructionOperand@234@01PEAVFlagsContinuation@234@@Z
  ?EmitWithI32V@WasmFunctionBuilder@wasm@internal@v8@@QEAAXW4WasmOpcode@234@H@Z
  ?EmitWithPrefix@WasmFunctionBuilder@wasm@internal@v8@@QEAAXW4WasmOpcode@234@@Z
  ?EmitWithU32V@WasmFunctionBuilder@wasm@internal@v8@@QEAAXW4WasmOpcode@234@I@Z
  ?EmitWithU8@WasmFunctionBuilder@wasm@internal@v8@@QEAAXW4WasmOpcode@234@E@Z
  ?EmitWithU8U8@WasmFunctionBuilder@wasm@internal@v8@@QEAAXW4WasmOpcode@234@EE@Z
  ?Empty@DeoptimizationData@internal@v8@@SA?AV?$Handle@VDeoptimizationData@internal@v8@@@23@PEAVIsolate@23@@Z
  ?Empty@OSROptimizedCodeCache@internal@v8@@SA?AV?$Handle@VOSROptimizedCodeCache@internal@v8@@@23@PEAVIsolate@23@@Z
  ?Empty@ScopeInfo@internal@v8@@SA?AV123@PEAVIsolate@23@@Z
  ?Empty@String@v8@@SA?AV?$Local@VString@v8@@@2@PEAVIsolate@2@@Z
  ?EmptyArrayBoilerplateDescriptionConstantPoolEntry@BytecodeArrayBuilder@interpreter@internal@v8@@QEAA_KXZ
  ?EmptyBackingStore@BackingStore@internal@v8@@SA?AV?$unique_ptr@VBackingStore@internal@v8@@U?$default_delete@VBackingStore@internal@v8@@@std@@@std@@W4SharedFlag@23@@Z
  ?EmptyDeleter@BackingStore@v8@@SAXPEAX_K0@Z
  ?EmptyFixedArrayConstant@JSGraph@compiler@internal@v8@@QEAAPEAVNode@234@XZ
  ?EmptyFixedArrayConstantPoolEntry@BytecodeArrayBuilder@interpreter@internal@v8@@QEAA_KXZ
  ?EmptyIdentifierString@Parser@internal@v8@@AEBAPEBVAstRawString@23@XZ
  ?EmptyObjectBoilerplateDescriptionConstantPoolEntry@BytecodeArrayBuilder@interpreter@internal@v8@@QEAA_KXZ
  ?EmptyStateValues@JSGraph@compiler@internal@v8@@QEAAPEAVNode@234@XZ
  ?EmptyStringConstant@JSGraph@compiler@internal@v8@@QEAAPEAVNode@234@XZ
  ?EmptyStringConstant@JSGraphAssembler@compiler@internal@v8@@QEAA?AV?$TNode@VString@internal@v8@@@34@XZ
  ?EmptyStringRootIsInitialized@Factory@internal@v8@@AEAA_NXZ
  ?EmptyStringRootIsInitialized@LocalFactory@internal@v8@@AEAA_NXZ
  ?Enable@CodeEventHandler@v8@@QEAAXXZ
  ?EnableCodeLogging@WasmEngine@wasm@internal@v8@@QEAAXPEAVIsolate@34@@Z
  ?EnableCpuFeature@AssemblerBase@internal@v8@@QEAAXW4CpuFeature@23@@Z
  ?EnableDetachedGarbageCollectionsForTesting@CppHeap@internal@v8@@QEAAXXZ
  ?EnableDetachedGarbageCollectionsForTesting@CppHeap@v8@@QEAAXXZ
  ?EnableForNextGCForTesting@Compactor@internal@cppgc@@QEAAXXZ
  ?EnableInProcessStackDumping@debug@base@v8@@YA_NXZ
  ?EnableInlineAllocation@Heap@internal@v8@@QEAAXXZ
  ?EnableInterrupts@StackGuard@internal@v8@@AEAAXXZ
  ?EnableIteration@IdentityMapBase@internal@v8@@IEAAXXZ
  ?EnableLogging@CpuProfiler@internal@v8@@AEAAXXZ
  ?EnableMarkingBarrier@GlobalHandles@internal@v8@@SAXPEAVIsolate@23@@Z
  ?EnableMemorySavingsMode@Isolate@internal@v8@@QEAAXXZ
  ?EnableMemorySavingsMode@Isolate@v8@@QEAAXXZ
  ?EnableScriptAndEval@CompilationCache@internal@v8@@QEAAXXZ
  ?EnableTrapHandler@trap_handler@internal@v8@@YA_N_N@Z
  ?EnableWebAssemblyTrapHandler@V8@v8@@SA_N_N@Z
  ?Enabled@GCIdleTimeHandler@internal@v8@@QEAA_NXZ
  ?Enabled@OptimizingCompileDispatcher@internal@v8@@SA_NXZ
  ?Enabled@StatsCounter@internal@v8@@QEAA_NXZ
  ?Encode@Utf8@unibrow@@SAIPEADIH_N@Z
  ?Encode@node@@YA?AV?$Local@VValue@v8@@@v8@@PEAVIsolate@3@PEBD_KW4encoding@1@@Z
  ?Encode@node@@YA?AV?$Local@VValue@v8@@@v8@@PEAVIsolate@3@PEBG_K@Z
  ?EncodeI32ExceptionValue@internal@v8@@YAXV?$Handle@VFixedArray@internal@v8@@@12@PEAII@Z
  ?EncodeI64ExceptionValue@internal@v8@@YAXV?$Handle@VFixedArray@internal@v8@@@12@PEAI_K@Z
  ?EncodeOneByte@Utf8@unibrow@@SAIPEADE@Z
  ?EncodeSandboxedPointer@TurboAssembler@internal@v8@@QEAAXVRegister@23@@Z
  ?End@CommonOperatorBuilder@compiler@internal@v8@@QEAAPEBVOperator@234@_K@Z
  ?End@LiveRange@compiler@internal@v8@@QEBA?AVLifetimePosition@234@XZ
  ?EndArray@TracedValue@tracing@v8@@QEAAXXZ
  ?EndBlock@InstructionScheduler@compiler@internal@v8@@QEAAXVRpoNumber@234@@Z
  ?EndBlock@InstructionSelector@compiler@internal@v8@@QEAAXVRpoNumber@234@@Z
  ?EndBlock@InstructionSequence@compiler@internal@v8@@QEAAXVRpoNumber@234@@Z
  ?EndCatch@TryCatchBuilder@interpreter@internal@v8@@QEAAXXZ
  ?EndColumn@Script@debug@v8@@QEBAHXZ
  ?EndDictionary@TracedValue@tracing@v8@@QEAAXXZ
  ?EndFinally@TryFinallyBuilder@interpreter@internal@v8@@QEAAXXZ
  ?EndLine@Script@debug@v8@@QEBAHXZ
  ?EndOffset@BlockData@Coverage@debug@v8@@QEBAHXZ
  ?EndOffset@FunctionData@Coverage@debug@v8@@QEBAHXZ
  ?EndPosition@SharedFunctionInfo@internal@v8@@QEBAHXZ
  ?EndRecursiveTypeGroup@WasmModuleBuilder@wasm@internal@v8@@QEAAXXZ
  ?EndTry@TryCatchBuilder@interpreter@internal@v8@@QEAAXXZ
  ?EndTry@TryFinallyBuilder@interpreter@internal@v8@@QEAAXXZ
  ?EnforceFlagImplications@FlagList@internal@v8@@SAXXZ
  ?Enqueue@BranchConditionDuplicator@compiler@internal@v8@@QEAAXPEAVNode@234@@Z
  ?Enqueue@ControlFlowOptimizer@compiler@internal@v8@@AEAAXPEAVNode@234@@Z
  ?Enqueue@LazyCompileDispatcher@internal@v8@@QEAAXPEAVLocalIsolate@23@V?$Handle@VSharedFunctionInfo@internal@v8@@@23@V?$unique_ptr@VUtf16CharacterStream@internal@v8@@U?$default_delete@VUtf16CharacterStream@internal@v8@@@std@@@std@@@Z
  ?Enqueue@ProfilerEventsProcessor@internal@v8@@QEAAXAEBVCodeEventsContainer@23@@Z
  ?EnqueueMicrotask@Isolate@v8@@QEAAXP6AXPEAX@Z0@Z
  ?EnqueueMicrotask@Isolate@v8@@QEAAXV?$Local@VFunction@v8@@@2@@Z
  ?EnqueueMicrotask@MicrotaskQueue@internal@v8@@QEAAXVMicrotask@23@@Z
  ?EnqueueMicrotask@MicrotaskQueue@internal@v8@@UEAAXPEAVIsolate@3@P6AXPEAX@Z1@Z
  ?EnqueueMicrotask@MicrotaskQueue@internal@v8@@UEAAXPEAVIsolate@3@V?$Local@VFunction@v8@@@3@@Z
  ?EnqueueNode@ProfileTree@internal@v8@@QEAAXPEBVProfileNode@23@@Z
  ?EnsureAllRegistersAreFlushed@BytecodeRegisterOptimizer@interpreter@internal@v8@@QEBA_NXZ
  ?EnsureAllocation@NewSpace@internal@v8@@EEAA_NHW4AllocationAlignment@23@W4AllocationOrigin@23@PEAH@Z
  ?EnsureAllocation@PagedSpace@internal@v8@@MEAA_NHW4AllocationAlignment@23@W4AllocationOrigin@23@PEAH@Z
  ?EnsureBlackAllocated@IncrementalMarking@internal@v8@@QEAAX_K0@Z
  ?EnsureBlock@RawMachineAssembler@compiler@internal@v8@@AEAAPEAVBasicBlock@234@PEAVRawMachineLabel@234@@Z
  ?EnsureBreakInfo@Debug@internal@v8@@QEAA_NV?$Handle@VSharedFunctionInfo@internal@v8@@@23@@Z
  ?EnsureCFGWellFormedness@Schedule@compiler@internal@v8@@AEAAXXZ
  ?EnsureCapacity@Bignum@base@v8@@AEAAXH@Z
  ?EnsureCapacity@StringTable@internal@v8@@AEAAPEAVData@123@VPtrComprCageBase@23@H@Z
  ?EnsureChunk@TypedSlots@internal@v8@@IEAAPEAUChunk@123@XZ
  ?EnsureConsoleOutputWin32@base@v8@@YAXXZ
  ?EnsureDecodedOffsets@AsmJsOffsetInformation@wasm@internal@v8@@AEAAXXZ
  ?EnsureDescriptorSlack@Map@internal@v8@@SAXPEAVIsolate@23@V?$Handle@VMap@internal@v8@@@23@H@Z
  ?EnsureFeedbackVector@JSFunction@internal@v8@@SAXPEAVIsolate@23@V?$Handle@VJSFunction@internal@v8@@@23@PEAVIsCompiledScope@23@@Z
  ?EnsureGCInfoIndexNonPolymorphic@EnsureGCInfoIndexTrait@internal@cppgc@@CAGAEAU?$atomic@G@std@@P6AXPEAVVisitor@3@PEBX@Z@Z
  ?EnsureGCInfoIndexNonPolymorphic@EnsureGCInfoIndexTrait@internal@cppgc@@CAGAEAU?$atomic@G@std@@P6AXPEAVVisitor@3@PEBX@ZP6A?AUHeapObjectName@23@2@Z@Z
  ?EnsureGCInfoIndexNonPolymorphic@EnsureGCInfoIndexTrait@internal@cppgc@@CAGAEAU?$atomic@G@std@@P6AXPEAVVisitor@3@PEBX@ZP6AXPEAX@Z@Z
  ?EnsureGCInfoIndexNonPolymorphic@EnsureGCInfoIndexTrait@internal@cppgc@@CAGAEAU?$atomic@G@std@@P6AXPEAVVisitor@3@PEBX@ZP6AXPEAX@ZP6A?AUHeapObjectName@23@2@Z@Z
  ?EnsureGCInfoIndexPolymorphic@EnsureGCInfoIndexTrait@internal@cppgc@@CAGAEAU?$atomic@G@std@@P6AXPEAVVisitor@3@PEBX@Z@Z
  ?EnsureGCInfoIndexPolymorphic@EnsureGCInfoIndexTrait@internal@cppgc@@CAGAEAU?$atomic@G@std@@P6AXPEAVVisitor@3@PEBX@ZP6A?AUHeapObjectName@23@2@Z@Z
  ?EnsureGCInfoIndexPolymorphic@EnsureGCInfoIndexTrait@internal@cppgc@@CAGAEAU?$atomic@G@std@@P6AXPEAVVisitor@3@PEBX@ZP6AXPEAX@Z@Z
  ?EnsureGCInfoIndexPolymorphic@EnsureGCInfoIndexTrait@internal@cppgc@@CAGAEAU?$atomic@G@std@@P6AXPEAVVisitor@3@PEBX@ZP6AXPEAX@ZP6A?AUHeapObjectName@23@2@Z@Z
  ?EnsureHasFullTransitionArray@TransitionsAccessor@internal@v8@@CAXPEAVIsolate@23@V?$Handle@VMap@internal@v8@@@23@@Z
  ?EnsureHasInitialMap@JSFunction@internal@v8@@SAXV?$Handle@VJSFunction@internal@v8@@@23@@Z
  ?EnsureIndirectFunctionTableWithMinimumSize@WasmInstanceObject@internal@v8@@SA_NV?$Handle@VWasmInstanceObject@internal@v8@@@23@HI@Z
  ?EnsureInputCount@Node@compiler@internal@v8@@QEAAXPEAVZone@34@H@Z
  ?EnsureInterval@TopLevelLiveRange@compiler@internal@v8@@QEAAXVLifetimePosition@234@0PEAVZone@34@_N@Z
  ?EnsureParkedBeforeDestruction@LocalHeap@internal@v8@@AEAAXXZ
  ?EnsurePersistentHandles@LocalHeap@internal@v8@@AEAAXXZ
  ?EnsureRareData@ClassScope@internal@v8@@AEAAPEAURareData@123@XZ
  ?EnsureRareData@DeclarationScope@internal@v8@@AEAAPEAURareData@123@XZ
  ?EnsureReturnSlots@Frame@compiler@internal@v8@@QEAAXH@Z
  ?EnsureSourcePositionsAvailable@FrameSummary@internal@v8@@QEAAXXZ
  ?EnsureSplitEdgeForm@Schedule@compiler@internal@v8@@AEAAXPEAVBasicBlock@234@@Z
  ?EnsureSweepingCompleted@MarkCompactCollector@internal@v8@@QEAAXW4SweepingForcedFinalizationMode@123@@Z
  ?EnsureUnmappingCompleted@Unmapper@MemoryAllocator@internal@v8@@QEAAXXZ
  ?EnsureValid@iterator@StateValuesAccess@compiler@internal@v8@@AEAAXXZ
  ?EnsureWin32MemoryAPILoaded@OS@base@v8@@SAXXZ
  ?EnsureWritableFastElements@SimplifiedOperatorBuilder@compiler@internal@v8@@QEAAPEBVOperator@234@XZ
  ?Enter@Context@v8@@QEAAXXZ
  ?Enter@DisallowGarbageCollectionScope@subtle@cppgc@@SAXAEAVHeapHandle@3@@Z
  ?Enter@Isolate@internal@v8@@QEAAXXZ
  ?Enter@Isolate@v8@@QEAAXXZ
  ?Enter@NoGarbageCollectionScope@subtle@cppgc@@SAXAEAVHeapHandle@3@@Z
  ?EnterApiExitFrame@MacroAssembler@internal@v8@@QEAAXH@Z
  ?EnterAtomicPause@MarkerBase@internal@cppgc@@QEAAXW4EmbedderStackState@3@@Z
  ?EnterExitFrame@MacroAssembler@internal@v8@@QEAAXH_NW4Type@StackFrame@23@@Z
  ?EnterExitFrameEpilogue@MacroAssembler@internal@v8@@AEAAXH_N@Z
  ?EnterExitFramePrologue@MacroAssembler@internal@v8@@AEAAXVRegister@23@W4Type@StackFrame@23@@Z
  ?EnterFinalPause@CppHeap@internal@v8@@QEAAXW4EmbedderStackState@cppgc@@@Z
  ?EnterFinalPause@LocalEmbedderHeapTracer@internal@v8@@QEAAXXZ
  ?EnterFrame@TurboAssembler@internal@v8@@QEAAXW4Type@StackFrame@23@@Z
  ?EnterFrame@TurboAssembler@internal@v8@@QEAAXW4Type@StackFrame@23@_N@Z
  ?EnterGlobalScope@AsmJsScanner@internal@v8@@QEAAXXZ
  ?EnterLocalScope@AsmJsScanner@internal@v8@@QEAAXXZ
  ?Entries@ScriptData@TypeProfile@debug@v8@@QEBA?AV?$vector@VEntry@TypeProfile@debug@v8@@V?$allocator@VEntry@TypeProfile@debug@v8@@@std@@@std@@XZ
  ?EntryAtIndex@IdentityMapBase@internal@v8@@IEBAPEA_KH@Z
  ?EntryForEnumerationIndex@SwissNameDictionary@internal@v8@@QEAAHH@Z
  ?EntryForProbe@?$HashTable@VCompilationCacheTable@internal@v8@@VCompilationCacheShape@23@@internal@v8@@AEAA?AVInternalIndex@23@VReadOnlyRoots@23@VObject@23@HV423@@Z
  ?EntryForProbe@?$HashTable@VEphemeronHashTable@internal@v8@@VObjectHashTableShape@23@@internal@v8@@AEAA?AVInternalIndex@23@VReadOnlyRoots@23@VObject@23@HV423@@Z
  ?EntryForProbe@?$HashTable@VGlobalDictionary@internal@v8@@VGlobalDictionaryShape@23@@internal@v8@@AEAA?AVInternalIndex@23@VReadOnlyRoots@23@VObject@23@HV423@@Z
  ?EntryForProbe@?$HashTable@VNameDictionary@internal@v8@@VNameDictionaryShape@23@@internal@v8@@AEAA?AVInternalIndex@23@VReadOnlyRoots@23@VObject@23@HV423@@Z
  ?EntryForProbe@?$HashTable@VNameToIndexHashTable@internal@v8@@VNameToIndexShape@23@@internal@v8@@AEAA?AVInternalIndex@23@VReadOnlyRoots@23@VObject@23@HV423@@Z
  ?EntryForProbe@?$HashTable@VNumberDictionary@internal@v8@@VNumberDictionaryShape@23@@internal@v8@@AEAA?AVInternalIndex@23@VReadOnlyRoots@23@VObject@23@HV423@@Z
  ?EntryForProbe@?$HashTable@VObjectHashSet@internal@v8@@VObjectHashSetShape@23@@internal@v8@@AEAA?AVInternalIndex@23@VReadOnlyRoots@23@VObject@23@HV423@@Z
  ?EntryForProbe@?$HashTable@VObjectHashTable@internal@v8@@VObjectHashTableShape@23@@internal@v8@@AEAA?AVInternalIndex@23@VReadOnlyRoots@23@VObject@23@HV423@@Z
  ?EntryForProbe@?$HashTable@VRegisteredSymbolTable@internal@v8@@VRegisteredSymbolTableShape@23@@internal@v8@@AEAA?AVInternalIndex@23@VReadOnlyRoots@23@VObject@23@HV423@@Z
  ?EntryForProbe@?$HashTable@VSimpleNumberDictionary@internal@v8@@VSimpleNumberDictionaryShape@23@@internal@v8@@AEAA?AVInternalIndex@23@VReadOnlyRoots@23@VObject@23@HV423@@Z
  ?EntryForProbe@?$HashTable@VStringSet@internal@v8@@VStringSetShape@23@@internal@v8@@AEAA?AVInternalIndex@23@VReadOnlyRoots@23@VObject@23@HV423@@Z
  ?EntryFromBuiltinAsOperand@TurboAssembler@internal@v8@@QEAA?AVOperand@23@W4Builtin@23@@Z
  ?EntryFromBuiltinIndexAsOperand@TurboAssembler@internal@v8@@QEAA?AVOperand@23@VRegister@23@@Z
  ?EntrySizeFromMode@HandlerTable@internal@v8@@CAHW4EncodingMode@123@@Z
  ?EntryToIndex@?$HashTable@VCompilationCacheTable@internal@v8@@VCompilationCacheShape@23@@internal@v8@@SAHVInternalIndex@23@@Z
  ?EntryToIndex@?$HashTable@VEphemeronHashTable@internal@v8@@VObjectHashTableShape@23@@internal@v8@@SAHVInternalIndex@23@@Z
  ?EntryToIndex@?$HashTable@VGlobalDictionary@internal@v8@@VGlobalDictionaryShape@23@@internal@v8@@SAHVInternalIndex@23@@Z
  ?EntryToIndex@?$HashTable@VNameDictionary@internal@v8@@VNameDictionaryShape@23@@internal@v8@@SAHVInternalIndex@23@@Z
  ?EntryToIndex@?$HashTable@VNameToIndexHashTable@internal@v8@@VNameToIndexShape@23@@internal@v8@@SAHVInternalIndex@23@@Z
  ?EntryToIndex@?$HashTable@VNumberDictionary@internal@v8@@VNumberDictionaryShape@23@@internal@v8@@SAHVInternalIndex@23@@Z
  ?EntryToIndex@?$HashTable@VObjectHashSet@internal@v8@@VObjectHashSetShape@23@@internal@v8@@SAHVInternalIndex@23@@Z
  ?EntryToIndex@?$HashTable@VObjectHashTable@internal@v8@@VObjectHashTableShape@23@@internal@v8@@SAHVInternalIndex@23@@Z
  ?EntryToIndex@?$HashTable@VRegisteredSymbolTable@internal@v8@@VRegisteredSymbolTableShape@23@@internal@v8@@SAHVInternalIndex@23@@Z
  ?EntryToIndex@?$HashTable@VSimpleNumberDictionary@internal@v8@@VSimpleNumberDictionaryShape@23@@internal@v8@@SAHVInternalIndex@23@@Z
  ?EntryToIndex@?$HashTable@VStringSet@internal@v8@@VStringSetShape@23@@internal@v8@@SAHVInternalIndex@23@@Z
  ?EntryToIndex@?$OrderedHashTable@VOrderedHashMap@internal@v8@@$01@internal@v8@@IEAAHVInternalIndex@23@@Z
  ?EntryToIndex@?$OrderedHashTable@VOrderedHashSet@internal@v8@@$00@internal@v8@@IEAAHVInternalIndex@23@@Z
  ?EntryToIndex@?$OrderedHashTable@VOrderedNameDictionary@internal@v8@@$02@internal@v8@@IEAAHVInternalIndex@23@@Z
  ?EntryToIndexRaw@?$OrderedHashTable@VOrderedHashMap@internal@v8@@$01@internal@v8@@IEAAHH@Z
  ?EntryToIndexRaw@?$OrderedHashTable@VOrderedHashSet@internal@v8@@$00@internal@v8@@IEAAHH@Z
  ?EntryToIndexRaw@?$OrderedHashTable@VOrderedNameDictionary@internal@v8@@$02@internal@v8@@IEAAHH@Z
  ?EntryToValueIndex@?$ObjectHashTableBase@VEphemeronHashTable@internal@v8@@VObjectHashTableShape@23@@internal@v8@@SAHVInternalIndex@23@@Z
  ?EntryToValueIndex@?$ObjectHashTableBase@VObjectHashTable@internal@v8@@VObjectHashTableShape@23@@internal@v8@@SAHVInternalIndex@23@@Z
  ?EntryToValueIndex@NameToIndexHashTable@internal@v8@@CAHVInternalIndex@23@@Z
  ?EphemeronHashTablePrint@EphemeronHashTable@internal@v8@@QEAAXAEAV?$basic_ostream@DU?$char_traits@D@std@@@std@@@Z
  ?EphemeronKeyWriteBarrierFromCode@Heap@internal@v8@@SAX_K0PEAVIsolate@23@@Z
  ?Epilogue@IncrementalMarking@internal@v8@@QEAAXXZ
  ?Equal@Bignum@base@v8@@SA_NAEBV123@0@Z
  ?Equal@JSOperatorBuilder@compiler@internal@v8@@QEAAPEBVOperator@234@AEBUFeedbackSource@234@@Z
  ?Equals@BitVector@internal@v8@@QEBA_NAEBV123@@Z
  ?Equals@FieldType@internal@v8@@QEBA_NV123@@Z
  ?Equals@InstructionOperand@compiler@internal@v8@@QEBA_NAEBV1234@@Z
  ?Equals@NodeProperties@compiler@internal@v8@@SA_NPEAVNode@234@0@Z
  ?Equals@Object@internal@v8@@SA?AV?$Maybe@_N@3@PEAVIsolate@23@V?$Handle@VObject@internal@v8@@@23@1@Z
  ?Equals@Operator@compiler@internal@v8@@UEBA_NPEBV1234@@Z
  ?Equals@Type@compiler@internal@v8@@QEBA_NV1234@@Z
  ?Equals@Value@v8@@QEBA?AV?$Maybe@_N@2@V?$Local@VContext@v8@@@2@V?$Local@VValue@v8@@@2@@Z
  ?EqualsCanonicalized@InstructionOperand@compiler@internal@v8@@QEBA_NAEBV1234@@Z
  ?EqualsForTesting@SwissNameDictionary@internal@v8@@QEAA_NV123@@Z
  ?EquivalentTime@DateCache@internal@v8@@QEAA_J_J@Z
  ?EquivalentTypes@wasm@internal@v8@@YA_NVValueType@123@0PEBUWasmModule@123@1@Z
  ?EquivalentYear@DateCache@internal@v8@@QEAAHH@Z
  ?ErrnoException@node@@YA?AV?$Local@VValue@v8@@@v8@@PEAVIsolate@3@HPEBD11@Z
  ?Error@AsyncStreamingDecoder@wasm@internal@v8@@AEAA?AV?$unique_ptr@VDecodingState@AsyncStreamingDecoder@wasm@internal@v8@@U?$default_delete@VDecodingState@AsyncStreamingDecoder@wasm@internal@v8@@@std@@@std@@AEBVWasmError@234@@Z
  ?Error@AsyncStreamingDecoder@wasm@internal@v8@@AEAA?AV?$unique_ptr@VDecodingState@AsyncStreamingDecoder@wasm@internal@v8@@U?$default_delete@VDecodingState@AsyncStreamingDecoder@wasm@internal@v8@@@std@@@std@@V?$basic_string@DU?$char_traits@D@std@@V?$allocator@D@2@@6@@Z
  ?Error@Exception@v8@@SA?AV?$Local@VValue@v8@@@2@V?$Local@VString@v8@@@2@@Z
  ?ErrorLevel@Message@v8@@QEBAHXZ
  ?Error_string@Factory@internal@v8@@QEAA?AV?$Handle@VString@internal@v8@@@23@XZ
  ?Error_string@LocalFactory@internal@v8@@QEAA?AV?$Handle@VString@internal@v8@@@23@XZ
  ?Escape@EscapableHandleScope@v8@@AEAAPEA_KPEA_K@Z
  ?EstimateLiftoffCodeSize@WasmCodeManager@wasm@internal@v8@@SA_KH@Z
  ?EstimateMarkingStepSize@GCIdleTimeHandler@internal@v8@@SA_KNN@Z
  ?EstimateNativeModuleCodeSize@WasmCodeManager@wasm@internal@v8@@SA_KHHH_NW4DynamicTiering@234@@Z
  ?EstimateNativeModuleCodeSize@WasmCodeManager@wasm@internal@v8@@SA_KPEBUWasmModule@234@_NW4DynamicTiering@234@@Z
  ?EstimateNativeModuleMetaDataSize@WasmCodeManager@wasm@internal@v8@@SA_KPEBUWasmModule@234@@Z
  ?EstimateObjectsCount@V8HeapExplorer@internal@v8@@QEAAIXZ
  ?Eternalize@api_internal@v8@@YAPEAVValue@2@PEAVIsolate@2@PEAV32@@Z
  ?EvalError_string@Factory@internal@v8@@QEAA?AV?$Handle@VString@internal@v8@@@23@XZ
  ?EvalError_string@LocalFactory@internal@v8@@QEAA?AV?$Handle@VString@internal@v8@@@23@XZ
  ?Evaluate@Module@v8@@QEAA?AV?$MaybeLocal@VValue@v8@@@2@V?$Local@VContext@v8@@@2@@Z
  ?EvaluateGlobal@debug@v8@@YA?AV?$MaybeLocal@VValue@v8@@@2@PEAVIsolate@2@V?$Local@VString@v8@@@2@W4EvaluateGlobalMode@12@_N@Z
  ?EvaluateGlobalForTesting@debug@v8@@YA?AV?$MaybeLocal@VValue@v8@@@2@PEAVIsolate@2@V?$Local@VScript@v8@@@2@W4EvaluateGlobalMode@12@_N@Z
  ?EventListener@ReasonEnum@Paused@API@Debugger@protocol@v8_inspector@@3PEBDEB
  ?EvictDeoptimizedCode@OSROptimizedCodeCache@internal@v8@@QEAAXPEAVIsolate@23@@Z
  ?EvictFreeListItems@FreeList@internal@v8@@QEAA_KPEAVPage@23@@Z
  ?Exception@ReasonEnum@Paused@API@Debugger@protocol@v8_inspector@@3PEBDEB
  ?Exception@TryCatch@v8@@QEBA?AV?$Local@VValue@v8@@@2@XZ
  ?ExceptionHandler@TurboAssembler@internal@v8@@QEAAXXZ
  ?Exec@RegExp@internal@v8@@SA?AV?$MaybeHandle@VObject@internal@v8@@@23@PEAVIsolate@23@V?$Handle@VJSRegExp@internal@v8@@@23@V?$Handle@VString@internal@v8@@@23@HV?$Handle@VRegExpMatchInfo@internal@v8@@@23@W4ExecQuirks@123@@Z
  ?Exec@RegExp@v8@@QEAA?AV?$MaybeLocal@VObject@v8@@@2@V?$Local@VContext@v8@@@2@V?$Local@VString@v8@@@2@@Z
  ?Execute@JSToWasmWrapperCompilationUnit@wasm@internal@v8@@QEAAXXZ
  ?ExecuteCompilation@WasmCompilationUnit@wasm@internal@v8@@QEAA?AUWasmCompilationResult@234@PEAUCompilationEnv@234@PEBVWireBytesStorage@234@PEAVCounters@34@PEAVWasmFeatures@234@@Z
  ?ExecuteCustomCallbacks@OldToNewRememberedSet@internal@cppgc@@QEAAXVLivenessBroker@3@@Z
  ?ExecuteForTesting@NativeRegExpMacroAssembler@internal@v8@@SAHVString@23@HPEBE1PEAHHPEAVIsolate@23@VJSRegExp@23@@Z
  ?ExecuteFunctionCompilation@WasmCompilationUnit@wasm@internal@v8@@AEAA?AUWasmCompilationResult@234@PEAUCompilationEnv@234@PEBVWireBytesStorage@234@PEAVCounters@34@PEAVWasmFeatures@234@@Z
  ?ExecuteImportWrapperCompilation@WasmCompilationUnit@wasm@internal@v8@@AEAA?AUWasmCompilationResult@234@PEAUCompilationEnv@234@@Z
  ?ExecuteJob@OptimizedCompilationJob@internal@v8@@QEAA?AW4Status@CompilationJob@23@PEAVRuntimeCallStats@23@PEAVLocalIsolate@23@@Z
  ?ExecuteLiftoffCompilation@wasm@internal@v8@@YA?AUWasmCompilationResult@123@PEAUCompilationEnv@123@AEBUFunctionBody@123@HW4ForDebugging@123@AEBULiftoffOptions@123@@Z
  ?ExecutePreFinalizers@HeapBase@internal@cppgc@@IEAA_KXZ
  ?Exit@Context@v8@@QEAAXXZ
  ?Exit@Isolate@internal@v8@@QEAAXXZ
  ?Exit@Isolate@v8@@QEAAXXZ
  ?ExitProcess@OS@base@v8@@SAXH@Z
  ?Expand@CompactionSpace@internal@v8@@MEAAPEAVPage@23@XZ
  ?Expand@PagedSpace@internal@v8@@MEAAPEAVPage@23@XZ
  ?ExpandBackground@PagedSpace@internal@v8@@IEAA?AV?$Optional@U?$pair@_K_K@std@@@base@3@_K@Z
  ?ExpandBuffer@RegExpBytecodeGenerator@internal@v8@@AEAAXXZ
  ?ExpandInternals@BitsetType@compiler@internal@v8@@SA_K_K@Z
  ?Expect@?$ParserBase@VParser@internal@v8@@@internal@v8@@IEAAXW4Value@Token@23@@Z
  ?ExpectContextualKeyword@?$ParserBase@VParser@internal@v8@@@internal@v8@@IEAAXPEBVAstRawString@23@PEBDH@Z
  ?ExpectSemicolon@?$ParserBase@VParser@internal@v8@@@internal@v8@@IEAAXXZ
  ?ExpectedTransitionKey@TransitionsAccessor@internal@v8@@QEAA?AV?$Handle@VString@internal@v8@@@23@XZ
  ?ExpectedTransitionTarget@TransitionsAccessor@internal@v8@@QEAA?AV?$Handle@VMap@internal@v8@@@23@XZ
  ?ExperimentalOneshotExec@RegExp@internal@v8@@SA?AV?$MaybeHandle@VObject@internal@v8@@@23@PEAVIsolate@23@V?$Handle@VJSRegExp@internal@v8@@@23@V?$Handle@VString@internal@v8@@@23@HV?$Handle@VRegExpMatchInfo@internal@v8@@@23@W4ExecQuirks@123@@Z
  ?ExplicitScopeForTesting@EmbedderStackStateScope@internal@v8@@SA?AV123@PEAVLocalEmbedderHeapTracer@23@W4EmbedderStackState@cppgc@@@Z
  ?Exponentiate@JSOperatorBuilder@compiler@internal@v8@@QEAAPEBVOperator@234@AEBUFeedbackSource@234@@Z
  ?ExportForOptimization@RawMachineAssembler@compiler@internal@v8@@QEAAPEAVGraph@234@XZ
  ?ExportForTest@RawMachineAssembler@compiler@internal@v8@@QEAAPEAVSchedule@234@XZ
  ?ExportImportedFunction@WasmModuleBuilder@wasm@internal@v8@@QEAAXV?$Vector@$$CBD@base@4@H@Z
  ?ExportNativeModule@WasmEngine@wasm@internal@v8@@QEAA?AV?$shared_ptr@VNativeModule@wasm@internal@v8@@@std@@V?$Handle@VWasmModuleObject@internal@v8@@@34@@Z
  ?ExpressionFromIdentifier@Parser@internal@v8@@AEAAPEAVVariableProxy@23@PEBVAstRawString@23@HW4InferName@23@@Z
  ?ExpressionFromLiteral@Parser@internal@v8@@AEAAPEAVExpression@23@W4Value@Token@23@H@Z
  ?ExpressionFromPrivateName@Parser@internal@v8@@AEAAPEAVVariableProxy@23@PEAVPrivateNameScopeIterator@23@PEBVAstRawString@23@H@Z
  ?ExpressionListToExpression@Parser@internal@v8@@AEAAPEAVExpression@23@AEBV?$ScopedList@PEAVExpression@internal@v8@@PEAX@23@@Z
  ?Extend@HandleScope@internal@v8@@CAPEA_KPEAVIsolate@23@@Z
  ?Extend@ScriptContextTable@internal@v8@@SA?AV?$Handle@VScriptContextTable@internal@v8@@@23@PEAVIsolate@23@V423@V?$Handle@VContext@internal@v8@@@23@_N@Z
  ?ExtendTheAfterSegment@DateCache@internal@v8@@AEAAXHH@Z
  ?ExtendingNonExtensible@LookupIterator@internal@v8@@QEAA_NV?$Handle@VJSReceiver@internal@v8@@@23@@Z
  ?Extern@AsmType@wasm@internal@v8@@SAPEAV1234@XZ
  ?ExternalAssemblerBuffer@internal@v8@@YA?AV?$unique_ptr@VAssemblerBuffer@internal@v8@@U?$default_delete@VAssemblerBuffer@internal@v8@@@std@@@std@@PEAXH@Z
  ?ExternalBackingStoreBytes@NewSpace@internal@v8@@QEBA_KXZ
  ?ExternalBackingStoreBytes@NewSpace@internal@v8@@UEBA_KW4ExternalBackingStoreType@23@@Z
  ?ExternalBackingStoreBytes@Space@internal@v8@@UEBA_KW4ExternalBackingStoreType@23@@Z
  ?ExternalConstant@CodeAssembler@compiler@internal@v8@@QEAA?AV?$TNode@VExternalReference@internal@v8@@@34@VExternalReference@34@@Z
  ?ExternalConstant@CommonOperatorBuilder@compiler@internal@v8@@QEAAPEBVOperator@234@AEBVExternalReference@34@@Z
  ?ExternalConstant@GraphAssembler@compiler@internal@v8@@QEAAPEAVNode@234@VExternalReference@34@@Z
  ?ExternalConstant@MachineGraph@compiler@internal@v8@@QEAAPEAVNode@234@VExternalReference@34@@Z
  ?ExternalConstant@MachineGraph@compiler@internal@v8@@QEAAPEAVNode@234@W4FunctionId@Runtime@34@@Z
  ?ExternalConstant@RawMachineAssembler@compiler@internal@v8@@QEAAPEAVNode@234@VExternalReference@34@@Z
  ?ExternalPointer@Type@compiler@internal@v8@@SA?AV1234@XZ
  ?ExternalReferenceAsOperand@?$SharedTurboAssemblerBase@VTurboAssembler@internal@v8@@@internal@v8@@AEAA?AVOperand@23@VExternalReference@23@VRegister@23@@Z
  ?ExternalReferenceAsOperand@TurboAssembler@internal@v8@@QEAA?AVOperand@23@VExternalReference@23@VRegister@23@@Z
  ?ExtractAccessorInfoReferences@V8HeapExplorer@internal@v8@@AEAAXPEAVHeapEntry@23@VAccessorInfo@23@@Z
  ?ExtractAccessorPairProperty@V8HeapExplorer@internal@v8@@AEAAXPEAVHeapEntry@23@VName@23@VObject@23@H@Z
  ?ExtractAccessorPairReferences@V8HeapExplorer@internal@v8@@AEAAXPEAVHeapEntry@23@VAccessorPair@23@@Z
  ?ExtractAllocationSiteReferences@V8HeapExplorer@internal@v8@@AEAAXPEAVHeapEntry@23@VAllocationSite@23@@Z
  ?ExtractArrayBoilerplateDescriptionReferences@V8HeapExplorer@internal@v8@@AEAAXPEAVHeapEntry@23@VArrayBoilerplateDescription@23@@Z
  ?ExtractBytecodeArrayReferences@V8HeapExplorer@internal@v8@@AEAAXPEAVHeapEntry@23@VBytecodeArray@23@@Z
  ?ExtractCellReferences@V8HeapExplorer@internal@v8@@AEAAXPEAVHeapEntry@23@VCell@23@@Z
  ?ExtractCodeReferences@V8HeapExplorer@internal@v8@@AEAAXPEAVHeapEntry@23@VCode@23@@Z
  ?ExtractContextReferences@V8HeapExplorer@internal@v8@@AEAAXPEAVHeapEntry@23@VContext@23@@Z
  ?ExtractDescriptorArrayReferences@V8HeapExplorer@internal@v8@@AEAAXPEAVHeapEntry@23@VDescriptorArray@23@@Z
  ?ExtractElementReferences@V8HeapExplorer@internal@v8@@AEAAXVJSObject@23@PEAVHeapEntry@23@@Z
  ?ExtractEphemeronHashTableReferences@V8HeapExplorer@internal@v8@@AEAAXPEAVHeapEntry@23@VEphemeronHashTable@23@@Z
  ?ExtractFeedbackCellReferences@V8HeapExplorer@internal@v8@@AEAAXPEAVHeapEntry@23@VFeedbackCell@23@@Z
  ?ExtractFeedbackVectorReferences@V8HeapExplorer@internal@v8@@AEAAXPEAVHeapEntry@23@VFeedbackVector@23@@Z
  ?ExtractFixedArrayReferences@V8HeapExplorer@internal@v8@@AEAAXPEAVHeapEntry@23@VFixedArray@23@@Z
  ?ExtractInternalReferences@V8HeapExplorer@internal@v8@@AEAAXVJSObject@23@PEAVHeapEntry@23@@Z
  ?ExtractJSArrayBufferReferences@V8HeapExplorer@internal@v8@@AEAAXPEAVHeapEntry@23@VJSArrayBuffer@23@@Z
  ?ExtractJSCollectionReferences@V8HeapExplorer@internal@v8@@AEAAXPEAVHeapEntry@23@VJSCollection@23@@Z
  ?ExtractJSGeneratorObjectReferences@V8HeapExplorer@internal@v8@@AEAAXPEAVHeapEntry@23@VJSGeneratorObject@23@@Z
  ?ExtractJSGlobalProxyReferences@V8HeapExplorer@internal@v8@@AEAAXPEAVHeapEntry@23@VJSGlobalProxy@23@@Z
  ?ExtractJSObjectReferences@V8HeapExplorer@internal@v8@@AEAAXPEAVHeapEntry@23@VJSObject@23@@Z
  ?ExtractJSPromiseReferences@V8HeapExplorer@internal@v8@@AEAAXPEAVHeapEntry@23@VJSPromise@23@@Z
  ?ExtractJSWeakCollectionReferences@V8HeapExplorer@internal@v8@@AEAAXPEAVHeapEntry@23@VJSWeakCollection@23@@Z
  ?ExtractJSWeakRefReferences@V8HeapExplorer@internal@v8@@AEAAXPEAVHeapEntry@23@VJSWeakRef@23@@Z
  ?ExtractLocation@V8HeapExplorer@internal@v8@@AEAAXPEAVHeapEntry@23@VHeapObject@23@@Z
  ?ExtractLocationForJSFunction@V8HeapExplorer@internal@v8@@AEAAXPEAVHeapEntry@23@VJSFunction@23@@Z
  ?ExtractMapReferences@V8HeapExplorer@internal@v8@@AEAAXPEAVHeapEntry@23@VMap@23@@Z
  ?ExtractMaps@FeedbackNexus@internal@v8@@QEBAHPEAV?$vector@V?$Handle@VMap@internal@v8@@@internal@v8@@V?$allocator@V?$Handle@VMap@internal@v8@@@internal@v8@@@std@@@std@@@Z
  ?ExtractMapsAndFeedback@FeedbackNexus@internal@v8@@QEBAHPEAV?$vector@U?$pair@V?$Handle@VMap@internal@v8@@@internal@v8@@VMaybeObjectHandle@23@@std@@V?$allocator@U?$pair@V?$Handle@VMap@internal@v8@@@internal@v8@@VMaybeObjectHandle@23@@std@@@2@@std@@@Z
  ?ExtractMapsAndHandlers@FeedbackNexus@internal@v8@@QEBAHPEAV?$vector@U?$pair@V?$Handle@VMap@internal@v8@@@internal@v8@@VMaybeObjectHandle@23@@std@@V?$allocator@U?$pair@V?$Handle@VMap@internal@v8@@@internal@v8@@VMaybeObjectHandle@23@@std@@@2@@std@@V?$function@$$A6A?AV?$MaybeHandle@VMap@internal@v8@@@internal@v8@@V?$Handle@VMap@internal@v8@@@23@@Z@5@@Z
  ?ExtractNumberReference@V8HeapExplorer@internal@v8@@AEAAXPEAVHeapEntry@23@VObject@23@@Z
  ?ExtractPropertyCellReferences@V8HeapExplorer@internal@v8@@AEAAXPEAVHeapEntry@23@VPropertyCell@23@@Z
  ?ExtractPropertyReferences@V8HeapExplorer@internal@v8@@AEAAXVJSObject@23@PEAVHeapEntry@23@@Z
  ?ExtractReferences@V8HeapExplorer@internal@v8@@AEAAXPEAVHeapEntry@23@VHeapObject@23@@Z
  ?ExtractRegExpBoilerplateDescriptionReferences@V8HeapExplorer@internal@v8@@AEAAXPEAVHeapEntry@23@VRegExpBoilerplateDescription@23@@Z
  ?ExtractScopeInfoReferences@V8HeapExplorer@internal@v8@@AEAAXPEAVHeapEntry@23@VScopeInfo@23@@Z
  ?ExtractScriptBuffer@WebSnapshotDeserializer@internal@v8@@AEAA?AV?$Vector@$$CBE@base@3@PEAVIsolate@23@V?$Handle@VScript@internal@v8@@@23@@Z
  ?ExtractScriptReferences@V8HeapExplorer@internal@v8@@AEAAXPEAVHeapEntry@23@VScript@23@@Z
  ?ExtractSharedFunctionInfoReferences@V8HeapExplorer@internal@v8@@AEAAXPEAVHeapEntry@23@VSharedFunctionInfo@23@@Z
  ?ExtractStringReferences@V8HeapExplorer@internal@v8@@AEAAXPEAVHeapEntry@23@VString@23@@Z
  ?ExtractSymbolReferences@V8HeapExplorer@internal@v8@@AEAAXPEAVHeapEntry@23@VSymbol@23@@Z
  ?ExtractWeakCellReferences@V8HeapExplorer@internal@v8@@AEAAXPEAVHeapEntry@23@VWeakCell@23@@Z
  ?ExtractWrappableInfo@LocalEmbedderHeapTracer@internal@v8@@SA_NPEAVIsolate@23@AEBUWrapperDescriptor@3@AEBVEmbedderDataSlot@23@2PEAU?$pair@PEAXPEAX@std@@@Z
  ?ExtractWrappableInfo@LocalEmbedderHeapTracer@internal@v8@@SA_NPEAVIsolate@23@VJSObject@23@AEBUWrapperDescriptor@3@PEAU?$pair@PEAXPEAX@std@@@Z
  ?ExtractWrapper@Local@MarkingWorklists@internal@v8@@QEAA_NVMap@34@VJSObject@34@AEAU?$pair@_K_K@std@@@Z
  ?ExtractWrapperInfo@LocalEmbedderHeapTracer@internal@v8@@QEAA?AU?$pair@PEAXPEAX@std@@PEAVIsolate@23@VJSObject@23@@Z
  ?F32x4Abs@MachineOperatorBuilder@compiler@internal@v8@@QEAAPEBVOperator@234@XZ
  ?F32x4Add@MachineOperatorBuilder@compiler@internal@v8@@QEAAPEBVOperator@234@XZ
  ?F32x4Ceil@MachineOperatorBuilder@compiler@internal@v8@@QEAAPEBVOperator@234@XZ
  ?F32x4DemoteF64x2Zero@MachineOperatorBuilder@compiler@internal@v8@@QEAAPEBVOperator@234@XZ
  ?F32x4Div@MachineOperatorBuilder@compiler@internal@v8@@QEAAPEBVOperator@234@XZ
  ?F32x4Eq@MachineOperatorBuilder@compiler@internal@v8@@QEAAPEBVOperator@234@XZ
  ?F32x4ExtractLane@MachineOperatorBuilder@compiler@internal@v8@@QEAAPEBVOperator@234@H@Z
  ?F32x4ExtractLane@SharedTurboAssembler@internal@v8@@QEAAXVXMMRegister@23@0E@Z
  ?F32x4Floor@MachineOperatorBuilder@compiler@internal@v8@@QEAAPEBVOperator@234@XZ
  ?F32x4Le@MachineOperatorBuilder@compiler@internal@v8@@QEAAPEBVOperator@234@XZ
  ?F32x4Lt@MachineOperatorBuilder@compiler@internal@v8@@QEAAPEBVOperator@234@XZ
  ?F32x4Max@MachineOperatorBuilder@compiler@internal@v8@@QEAAPEBVOperator@234@XZ
  ?F32x4Max@SharedTurboAssembler@internal@v8@@QEAAXVXMMRegister@23@000@Z
  ?F32x4Min@MachineOperatorBuilder@compiler@internal@v8@@QEAAPEBVOperator@234@XZ
  ?F32x4Min@SharedTurboAssembler@internal@v8@@QEAAXVXMMRegister@23@000@Z
  ?F32x4Mul@MachineOperatorBuilder@compiler@internal@v8@@QEAAPEBVOperator@234@XZ
  ?F32x4Ne@MachineOperatorBuilder@compiler@internal@v8@@QEAAPEBVOperator@234@XZ
  ?F32x4NearestInt@MachineOperatorBuilder@compiler@internal@v8@@QEAAPEBVOperator@234@XZ
  ?F32x4Neg@MachineOperatorBuilder@compiler@internal@v8@@QEAAPEBVOperator@234@XZ
  ?F32x4Pmax@MachineOperatorBuilder@compiler@internal@v8@@QEAAPEBVOperator@234@XZ
  ?F32x4Pmin@MachineOperatorBuilder@compiler@internal@v8@@QEAAPEBVOperator@234@XZ
  ?F32x4Qfma@MachineOperatorBuilder@compiler@internal@v8@@QEAAPEBVOperator@234@XZ
  ?F32x4Qfma@SharedTurboAssembler@internal@v8@@QEAAXVXMMRegister@23@0000@Z
  ?F32x4Qfms@MachineOperatorBuilder@compiler@internal@v8@@QEAAPEBVOperator@234@XZ
  ?F32x4Qfms@SharedTurboAssembler@internal@v8@@QEAAXVXMMRegister@23@0000@Z
  ?F32x4RecipApprox@MachineOperatorBuilder@compiler@internal@v8@@QEAAPEBVOperator@234@XZ
  ?F32x4RecipSqrtApprox@MachineOperatorBuilder@compiler@internal@v8@@QEAAPEBVOperator@234@XZ
  ?F32x4RelaxedMax@MachineOperatorBuilder@compiler@internal@v8@@QEAAPEBVOperator@234@XZ
  ?F32x4RelaxedMin@MachineOperatorBuilder@compiler@internal@v8@@QEAAPEBVOperator@234@XZ
  ?F32x4ReplaceLane@MachineOperatorBuilder@compiler@internal@v8@@QEAAPEBVOperator@234@H@Z
  ?F32x4SConvertI32x4@MachineOperatorBuilder@compiler@internal@v8@@QEAAPEBVOperator@234@XZ
  ?F32x4Splat@MachineOperatorBuilder@compiler@internal@v8@@QEAAPEBVOperator@234@XZ
  ?F32x4Splat@SharedTurboAssembler@internal@v8@@QEAAXVXMMRegister@23@0@Z
  ?F32x4Sqrt@MachineOperatorBuilder@compiler@internal@v8@@QEAAPEBVOperator@234@XZ
  ?F32x4Sub@MachineOperatorBuilder@compiler@internal@v8@@QEAAPEBVOperator@234@XZ
  ?F32x4Trunc@MachineOperatorBuilder@compiler@internal@v8@@QEAAPEBVOperator@234@XZ
  ?F32x4UConvertI32x4@MachineOperatorBuilder@compiler@internal@v8@@QEAAPEBVOperator@234@XZ
  ?F64x2Abs@MachineOperatorBuilder@compiler@internal@v8@@QEAAPEBVOperator@234@XZ
  ?F64x2Add@MachineOperatorBuilder@compiler@internal@v8@@QEAAPEBVOperator@234@XZ
  ?F64x2Ceil@MachineOperatorBuilder@compiler@internal@v8@@QEAAPEBVOperator@234@XZ
  ?F64x2ConvertLowI32x4S@MachineOperatorBuilder@compiler@internal@v8@@QEAAPEBVOperator@234@XZ
  ?F64x2ConvertLowI32x4U@?$SharedTurboAssemblerBase@VTurboAssembler@internal@v8@@@internal@v8@@QEAAXVXMMRegister@23@0VRegister@23@@Z
  ?F64x2ConvertLowI32x4U@MachineOperatorBuilder@compiler@internal@v8@@QEAAPEBVOperator@234@XZ
  ?F64x2Div@MachineOperatorBuilder@compiler@internal@v8@@QEAAPEBVOperator@234@XZ
  ?F64x2Eq@MachineOperatorBuilder@compiler@internal@v8@@QEAAPEBVOperator@234@XZ
  ?F64x2ExtractLane@MachineOperatorBuilder@compiler@internal@v8@@QEAAPEBVOperator@234@H@Z
  ?F64x2ExtractLane@SharedTurboAssembler@internal@v8@@QEAAXVXMMRegister@23@0E@Z
  ?F64x2Floor@MachineOperatorBuilder@compiler@internal@v8@@QEAAPEBVOperator@234@XZ
  ?F64x2Le@MachineOperatorBuilder@compiler@internal@v8@@QEAAPEBVOperator@234@XZ
  ?F64x2Lt@MachineOperatorBuilder@compiler@internal@v8@@QEAAPEBVOperator@234@XZ
  ?F64x2Max@MachineOperatorBuilder@compiler@internal@v8@@QEAAPEBVOperator@234@XZ
  ?F64x2Max@SharedTurboAssembler@internal@v8@@QEAAXVXMMRegister@23@000@Z
  ?F64x2Min@MachineOperatorBuilder@compiler@internal@v8@@QEAAPEBVOperator@234@XZ
  ?F64x2Min@SharedTurboAssembler@internal@v8@@QEAAXVXMMRegister@23@000@Z
  ?F64x2Mul@MachineOperatorBuilder@compiler@internal@v8@@QEAAPEBVOperator@234@XZ
  ?F64x2Ne@MachineOperatorBuilder@compiler@internal@v8@@QEAAPEBVOperator@234@XZ
  ?F64x2NearestInt@MachineOperatorBuilder@compiler@internal@v8@@QEAAPEBVOperator@234@XZ
  ?F64x2Neg@MachineOperatorBuilder@compiler@internal@v8@@QEAAPEBVOperator@234@XZ
  ?F64x2Pmax@MachineOperatorBuilder@compiler@internal@v8@@QEAAPEBVOperator@234@XZ
  ?F64x2Pmin@MachineOperatorBuilder@compiler@internal@v8@@QEAAPEBVOperator@234@XZ
  ?F64x2PromoteLowF32x4@MachineOperatorBuilder@compiler@internal@v8@@QEAAPEBVOperator@234@XZ
  ?F64x2Qfma@MachineOperatorBuilder@compiler@internal@v8@@QEAAPEBVOperator@234@XZ
  ?F64x2Qfma@SharedTurboAssembler@internal@v8@@QEAAXVXMMRegister@23@0000@Z
  ?F64x2Qfms@MachineOperatorBuilder@compiler@internal@v8@@QEAAPEBVOperator@234@XZ
  ?F64x2Qfms@SharedTurboAssembler@internal@v8@@QEAAXVXMMRegister@23@0000@Z
  ?F64x2RelaxedMax@MachineOperatorBuilder@compiler@internal@v8@@QEAAPEBVOperator@234@XZ
  ?F64x2RelaxedMin@MachineOperatorBuilder@compiler@internal@v8@@QEAAPEBVOperator@234@XZ
  ?F64x2ReplaceLane@MachineOperatorBuilder@compiler@internal@v8@@QEAAPEBVOperator@234@H@Z
  ?F64x2ReplaceLane@SharedTurboAssembler@internal@v8@@QEAAXVXMMRegister@23@00E@Z
  ?F64x2Splat@MachineOperatorBuilder@compiler@internal@v8@@QEAAPEBVOperator@234@XZ
  ?F64x2Sqrt@MachineOperatorBuilder@compiler@internal@v8@@QEAAPEBVOperator@234@XZ
  ?F64x2Sub@MachineOperatorBuilder@compiler@internal@v8@@QEAAPEBVOperator@234@XZ
  ?F64x2Trunc@MachineOperatorBuilder@compiler@internal@v8@@QEAAPEBVOperator@234@XZ
  ?FLAG_abort_on_contradictory_flags@internal@v8@@3_NA
  ?FLAG_abort_on_uncaught_exception@internal@v8@@3_NA
  ?FLAG_adjust_os_scheduling_parameters@internal@v8@@3_NA
  ?FLAG_allocation_buffer_parking@internal@v8@@3_NA
  ?FLAG_allocation_site_pretenuring@internal@v8@@3_NA
  ?FLAG_allow_natives_for_differential_fuzzing@internal@v8@@3_NA
  ?FLAG_allow_natives_syntax@internal@v8@@3_NA
  ?FLAG_allow_overwriting_for_next_flag@internal@v8@@3_NA
  ?FLAG_allow_unsafe_function_constructor@internal@v8@@3_NA
  ?FLAG_always_opt@internal@v8@@3_NA
  ?FLAG_always_osr@internal@v8@@3_NA
  ?FLAG_always_sparkplug@internal@v8@@3_NA
  ?FLAG_analyze_environment_liveness@internal@v8@@3_NA
  ?FLAG_arm_arch@internal@v8@@3PEBDEB
  ?FLAG_asm_wasm_lazy_compilation@internal@v8@@3_NA
  ?FLAG_assert_types@internal@v8@@3_NA
  ?FLAG_async_stack_traces@internal@v8@@3_NA
  ?FLAG_baseline_batch_compilation@internal@v8@@3_NA
  ?FLAG_baseline_batch_compilation_threshold@internal@v8@@3HA
  ?FLAG_builtin_subclassing@internal@v8@@3_NA
  ?FLAG_builtins_in_stack_traces@internal@v8@@3_NA
  ?FLAG_bytecode_size_allowance_per_tick@internal@v8@@3HA
  ?FLAG_cache_prototype_transitions@internal@v8@@3_NA
  ?FLAG_clear_exceptions_on_js_entry@internal@v8@@3_NA
  ?FLAG_clear_free_memory@internal@v8@@3_NA
  ?FLAG_compact@internal@v8@@3_NA
  ?FLAG_compact_code_space@internal@v8@@3_NA
  ?FLAG_compact_code_space_with_stack@internal@v8@@3_NA
  ?FLAG_compact_maps@internal@v8@@3_NA
  ?FLAG_compact_on_every_full_gc@internal@v8@@3_NA
  ?FLAG_compact_with_stack@internal@v8@@3_NA
  ?FLAG_compilation_cache@internal@v8@@3_NA
  ?FLAG_concurrent_array_buffer_sweeping@internal@v8@@3_NA
  ?FLAG_concurrent_cache_deserialization@internal@v8@@3_NA
  ?FLAG_concurrent_marking@internal@v8@@3_NA
  ?FLAG_concurrent_osr@internal@v8@@3_NA
  ?FLAG_concurrent_recompilation@internal@v8@@3_NA
  ?FLAG_concurrent_recompilation_delay@internal@v8@@3HA
  ?FLAG_concurrent_recompilation_queue_length@internal@v8@@3HA
  ?FLAG_concurrent_sparkplug@internal@v8@@3_NA
  ?FLAG_concurrent_sparkplug_max_threads@internal@v8@@3IA
  ?FLAG_concurrent_sweeping@internal@v8@@3_NA
  ?FLAG_correctness_fuzzer_suppressions@internal@v8@@3_NA
  ?FLAG_cpu_profiler_sampling_interval@internal@v8@@3HA
  ?FLAG_crash_on_aborted_evacuation@internal@v8@@3_NA
  ?FLAG_csa_trap_on_node@internal@v8@@3PEBDEB
  ?FLAG_default_to_experimental_regexp_engine@internal@v8@@3_NA
  ?FLAG_deopt_every_n_times@internal@v8@@3HA
  ?FLAG_detailed_error_stack_trace@internal@v8@@3_NA
  ?FLAG_detailed_line_info@internal@v8@@3_NA
  ?FLAG_detect_ineffective_gcs_near_heap_limit@internal@v8@@3_NA
  ?FLAG_disable_abortjs@internal@v8@@3_NA
  ?FLAG_disable_old_api_accessors@internal@v8@@3_NA
  ?FLAG_disallow_code_generation_from_strings@internal@v8@@3_NA
  ?FLAG_dump_wasm_module_path@internal@v8@@3PEBDEB
  ?FLAG_embedded_src@internal@v8@@3PEBDEB
  ?FLAG_embedded_variant@internal@v8@@3PEBDEB
  ?FLAG_embedder_instance_types@internal@v8@@3_NA
  ?FLAG_enable_32dregs@internal@v8@@3UMaybeBoolFlag@12@A
  ?FLAG_enable_armv7@internal@v8@@3UMaybeBoolFlag@12@A
  ?FLAG_enable_armv8@internal@v8@@3UMaybeBoolFlag@12@A
  ?FLAG_enable_avx2@internal@v8@@3_NA
  ?FLAG_enable_avx@internal@v8@@3_NA
  ?FLAG_enable_bmi1@internal@v8@@3_NA
  ?FLAG_enable_bmi2@internal@v8@@3_NA
  ?FLAG_enable_experimental_regexp_engine@internal@v8@@3_NA
  ?FLAG_enable_experimental_regexp_engine_on_excessive_backtracks@internal@v8@@3_NA
  ?FLAG_enable_fma3@internal@v8@@3_NA
  ?FLAG_enable_lazy_source_positions@internal@v8@@3_NA
  ?FLAG_enable_lzcnt@internal@v8@@3_NA
  ?FLAG_enable_mega_dom_ic@internal@v8@@3_NA
  ?FLAG_enable_neon@internal@v8@@3UMaybeBoolFlag@12@A
  ?FLAG_enable_popcnt@internal@v8@@3_NA
  ?FLAG_enable_regexp_unaligned_accesses@internal@v8@@3_NA
  ?FLAG_enable_sahf@internal@v8@@3_NA
  ?FLAG_enable_sharedarraybuffer_per_context@internal@v8@@3_NA
  ?FLAG_enable_source_at_csa_bind@internal@v8@@3_NA
  ?FLAG_enable_sse3@internal@v8@@3_NA
  ?FLAG_enable_sse4_1@internal@v8@@3_NA
  ?FLAG_enable_sse4_2@internal@v8@@3_NA
  ?FLAG_enable_ssse3@internal@v8@@3_NA
  ?FLAG_enable_sudiv@internal@v8@@3UMaybeBoolFlag@12@A
  ?FLAG_enable_system_instrumentation@internal@v8@@3_NA
  ?FLAG_enable_vfp3@internal@v8@@3UMaybeBoolFlag@12@A
  ?FLAG_ephemeron_fixpoint_iterations@internal@v8@@3HA
  ?FLAG_experimental_async_stack_tagging_api@internal@v8@@3_NA
  ?FLAG_experimental_flush_embedded_blob_icache@internal@v8@@3_NA
  ?FLAG_experimental_stack_trace_frames@internal@v8@@3_NA
  ?FLAG_experimental_wasm_allow_huge_modules@internal@v8@@3_NA
  ?FLAG_experimental_wasm_assume_ref_cast_succeeds@internal@v8@@3_NA
  ?FLAG_experimental_wasm_branch_hinting@internal@v8@@3_NA
  ?FLAG_experimental_wasm_compilation_hints@internal@v8@@3_NA
  ?FLAG_experimental_wasm_eh@internal@v8@@3_NA
  ?FLAG_experimental_wasm_extended_const@internal@v8@@3_NA
  ?FLAG_experimental_wasm_gc@internal@v8@@3_NA
  ?FLAG_experimental_wasm_memory64@internal@v8@@3_NA
  ?FLAG_experimental_wasm_nn_locals@internal@v8@@3_NA
  ?FLAG_experimental_wasm_relaxed_simd@internal@v8@@3_NA
  ?FLAG_experimental_wasm_return_call@internal@v8@@3_NA
  ?FLAG_experimental_wasm_simd@internal@v8@@3_NA
  ?FLAG_experimental_wasm_skip_bounds_checks@internal@v8@@3_NA
  ?FLAG_experimental_wasm_skip_null_checks@internal@v8@@3_NA
  ?FLAG_experimental_wasm_stack_switching@internal@v8@@3_NA
